

Microchip MPLAB XC8 Assembler V2.45 build 20230818022343 
                                                                                               Wed Sep  3 12:12:33 2025

Microchip MPLAB XC8 C Compiler v2.45 (Free license) build 20230818022343 Og9 
     1                           	processor	16F1454
     2                           	pagewidth 120
     3                           	opt	flic
     4                           	psect	idataBANK1,global,class=CODE,delta=2,noexec
     5                           	psect	idataBANK6,global,class=CODE,delta=2,noexec
     6                           	psect	idataBANK7,global,class=CODE,delta=2,noexec
     7                           	psect	stringtext1,global,class=STRCODE,delta=2,noexec
     8                           	psect	stringtext2,global,class=STRCODE,delta=2,noexec
     9                           	psect	stringtext3,global,class=STRCODE,delta=2,noexec
    10                           	psect	stringtext4,global,class=STRCODE,delta=2,noexec
    11                           	psect	stringtext5,global,class=STRCODE,delta=2,noexec
    12                           	psect	stringtext6,global,class=STRCODE,delta=2,noexec
    13                           	psect	stringtext7,global,class=STRCODE,delta=2,noexec
    14                           	psect	stringtext8,global,class=STRCODE,delta=2,noexec
    15                           	psect	stringtext9,global,class=STRCODE,delta=2,noexec
    16                           	psect	stringtext10,global,class=STRCODE,delta=2,noexec
    17                           	psect	stringtext11,global,class=STRCODE,delta=2,noexec
    18                           	psect	cinit,global,class=CODE,merge=1,delta=2
    19                           	psect	bssBANK0,global,class=BANK0,space=1,delta=1,noexec
    20                           	psect	bssBANK1,global,class=BANK1,space=1,delta=1,noexec
    21                           	psect	dataBANK1,global,class=BANK1,space=1,delta=1,noexec
    22                           	psect	bssBANK6,global,class=BANK6,space=1,delta=1,noexec
    23                           	psect	dataBANK6,global,class=BANK6,space=1,delta=1,noexec
    24                           	psect	bssBANK7,global,class=BANK7,space=1,delta=1,noexec
    25                           	psect	dataBANK7,global,class=BANK7,space=1,delta=1,noexec
    26                           	psect	bssBANK8,global,class=BANK8,space=1,delta=1,noexec
    27                           	psect	inittext,global,class=CODE,delta=2
    28                           	psect	clrtext,global,class=CODE,delta=2
    29                           	psect	cstackBANK6,global,class=BANK6,space=1,delta=1,noexec
    30                           	psect	cstackBANK5,global,class=BANK5,space=1,delta=1,noexec
    31                           	psect	cstackBANK2,global,class=BANK2,space=1,delta=1,noexec
    32                           	psect	cstackBANK1,global,class=BANK1,space=1,delta=1,noexec
    33                           	psect	cstackCOMMON,global,class=COMMON,space=1,delta=1,noexec
    34                           	psect	cstackBANK0,global,class=BANK0,space=1,delta=1,noexec
    35                           	psect	maintext,global,class=CODE,merge=1,split=1,delta=2
    36                           	psect	text1,local,class=CODE,merge=1,delta=2
    37                           	psect	text2,local,class=CODE,merge=1,delta=2
    38                           	psect	text3,local,class=CODE,merge=1,delta=2
    39                           	psect	text4,local,class=CODE,merge=1,delta=2
    40                           	psect	text5,local,class=CODE,merge=1,delta=2
    41                           	psect	text6,local,class=CODE,merge=1,delta=2
    42                           	psect	text7,local,class=CODE,merge=1,delta=2
    43                           	psect	text8,local,class=CODE,merge=1,delta=2
    44                           	psect	text9,local,class=CODE,merge=1,delta=2
    45                           	psect	text10,local,class=CODE,merge=1,delta=2
    46                           	psect	text11,local,class=CODE,merge=1,delta=2
    47                           	psect	text12,local,class=CODE,merge=1,delta=2
    48                           	psect	text13,local,class=CODE,merge=1,delta=2
    49                           	psect	text14,local,class=CODE,merge=1,delta=2
    50                           	psect	text15,local,class=CODE,merge=1,delta=2
    51                           	psect	text16,local,class=CODE,merge=1,delta=2,group=2
    52                           	psect	text17,local,class=CODE,merge=1,delta=2
    53                           	psect	text18,local,class=CODE,merge=1,delta=2
    54                           	psect	text19,local,class=CODE,merge=1,delta=2
    55                           	psect	text20,local,class=CODE,merge=1,delta=2
    56                           	psect	text21,local,class=CODE,merge=1,delta=2
    57                           	psect	text22,local,class=CODE,merge=1,delta=2
    58                           	psect	text23,local,class=CODE,merge=1,delta=2
    59                           	psect	text24,local,class=CODE,merge=1,delta=2
    60                           	psect	text25,local,class=CODE,merge=1,delta=2,group=1
    61                           	psect	text26,local,class=CODE,merge=1,delta=2,group=2
    62                           	psect	text27,local,class=CODE,merge=1,delta=2
    63                           	psect	text28,local,class=CODE,merge=1,delta=2
    64                           	psect	intentry,global,class=CODE,delta=2
    65                           	psect	text30,local,class=CODE,merge=1,delta=2
    66                           	psect	text31,local,class=CODE,merge=1,delta=2
    67                           	psect	text32,local,class=CODE,merge=1,delta=2
    68                           	psect	text33,local,class=CODE,merge=1,inline,delta=2
    69                           	psect	text34,local,class=CODE,merge=1,inline,delta=2
    70                           	psect	text35,local,class=CODE,merge=1,delta=2
    71                           	psect	text36,local,class=CODE,merge=1,delta=2
    72                           	psect	text37,local,class=CODE,merge=1,delta=2
    73                           	psect	text38,local,class=CODE,merge=1,delta=2
    74                           	psect	text39,local,class=CODE,merge=1,delta=2
    75                           	psect	text40,local,class=CODE,merge=1,delta=2
    76                           	psect	text41,local,class=CODE,merge=1,delta=2
    77                           	psect	text42,local,class=CODE,merge=1,delta=2
    78                           	psect	text43,local,class=CODE,merge=1,delta=2
    79                           	psect	text44,local,class=CODE,merge=1,delta=2
    80                           	psect	text45,local,class=CODE,merge=1,delta=2
    81                           	psect	text46,local,class=CODE,merge=1,delta=2
    82                           	psect	text47,local,class=CODE,merge=1,delta=2
    83                           	psect	text48,local,class=CODE,merge=1,delta=2
    84                           	psect	text49,local,class=CODE,merge=1,delta=2
    85                           	psect	text50,local,class=CODE,merge=1,delta=2
    86                           	psect	text51,local,class=CODE,merge=1,delta=2
    87                           	psect	text52,local,class=CODE,merge=1,delta=2
    88                           	psect	text53,local,class=CODE,merge=1,delta=2
    89                           	psect	text54,local,class=CODE,merge=1,delta=2
    90                           	psect	text55,local,class=CODE,merge=1,delta=2
    91                           	psect	text56,local,class=CODE,merge=1,delta=2
    92                           	psect	text57,local,class=CODE,merge=1,delta=2
    93                           	psect	text58,local,class=CODE,merge=1,delta=2
    94                           	psect	text59,local,class=CODE,merge=1,delta=2
    95                           	psect	text60,local,class=CODE,merge=1,delta=2
    96                           	psect	text61,local,class=CODE,merge=1,inline,delta=2
    97                           	psect	text62,local,class=CODE,merge=1,delta=2
    98                           	psect	text63,local,class=CODE,merge=1,delta=2
    99                           	psect	text64,local,class=CODE,merge=1,inline,delta=2
   100                           	psect	text65,local,class=CODE,merge=1,delta=2
   101                           	psect	text66,local,class=CODE,merge=1,delta=2
   102                           	psect	text67,local,class=CODE,merge=1,delta=2
   103                           	psect	text68,local,class=CODE,merge=1,delta=2
   104                           	psect	text69,local,class=CODE,merge=1,delta=2
   105                           	psect	text70,local,class=CODE,merge=1,delta=2
   106                           	psect	text71,local,class=CODE,merge=1,delta=2
   107                           	psect	text72,local,class=CODE,merge=1,delta=2
   108                           	psect	text73,local,class=CODE,merge=1,delta=2
   109                           	psect	text74,local,class=CODE,merge=1,delta=2
   110                           	psect	text75,local,class=CODE,merge=1,delta=2
   111                           	psect	text76,local,class=CODE,merge=1,delta=2
   112                           	psect	text77,local,class=CODE,merge=1,delta=2
   113                           	psect	text78,local,class=CODE,merge=1,delta=2
   114                           	psect	idloc,global,abs,ovrld,class=IDLOC,space=5,delta=2,noexec
   115                           	psect	config,global,abs,ovrld,class=CONFIG,space=4,delta=2,noexec
   116                           	dabs	1,0x620,48
   117                           	dabs	1,0x5A0,80
   118                           	dabs	1,0x520,80
   119                           	dabs	1,0x4A8,72
   120                           	dabs	1,0x2A0,22
   121                           	dabs	1,0x220,80
   122                           	dabs	1,0x1A0,80
   123                           	dabs	1,0x120,80
   124                           	dabs	1,0xD0,32
   125                           	dabs	1,0x20,40,_bds
   126                           	dabs	1,0x22D8,0,_pp_buf
   127                           	dabs	1,0x7E,2
   128     0000                     
   129                           ; Generated 06/07/2023 GMT
   130                           ; 
   131                           ; Copyright © 2023, Microchip Technology Inc. and its subsidiaries ("Microchip")
   132                           ; All rights reserved.
   133                           ; 
   134                           ; This software is developed by Microchip Technology Inc. and its subsidiaries ("Microch
      +                          ip").
   135                           ; 
   136                           ; Redistribution and use in source and binary forms, with or without modification, are
   137                           ; permitted provided that the following conditions are met:
   138                           ; 
   139                           ;     1. Redistributions of source code must retain the above copyright notice, this lis
      +                          t of
   140                           ;        conditions and the following disclaimer.
   141                           ; 
   142                           ;     2. Redistributions in binary form must reproduce the above copyright notice, this 
      +                          list
   143                           ;        of conditions and the following disclaimer in the documentation and/or other
   144                           ;        materials provided with the distribution. Publication is not required when
   145                           ;        this file is used in an embedded application.
   146                           ; 
   147                           ;     3. Microchip's name may not be used to endorse or promote products derived from th
      +                          is
   148                           ;        software without specific prior written permission.
   149                           ; 
   150                           ; THIS SOFTWARE IS PROVIDED BY MICROCHIP "AS IS" AND ANY EXPRESS OR IMPLIED WARRANTIES,
   151                           ; INCLUDING, BUT NOT LIMITED TO, THE IMPLIED WARRANTIES OF MERCHANTABILITY AND FITNESS F
      +                          OR
   152                           ; PURPOSE ARE DISCLAIMED.  IN NO EVENT SHALL MICROCHIP BE LIABLE FOR ANY DIRECT, INDIREC
      +                          T,
   153                           ; INCIDENTAL, SPECIAL, EXEMPLARY, OR CONSEQUENTIAL DAMAGES (INCLUDING BUT NOT LIMITED TO
   154                           ; PROCUREMENT OF SUBSTITUTE GOODS OR SERVICES; LOSS OF USE, DATA OR PROFITS; OR BUSINESS
   155                           ; INTERRUPTION) HOWSOEVER CAUSED AND ON ANY THEORY OF LIABILITY, WHETHER IN CONTRACT, ST
      +                          RICT
   156                           ; LIABILITY, OR TORT (INCLUDING NEGLIGENCE OR OTHERWISE) ARISING IN ANY WAY OUT OF THE U
      +                          SE OF
   157                           ; THIS SOFTWARE, EVEN IF ADVISED OF THE POSSIBILITY OF SUCH DAMAGE.
   158                           ; 
   159                           ; 
   160                           ; Code-generator required, PIC16F1454 Definitions
   161                           ; 
   162                           ; SFR Addresses
   163     0000                     	;# 
   164     0001                     	;# 
   165     0002                     	;# 
   166     0003                     	;# 
   167     0004                     	;# 
   168     0005                     	;# 
   169     0006                     	;# 
   170     0007                     	;# 
   171     0008                     	;# 
   172     0009                     	;# 
   173     000A                     	;# 
   174     000B                     	;# 
   175     000C                     	;# 
   176     000E                     	;# 
   177     0011                     	;# 
   178     0012                     	;# 
   179     0015                     	;# 
   180     0016                     	;# 
   181     0016                     	;# 
   182     0017                     	;# 
   183     0018                     	;# 
   184     0019                     	;# 
   185     001A                     	;# 
   186     001B                     	;# 
   187     001C                     	;# 
   188     008C                     	;# 
   189     008E                     	;# 
   190     0091                     	;# 
   191     0092                     	;# 
   192     0095                     	;# 
   193     0096                     	;# 
   194     0097                     	;# 
   195     0098                     	;# 
   196     0099                     	;# 
   197     009A                     	;# 
   198     010C                     	;# 
   199     010E                     	;# 
   200     0116                     	;# 
   201     0117                     	;# 
   202     011D                     	;# 
   203     018C                     	;# 
   204     018E                     	;# 
   205     0191                     	;# 
   206     0191                     	;# 
   207     0192                     	;# 
   208     0193                     	;# 
   209     0193                     	;# 
   210     0194                     	;# 
   211     0195                     	;# 
   212     0196                     	;# 
   213     0197                     	;# 
   214     0199                     	;# 
   215     019A                     	;# 
   216     019B                     	;# 
   217     019B                     	;# 
   218     019C                     	;# 
   219     019D                     	;# 
   220     019E                     	;# 
   221     019F                     	;# 
   222     020C                     	;# 
   223     0211                     	;# 
   224     0211                     	;# 
   225     0212                     	;# 
   226     0212                     	;# 
   227     0213                     	;# 
   228     0213                     	;# 
   229     0214                     	;# 
   230     0214                     	;# 
   231     0215                     	;# 
   232     0215                     	;# 
   233     0215                     	;# 
   234     0216                     	;# 
   235     0216                     	;# 
   236     0217                     	;# 
   237     0217                     	;# 
   238     0391                     	;# 
   239     0392                     	;# 
   240     0393                     	;# 
   241     039A                     	;# 
   242     039B                     	;# 
   243     0611                     	;# 
   244     0612                     	;# 
   245     0613                     	;# 
   246     0613                     	;# 
   247     0614                     	;# 
   248     0615                     	;# 
   249     0616                     	;# 
   250     0616                     	;# 
   251     0E8E                     	;# 
   252     0E8F                     	;# 
   253     0E90                     	;# 
   254     0E91                     	;# 
   255     0E92                     	;# 
   256     0E93                     	;# 
   257     0E94                     	;# 
   258     0E94                     	;# 
   259     0E95                     	;# 
   260     0E96                     	;# 
   261     0E97                     	;# 
   262     0E98                     	;# 
   263     0E99                     	;# 
   264     0E9A                     	;# 
   265     0E9B                     	;# 
   266     0E9C                     	;# 
   267     0E9D                     	;# 
   268     0E9E                     	;# 
   269     0E9F                     	;# 
   270     0FE4                     	;# 
   271     0FE5                     	;# 
   272     0FE6                     	;# 
   273     0FE7                     	;# 
   274     0FE8                     	;# 
   275     0FE9                     	;# 
   276     0FEA                     	;# 
   277     0FEB                     	;# 
   278     0FED                     	;# 
   279     0FEE                     	;# 
   280     0FEF                     	;# 
   281     0000                     	;# 
   282     0001                     	;# 
   283     0002                     	;# 
   284     0003                     	;# 
   285     0004                     	;# 
   286     0005                     	;# 
   287     0006                     	;# 
   288     0007                     	;# 
   289     0008                     	;# 
   290     0009                     	;# 
   291     000A                     	;# 
   292     000B                     	;# 
   293     000C                     	;# 
   294     000E                     	;# 
   295     0011                     	;# 
   296     0012                     	;# 
   297     0015                     	;# 
   298     0016                     	;# 
   299     0016                     	;# 
   300     0017                     	;# 
   301     0018                     	;# 
   302     0019                     	;# 
   303     001A                     	;# 
   304     001B                     	;# 
   305     001C                     	;# 
   306     008C                     	;# 
   307     008E                     	;# 
   308     0091                     	;# 
   309     0092                     	;# 
   310     0095                     	;# 
   311     0096                     	;# 
   312     0097                     	;# 
   313     0098                     	;# 
   314     0099                     	;# 
   315     009A                     	;# 
   316     010C                     	;# 
   317     010E                     	;# 
   318     0116                     	;# 
   319     0117                     	;# 
   320     011D                     	;# 
   321     018C                     	;# 
   322     018E                     	;# 
   323     0191                     	;# 
   324     0191                     	;# 
   325     0192                     	;# 
   326     0193                     	;# 
   327     0193                     	;# 
   328     0194                     	;# 
   329     0195                     	;# 
   330     0196                     	;# 
   331     0197                     	;# 
   332     0199                     	;# 
   333     019A                     	;# 
   334     019B                     	;# 
   335     019B                     	;# 
   336     019C                     	;# 
   337     019D                     	;# 
   338     019E                     	;# 
   339     019F                     	;# 
   340     020C                     	;# 
   341     0211                     	;# 
   342     0211                     	;# 
   343     0212                     	;# 
   344     0212                     	;# 
   345     0213                     	;# 
   346     0213                     	;# 
   347     0214                     	;# 
   348     0214                     	;# 
   349     0215                     	;# 
   350     0215                     	;# 
   351     0215                     	;# 
   352     0216                     	;# 
   353     0216                     	;# 
   354     0217                     	;# 
   355     0217                     	;# 
   356     0391                     	;# 
   357     0392                     	;# 
   358     0393                     	;# 
   359     039A                     	;# 
   360     039B                     	;# 
   361     0611                     	;# 
   362     0612                     	;# 
   363     0613                     	;# 
   364     0613                     	;# 
   365     0614                     	;# 
   366     0615                     	;# 
   367     0616                     	;# 
   368     0616                     	;# 
   369     0E8E                     	;# 
   370     0E8F                     	;# 
   371     0E90                     	;# 
   372     0E91                     	;# 
   373     0E92                     	;# 
   374     0E93                     	;# 
   375     0E94                     	;# 
   376     0E94                     	;# 
   377     0E95                     	;# 
   378     0E96                     	;# 
   379     0E97                     	;# 
   380     0E98                     	;# 
   381     0E99                     	;# 
   382     0E9A                     	;# 
   383     0E9B                     	;# 
   384     0E9C                     	;# 
   385     0E9D                     	;# 
   386     0E9E                     	;# 
   387     0E9F                     	;# 
   388     0FE4                     	;# 
   389     0FE5                     	;# 
   390     0FE6                     	;# 
   391     0FE7                     	;# 
   392     0FE8                     	;# 
   393     0FE9                     	;# 
   394     0FEA                     	;# 
   395     0FEB                     	;# 
   396     0FED                     	;# 
   397     0FEE                     	;# 
   398     0FEF                     	;# 
   399     0000                     	;# 
   400     0001                     	;# 
   401     0002                     	;# 
   402     0003                     	;# 
   403     0004                     	;# 
   404     0005                     	;# 
   405     0006                     	;# 
   406     0007                     	;# 
   407     0008                     	;# 
   408     0009                     	;# 
   409     000A                     	;# 
   410     000B                     	;# 
   411     000C                     	;# 
   412     000E                     	;# 
   413     0011                     	;# 
   414     0012                     	;# 
   415     0015                     	;# 
   416     0016                     	;# 
   417     0016                     	;# 
   418     0017                     	;# 
   419     0018                     	;# 
   420     0019                     	;# 
   421     001A                     	;# 
   422     001B                     	;# 
   423     001C                     	;# 
   424     008C                     	;# 
   425     008E                     	;# 
   426     0091                     	;# 
   427     0092                     	;# 
   428     0095                     	;# 
   429     0096                     	;# 
   430     0097                     	;# 
   431     0098                     	;# 
   432     0099                     	;# 
   433     009A                     	;# 
   434     010C                     	;# 
   435     010E                     	;# 
   436     0116                     	;# 
   437     0117                     	;# 
   438     011D                     	;# 
   439     018C                     	;# 
   440     018E                     	;# 
   441     0191                     	;# 
   442     0191                     	;# 
   443     0192                     	;# 
   444     0193                     	;# 
   445     0193                     	;# 
   446     0194                     	;# 
   447     0195                     	;# 
   448     0196                     	;# 
   449     0197                     	;# 
   450     0199                     	;# 
   451     019A                     	;# 
   452     019B                     	;# 
   453     019B                     	;# 
   454     019C                     	;# 
   455     019D                     	;# 
   456     019E                     	;# 
   457     019F                     	;# 
   458     020C                     	;# 
   459     0211                     	;# 
   460     0211                     	;# 
   461     0212                     	;# 
   462     0212                     	;# 
   463     0213                     	;# 
   464     0213                     	;# 
   465     0214                     	;# 
   466     0214                     	;# 
   467     0215                     	;# 
   468     0215                     	;# 
   469     0215                     	;# 
   470     0216                     	;# 
   471     0216                     	;# 
   472     0217                     	;# 
   473     0217                     	;# 
   474     0391                     	;# 
   475     0392                     	;# 
   476     0393                     	;# 
   477     039A                     	;# 
   478     039B                     	;# 
   479     0611                     	;# 
   480     0612                     	;# 
   481     0613                     	;# 
   482     0613                     	;# 
   483     0614                     	;# 
   484     0615                     	;# 
   485     0616                     	;# 
   486     0616                     	;# 
   487     0E8E                     	;# 
   488     0E8F                     	;# 
   489     0E90                     	;# 
   490     0E91                     	;# 
   491     0E92                     	;# 
   492     0E93                     	;# 
   493     0E94                     	;# 
   494     0E94                     	;# 
   495     0E95                     	;# 
   496     0E96                     	;# 
   497     0E97                     	;# 
   498     0E98                     	;# 
   499     0E99                     	;# 
   500     0E9A                     	;# 
   501     0E9B                     	;# 
   502     0E9C                     	;# 
   503     0E9D                     	;# 
   504     0E9E                     	;# 
   505     0E9F                     	;# 
   506     0FE4                     	;# 
   507     0FE5                     	;# 
   508     0FE6                     	;# 
   509     0FE7                     	;# 
   510     0FE8                     	;# 
   511     0FE9                     	;# 
   512     0FEA                     	;# 
   513     0FEB                     	;# 
   514     0FED                     	;# 
   515     0FEE                     	;# 
   516     0FEF                     	;# 
   517     0000                     	;# 
   518     0001                     	;# 
   519     0002                     	;# 
   520     0003                     	;# 
   521     0004                     	;# 
   522     0005                     	;# 
   523     0006                     	;# 
   524     0007                     	;# 
   525     0008                     	;# 
   526     0009                     	;# 
   527     000A                     	;# 
   528     000B                     	;# 
   529     000C                     	;# 
   530     000E                     	;# 
   531     0011                     	;# 
   532     0012                     	;# 
   533     0015                     	;# 
   534     0016                     	;# 
   535     0016                     	;# 
   536     0017                     	;# 
   537     0018                     	;# 
   538     0019                     	;# 
   539     001A                     	;# 
   540     001B                     	;# 
   541     001C                     	;# 
   542     008C                     	;# 
   543     008E                     	;# 
   544     0091                     	;# 
   545     0092                     	;# 
   546     0095                     	;# 
   547     0096                     	;# 
   548     0097                     	;# 
   549     0098                     	;# 
   550     0099                     	;# 
   551     009A                     	;# 
   552     010C                     	;# 
   553     010E                     	;# 
   554     0116                     	;# 
   555     0117                     	;# 
   556     011D                     	;# 
   557     018C                     	;# 
   558     018E                     	;# 
   559     0191                     	;# 
   560     0191                     	;# 
   561     0192                     	;# 
   562     0193                     	;# 
   563     0193                     	;# 
   564     0194                     	;# 
   565     0195                     	;# 
   566     0196                     	;# 
   567     0197                     	;# 
   568     0199                     	;# 
   569     019A                     	;# 
   570     019B                     	;# 
   571     019B                     	;# 
   572     019C                     	;# 
   573     019D                     	;# 
   574     019E                     	;# 
   575     019F                     	;# 
   576     020C                     	;# 
   577     0211                     	;# 
   578     0211                     	;# 
   579     0212                     	;# 
   580     0212                     	;# 
   581     0213                     	;# 
   582     0213                     	;# 
   583     0214                     	;# 
   584     0214                     	;# 
   585     0215                     	;# 
   586     0215                     	;# 
   587     0215                     	;# 
   588     0216                     	;# 
   589     0216                     	;# 
   590     0217                     	;# 
   591     0217                     	;# 
   592     0391                     	;# 
   593     0392                     	;# 
   594     0393                     	;# 
   595     039A                     	;# 
   596     039B                     	;# 
   597     0611                     	;# 
   598     0612                     	;# 
   599     0613                     	;# 
   600     0613                     	;# 
   601     0614                     	;# 
   602     0615                     	;# 
   603     0616                     	;# 
   604     0616                     	;# 
   605     0E8E                     	;# 
   606     0E8F                     	;# 
   607     0E90                     	;# 
   608     0E91                     	;# 
   609     0E92                     	;# 
   610     0E93                     	;# 
   611     0E94                     	;# 
   612     0E94                     	;# 
   613     0E95                     	;# 
   614     0E96                     	;# 
   615     0E97                     	;# 
   616     0E98                     	;# 
   617     0E99                     	;# 
   618     0E9A                     	;# 
   619     0E9B                     	;# 
   620     0E9C                     	;# 
   621     0E9D                     	;# 
   622     0E9E                     	;# 
   623     0E9F                     	;# 
   624     0FE4                     	;# 
   625     0FE5                     	;# 
   626     0FE6                     	;# 
   627     0FE7                     	;# 
   628     0FE8                     	;# 
   629     0FE9                     	;# 
   630     0FEA                     	;# 
   631     0FEB                     	;# 
   632     0FED                     	;# 
   633     0FEE                     	;# 
   634     0FEF                     	;_ep_buffers
   635                           
   636                           	psect	idataBANK1
   637     1079                     __pidataBANK1:
   638                           
   639                           ;initializer for _ep0_buf
   640     1079  3480               	retlw	128
   641     107A  3420               	retlw	32
   642     107B  3488               	retlw	136
   643     107C  3420               	retlw	32
   644     107D  3400               	retlw	0
   645                           
   646                           	psect	idataBANK6
   647     10C1                     __pidataBANK6:
   648                           
   649                           ;initializer for _line_coding
   650     10C1  3400               	retlw	0
   651     10C2  34C2               	retlw	194
   652     10C3  3401               	retlw	1
   653     10C4  3400               	retlw	0
   654     10C5  3400               	retlw	0
   655     10C6  3400               	retlw	0
   656     10C7  3408               	retlw	8
   657                           
   658                           ;initializer for usb_send_debug_hex@hex
   659     10C8  3415               	retlw	low (STR_1| (0+32768))
   660     10C9  3499               	retlw	high (STR_1| (0+32768))
   661                           
   662                           ;initializer for _usb_application_config_descs
   663     10CA  3400               	retlw	low (_configuration_1| (0+32768))
   664     10CB  3498               	retlw	high (_configuration_1| (0+32768))
   665                           
   666                           	psect	idataBANK7
   667     12E1                     __pidataBANK7:
   668                           
   669                           ;initializer for _ep_buf
   670     12E1  3400               	retlw	0
   671     12E2  3400               	retlw	0
   672     12E3  3400               	retlw	0
   673     12E4  3400               	retlw	0
   674     12E5  3400               	retlw	0
   675     12E6  3400               	retlw	0
   676     12E7  3400               	retlw	0
   677     12E8  3490               	retlw	144
   678     12E9  3420               	retlw	32
   679     12EA  3491               	retlw	145
   680     12EB  3420               	retlw	32
   681     12EC  3401               	retlw	1
   682     12ED  340A               	retlw	10
   683     12EE  3400               	retlw	0
   684     12EF  349B               	retlw	155
   685     12F0  3420               	retlw	32
   686     12F1  34DB               	retlw	219
   687     12F2  3420               	retlw	32
   688     12F3  3440               	retlw	64
   689     12F4  3440               	retlw	64
   690     12F5  3400               	retlw	0
   691     12F6  341B               	retlw	27
   692     12F7  3421               	retlw	33
   693     12F8  341C               	retlw	28
   694     12F9  3421               	retlw	33
   695     12FA  3401               	retlw	1
   696     12FB  340A               	retlw	10
   697     12FC  3400               	retlw	0
   698     12FD  3426               	retlw	38
   699     12FE  3421               	retlw	33
   700     12FF  3466               	retlw	102
   701     1300  3421               	retlw	33
   702     1301  3440               	retlw	64
   703     1302  3440               	retlw	64
   704     1303  3400               	retlw	0
   705                           
   706                           	psect	stringtext1
   707     1800                     __pstringtext1:
   708     1800                     _configuration_1:
   709     1800  3409               	retlw	9
   710     1801  3402               	retlw	2
   711     1802  3483               	retlw	131
   712     1803  3400               	retlw	0
   713     1804  3404               	retlw	4
   714     1805  3401               	retlw	1
   715     1806  3402               	retlw	2
   716     1807  3480               	retlw	128
   717     1808  3432               	retlw	50
   718     1809  3408               	retlw	8
   719     180A  340B               	retlw	11
   720     180B  3400               	retlw	0
   721     180C  3402               	retlw	2
   722     180D  3402               	retlw	2
   723     180E  3402               	retlw	2
   724     180F  3400               	retlw	0
   725     1810  3406               	retlw	6
   726     1811  3409               	retlw	9
   727     1812  3404               	retlw	4
   728     1813  3400               	retlw	0
   729     1814  3400               	retlw	0
   730     1815  3401               	retlw	1
   731     1816  3402               	retlw	2
   732     1817  3402               	retlw	2
   733     1818  3400               	retlw	0
   734     1819  3403               	retlw	3
   735     181A  3405               	retlw	5
   736     181B  3424               	retlw	36
   737     181C  3400               	retlw	0
   738     181D  3410               	retlw	16
   739     181E  3401               	retlw	1
   740     181F  3404               	retlw	4
   741     1820  3424               	retlw	36
   742     1821  3402               	retlw	2
   743     1822  3406               	retlw	6
   744     1823  3405               	retlw	5
   745     1824  3424               	retlw	36
   746     1825  3406               	retlw	6
   747     1826  3400               	retlw	0
   748     1827  3401               	retlw	1
   749     1828  3407               	retlw	7
   750     1829  3405               	retlw	5
   751     182A  3481               	retlw	129
   752     182B  3403               	retlw	3
   753     182C  340A               	retlw	10
   754     182D  3400               	retlw	0
   755     182E  3401               	retlw	1
   756     182F  3409               	retlw	9
   757     1830  3404               	retlw	4
   758     1831  3401               	retlw	1
   759     1832  3400               	retlw	0
   760     1833  3402               	retlw	2
   761     1834  340A               	retlw	10
   762     1835  3400               	retlw	0
   763     1836  3400               	retlw	0
   764     1837  3404               	retlw	4
   765     1838  3407               	retlw	7
   766     1839  3405               	retlw	5
   767     183A  3482               	retlw	130
   768     183B  3402               	retlw	2
   769     183C  3440               	retlw	64
   770     183D  3400               	retlw	0
   771     183E  3401               	retlw	1
   772     183F  3407               	retlw	7
   773     1840  3405               	retlw	5
   774     1841  3402               	retlw	2
   775     1842  3402               	retlw	2
   776     1843  3440               	retlw	64
   777     1844  3400               	retlw	0
   778     1845  3401               	retlw	1
   779     1846  3408               	retlw	8
   780     1847  340B               	retlw	11
   781     1848  3402               	retlw	2
   782     1849  3402               	retlw	2
   783     184A  3402               	retlw	2
   784     184B  3402               	retlw	2
   785     184C  3400               	retlw	0
   786     184D  3407               	retlw	7
   787     184E  3409               	retlw	9
   788     184F  3404               	retlw	4
   789     1850  3402               	retlw	2
   790     1851  3400               	retlw	0
   791     1852  3401               	retlw	1
   792     1853  3402               	retlw	2
   793     1854  3402               	retlw	2
   794     1855  3400               	retlw	0
   795     1856  3403               	retlw	3
   796     1857  3405               	retlw	5
   797     1858  3424               	retlw	36
   798     1859  3400               	retlw	0
   799     185A  3410               	retlw	16
   800     185B  3401               	retlw	1
   801     185C  3404               	retlw	4
   802     185D  3424               	retlw	36
   803     185E  3402               	retlw	2
   804     185F  3406               	retlw	6
   805     1860  3405               	retlw	5
   806     1861  3424               	retlw	36
   807     1862  3406               	retlw	6
   808     1863  3400               	retlw	0
   809     1864  3401               	retlw	1
   810     1865  3407               	retlw	7
   811     1866  3405               	retlw	5
   812     1867  3483               	retlw	131
   813     1868  3403               	retlw	3
   814     1869  340A               	retlw	10
   815     186A  3400               	retlw	0
   816     186B  3401               	retlw	1
   817     186C  3409               	retlw	9
   818     186D  3404               	retlw	4
   819     186E  3403               	retlw	3
   820     186F  3400               	retlw	0
   821     1870  3402               	retlw	2
   822     1871  340A               	retlw	10
   823     1872  3400               	retlw	0
   824     1873  3400               	retlw	0
   825     1874  3404               	retlw	4
   826     1875  3407               	retlw	7
   827     1876  3405               	retlw	5
   828     1877  3484               	retlw	132
   829     1878  3402               	retlw	2
   830     1879  3440               	retlw	64
   831     187A  3400               	retlw	0
   832     187B  3401               	retlw	1
   833     187C  3407               	retlw	7
   834     187D  3405               	retlw	5
   835     187E  3404               	retlw	4
   836     187F  3402               	retlw	2
   837     1880  3440               	retlw	64
   838     1881  3400               	retlw	0
   839     1882  3401               	retlw	1
   840     1883                     __end_of_configuration_1:
   841                           
   842                           	psect	stringtext2
   843     1883                     __pstringtext2:
   844     1883                     _cdc_data_string:
   845     1883  3426               	retlw	38
   846     1884  3403               	retlw	3
   847     1885  3443               	retlw	67
   848     1886  3400               	retlw	0
   849     1887  3444               	retlw	68
   850     1888  3400               	retlw	0
   851     1889  3443               	retlw	67
   852     188A  3400               	retlw	0
   853     188B  3420               	retlw	32
   854     188C  3400               	retlw	0
   855     188D  3444               	retlw	68
   856     188E  3400               	retlw	0
   857     188F  3461               	retlw	97
   858     1890  3400               	retlw	0
   859     1891  3474               	retlw	116
   860     1892  3400               	retlw	0
   861     1893  3461               	retlw	97
   862     1894  3400               	retlw	0
   863     1895  3420               	retlw	32
   864     1896  3400               	retlw	0
   865     1897  3449               	retlw	73
   866     1898  3400               	retlw	0
   867     1899  346E               	retlw	110
   868     189A  3400               	retlw	0
   869     189B  3474               	retlw	116
   870     189C  3400               	retlw	0
   871     189D  3465               	retlw	101
   872     189E  3400               	retlw	0
   873     189F  3472               	retlw	114
   874     18A0  3400               	retlw	0
   875     18A1  3466               	retlw	102
   876     18A2  3400               	retlw	0
   877     18A3  3461               	retlw	97
   878     18A4  3400               	retlw	0
   879     18A5  3463               	retlw	99
   880     18A6  3400               	retlw	0
   881     18A7  3465               	retlw	101
   882     18A8  3400               	retlw	0
   883     18A9                     __end_of_cdc_data_string:
   884                           
   885                           	psect	stringtext3
   886     18A9                     __pstringtext3:
   887     18A9                     _func_prog_string:
   888     18A9  3426               	retlw	38
   889     18AA  3403               	retlw	3
   890     18AB  3450               	retlw	80
   891     18AC  3400               	retlw	0
   892     18AD  3449               	retlw	73
   893     18AE  3400               	retlw	0
   894     18AF  3443               	retlw	67
   895     18B0  3400               	retlw	0
   896     18B1  3420               	retlw	32
   897     18B2  3400               	retlw	0
   898     18B3  3470               	retlw	112
   899     18B4  3400               	retlw	0
   900     18B5  3472               	retlw	114
   901     18B6  3400               	retlw	0
   902     18B7  346F               	retlw	111
   903     18B8  3400               	retlw	0
   904     18B9  3467               	retlw	103
   905     18BA  3400               	retlw	0
   906     18BB  3472               	retlw	114
   907     18BC  3400               	retlw	0
   908     18BD  3461               	retlw	97
   909     18BE  3400               	retlw	0
   910     18BF  346D               	retlw	109
   911     18C0  3400               	retlw	0
   912     18C1  346D               	retlw	109
   913     18C2  3400               	retlw	0
   914     18C3  3465               	retlw	101
   915     18C4  3400               	retlw	0
   916     18C5  3472               	retlw	114
   917     18C6  3400               	retlw	0
   918     18C7                     __end_of_func_prog_string:
   919                           
   920                           	psect	stringtext4
   921     18C7                     __pstringtext4:
   922     18C7                     _cdc_interface_string:
   923     18C7  341C               	retlw	28
   924     18C8  3403               	retlw	3
   925     18C9  3443               	retlw	67
   926     18CA  3400               	retlw	0
   927     18CB  3444               	retlw	68
   928     18CC  3400               	retlw	0
   929     18CD  3443               	retlw	67
   930     18CE  3400               	retlw	0
   931     18CF  3420               	retlw	32
   932     18D0  3400               	retlw	0
   933     18D1  3449               	retlw	73
   934     18D2  3400               	retlw	0
   935     18D3  346E               	retlw	110
   936     18D4  3400               	retlw	0
   937     18D5  3474               	retlw	116
   938     18D6  3400               	retlw	0
   939     18D7  3465               	retlw	101
   940     18D8  3400               	retlw	0
   941     18D9  3472               	retlw	114
   942     18DA  3400               	retlw	0
   943     18DB  3466               	retlw	102
   944     18DC  3400               	retlw	0
   945     18DD  3461               	retlw	97
   946     18DE  3400               	retlw	0
   947     18DF  3463               	retlw	99
   948     18E0  3400               	retlw	0
   949     18E1  3465               	retlw	101
   950     18E2  3400               	retlw	0
   951     18E3                     __end_of_cdc_interface_string:
   952                           
   953                           	psect	stringtext5
   954     18E3                     __pstringtext5:
   955     18E3                     _product_string:
   956     18E3  3418               	retlw	24
   957     18E4  3403               	retlw	3
   958     18E5  3453               	retlw	83
   959     18E6  3400               	retlw	0
   960     18E7  3475               	retlw	117
   961     18E8  3400               	retlw	0
   962     18E9  3470               	retlw	112
   963     18EA  3400               	retlw	0
   964     18EB  3465               	retlw	101
   965     18EC  3400               	retlw	0
   966     18ED  3472               	retlw	114
   967     18EE  3400               	retlw	0
   968     18EF  3445               	retlw	69
   969     18F0  3400               	retlw	0
   970     18F1  344D               	retlw	77
   971     18F2  3400               	retlw	0
   972     18F3  3455               	retlw	85
   973     18F4  3400               	retlw	0
   974     18F5  345A               	retlw	90
   975     18F6  3400               	retlw	0
   976     18F7  3438               	retlw	56
   977     18F8  3400               	retlw	0
   978     18F9  3430               	retlw	48
   979     18FA  3400               	retlw	0
   980     18FB                     __end_of_product_string:
   981                           
   982                           	psect	stringtext6
   983     18FB                     __pstringtext6:
   984     18FB                     _serial_num_string:
   985     18FB  3416               	retlw	22
   986     18FC  3403               	retlw	3
   987     18FD  3430               	retlw	48
   988     18FE  3400               	retlw	0
   989     18FF  3430               	retlw	48
   990     1900  3400               	retlw	0
   991     1901  3430               	retlw	48
   992     1902  3400               	retlw	0
   993     1903  3430               	retlw	48
   994     1904  3400               	retlw	0
   995     1905  3430               	retlw	48
   996     1906  3400               	retlw	0
   997     1907  3430               	retlw	48
   998     1908  3400               	retlw	0
   999     1909  3430               	retlw	48
  1000     190A  3400               	retlw	0
  1001     190B  3430               	retlw	48
  1002     190C  3400               	retlw	0
  1003     190D  3430               	retlw	48
  1004     190E  3400               	retlw	0
  1005     190F  3430               	retlw	48
  1006     1910  3400               	retlw	0
  1007     1911                     __end_of_serial_num_string:
  1008                           
  1009                           	psect	stringtext7
  1010     1926                     __pstringtext7:
  1011     1926                     _vendor_string:
  1012     1926  3414               	retlw	20
  1013     1927  3403               	retlw	3
  1014     1928  3440               	retlw	64
  1015     1929  3400               	retlw	0
  1016     192A  3468               	retlw	104
  1017     192B  3400               	retlw	0
  1018     192C  3461               	retlw	97
  1019     192D  3400               	retlw	0
  1020     192E  346E               	retlw	110
  1021     192F  3400               	retlw	0
  1022     1930  3479               	retlw	121
  1023     1931  3400               	retlw	0
  1024     1932  3461               	retlw	97
  1025     1933  3400               	retlw	0
  1026     1934  347A               	retlw	122
  1027     1935  3400               	retlw	0
  1028     1936  346F               	retlw	111
  1029     1937  3400               	retlw	0
  1030     1938  3475               	retlw	117
  1031     1939  3400               	retlw	0
  1032     193A                     __end_of_vendor_string:
  1033                           
  1034                           	psect	stringtext8
  1035     193A                     __pstringtext8:
  1036     193A                     _this_device_descriptor:
  1037     193A  3412               	retlw	18
  1038     193B  3401               	retlw	1
  1039     193C  3400               	retlw	0
  1040     193D  3402               	retlw	2
  1041     193E  34EF               	retlw	239
  1042     193F  3402               	retlw	2
  1043     1940  3401               	retlw	1
  1044     1941  3408               	retlw	8
  1045     1942  3409               	retlw	9
  1046     1943  3412               	retlw	18
  1047     1944  3401               	retlw	1
  1048     1945  3488               	retlw	136
  1049     1946  3401               	retlw	1
  1050     1947  3400               	retlw	0
  1051     1948  3401               	retlw	1
  1052     1949  3402               	retlw	2
  1053     194A  3405               	retlw	5
  1054     194B  3401               	retlw	1
  1055     194C                     __end_of_this_device_descriptor:
  1056                           
  1057                           	psect	stringtext9
  1058     194C                     __pstringtext9:
  1059     194C                     _func_serial_string:
  1060     194C  3426               	retlw	38
  1061     194D  3403               	retlw	3
  1062     194E  3453               	retlw	83
  1063     194F  3400               	retlw	0
  1064     1950  3465               	retlw	101
  1065     1951  3400               	retlw	0
  1066     1952  3472               	retlw	114
  1067     1953  3400               	retlw	0
  1068     1954  3469               	retlw	105
  1069     1955  3400               	retlw	0
  1070     1956  3461               	retlw	97
  1071     1957  3400               	retlw	0
  1072     1958  346C               	retlw	108
  1073     1959  3400               	retlw	0
  1074     195A                     __end_of_func_serial_string:
  1075                           
  1076                           	psect	stringtext10
  1077     1911                     __pstringtext10:
  1078     1911                     _str00:
  1079     1911  3404               	retlw	4
  1080     1912  3403               	retlw	3
  1081     1913  3409               	retlw	9
  1082     1914  3404               	retlw	4
  1083     1915                     __end_of_str00:
  1084     2080                     _ep_buffers	set	8320
  1085     000C                     _PORTAbits	set	12
  1086     000B                     _INTCONbits	set	11
  1087     0011                     _PIR1bits	set	17
  1088     0012                     _PIR2bits	set	18
  1089     005F                     _GIE	set	95
  1090     005E                     _PEIE	set	94
  1091     0088                     _TMR1IF	set	136
  1092     00C0                     _TMR1ON	set	192
  1093     00C4                     _T1CKPS0	set	196
  1094     00C5                     _T1CKPS1	set	197
  1095     00C6                     _TMR1CS0	set	198
  1096     00C7                     _TMR1CS1	set	199
  1097     0099                     _OSCCONbits	set	153
  1098     0092                     _PIE2bits	set	146
  1099     0473                     _TRISC3	set	1139
  1100     0464                     _TRISA4	set	1124
  1101     0465                     _TRISA5	set	1125
  1102     0472                     _TRISC2	set	1138
  1103     0488                     _TMR1IE	set	1160
  1104     0474                     _TRISC4	set	1140
  1105     0475                     _TRISC5	set	1141
  1106     0865                     _LATA5	set	2149
  1107     0864                     _LATA4	set	2148
  1108     0873                     _LATC3	set	2163
  1109     0872                     _LATC2	set	2162
  1110     019B                     _SPBRG	set	411
  1111     019A                     _TXREG	set	410
  1112     0199                     _RCREG	set	409
  1113     019D                     _RCSTAbits	set	413
  1114     018E                     _ANSELC	set	398
  1115     018C                     _ANSELA	set	396
  1116     019F                     _BAUDCON	set	415
  1117     019C                     _SPBRGH	set	412
  1118     019D                     _RCSTA	set	413
  1119     019E                     _TXSTA	set	414
  1120     0CF3                     _SENDB	set	3315
  1121     039B                     _ACTCONbits	set	923
  1122     0E8F                     _USTATbits	set	3727
  1123     0E96                     _UADDR	set	3734
  1124     0E92                     _UIEbits	set	3730
  1125     0E90                     _UIR	set	3728
  1126     0E90                     _UIRbits	set	3728
  1127     0E97                     _UEIE	set	3735
  1128     0E92                     _UIE	set	3730
  1129     0E91                     _UCFGbits	set	3729
  1130     0E8E                     _UCONbits	set	3726
  1131     0E98                     _UEP0	set	3736
  1132     1915                     STR_1:
  1133     1915  3430               	retlw	48	;'0'
  1134     1916  3431               	retlw	49	;'1'
  1135     1917  3432               	retlw	50	;'2'
  1136     1918  3433               	retlw	51	;'3'
  1137     1919  3434               	retlw	52	;'4'
  1138     191A  3435               	retlw	53	;'5'
  1139     191B  3436               	retlw	54	;'6'
  1140     191C  3437               	retlw	55	;'7'
  1141     191D  3438               	retlw	56	;'8'
  1142     191E  3439               	retlw	57	;'9'
  1143     191F  3441               	retlw	65	;'A'
  1144     1920  3442               	retlw	66	;'B'
  1145     1921  3443               	retlw	67	;'C'
  1146     1922  3444               	retlw	68	;'D'
  1147     1923  3445               	retlw	69	;'E'
  1148     1924  3446               	retlw	70	;'F'
  1149     1925  3400               	retlw	0
  1150                           
  1151                           	psect	stringtext11
  1152     0000                     __pstringtext11:
  1153                           
  1154                           	psect	cinit
  1155     001C                     start_initialization:	
  1156                           ; #config settings
  1157                           
  1158     001C                     __initialization:	;BIGRAM
  1159                           
  1160                           ; Initialize objects allocated to BANK1
  1161     001C  3079               	movlw	low __pidataBANK1
  1162     001D  0084               	movwf	4
  1163     001E  3090               	movlw	(high __pidataBANK1)| (0+128)
  1164     001F  0085               	movwf	5
  1165     0020  30CB               	movlw	low __pdataBANK1
  1166     0021  0086               	movwf	6
  1167     0022  3000               	movlw	high __pdataBANK1
  1168     0023  0087               	movwf	7
  1169     0024  3000               	movlw	0
  1170     0025  00FF               	movwf	btemp+1
  1171     0026  3005               	movlw	5
  1172     0027  3190  20E4  3180   	fcall	init_ram
  1173                           
  1174                           ; Initialize objects allocated to BANK6
  1175     002A  30C1               	movlw	low __pidataBANK6
  1176     002B  0084               	movwf	4
  1177     002C  3090               	movlw	(high __pidataBANK6)| (0+128)
  1178     002D  0085               	movwf	5
  1179     002E  3060               	movlw	low __pdataBANK6
  1180     002F  0086               	movwf	6
  1181     0030  3003               	movlw	high __pdataBANK6
  1182     0031  0087               	movwf	7
  1183     0032  3000               	movlw	0
  1184     0033  00FF               	movwf	btemp+1
  1185     0034  300B               	movlw	11
  1186     0035  3190  20E4  3180   	fcall	init_ram
  1187                           
  1188                           ; Initialize objects allocated to BANK7
  1189     0038  30E1               	movlw	low __pidataBANK7
  1190     0039  0084               	movwf	4
  1191     003A  3092               	movlw	(high __pidataBANK7)| (0+128)
  1192     003B  0085               	movwf	5
  1193     003C  30A0               	movlw	low __pdataBANK7
  1194     003D  0086               	movwf	6
  1195     003E  3003               	movlw	high __pdataBANK7
  1196     003F  0087               	movwf	7
  1197     0040  3000               	movlw	0
  1198     0041  00FF               	movwf	btemp+1
  1199     0042  3023               	movlw	35
  1200     0043  3190  20E4  3180   	fcall	init_ram
  1201                           
  1202                           ; Clear objects allocated to BIGRAM
  1203     0046  30D8               	movlw	low (0+8920)
  1204     0047  0084               	movwf	4
  1205     0048  3022               	movlw	high (0+8920)
  1206     0049  0085               	movwf	5
  1207     004A  3018               	movlw	24
  1208     004B  00FE               	movwf	btemp
  1209     004C  3001               	movlw	1
  1210     004D  00FF               	movwf	btemp+1
  1211     004E  3190  20D8  3180   	fcall	clear_ram0
  1212                           
  1213                           ; Clear objects allocated to BANK0
  1214     0051  01ED               	clrf	__pbssBANK0& (0+127)
  1215     0052  01EE               	clrf	(__pbssBANK0+1)& (0+127)
  1216     0053  01EF               	clrf	(__pbssBANK0+2)& (0+127)
  1217                           
  1218                           ; Clear objects allocated to BANK1
  1219     0054  0021               	movlb	1	; select bank1
  1220     0055  01C2               	clrf	__pbssBANK1& (0+127)
  1221     0056  01C3               	clrf	(__pbssBANK1+1)& (0+127)
  1222     0057  01C4               	clrf	(__pbssBANK1+2)& (0+127)
  1223     0058  01C5               	clrf	(__pbssBANK1+3)& (0+127)
  1224     0059  01C6               	clrf	(__pbssBANK1+4)& (0+127)
  1225     005A  01C7               	clrf	(__pbssBANK1+5)& (0+127)
  1226     005B  01C8               	clrf	(__pbssBANK1+6)& (0+127)
  1227     005C  01C9               	clrf	(__pbssBANK1+7)& (0+127)
  1228     005D  01CA               	clrf	(__pbssBANK1+8)& (0+127)
  1229                           
  1230                           ; Clear objects allocated to BANK6
  1231     005E  3020               	movlw	low __pbssBANK6
  1232     005F  0084               	movwf	4
  1233     0060  3003               	movlw	high __pbssBANK6
  1234     0061  0085               	movwf	5
  1235     0062  3026               	movlw	38
  1236     0063  00FE               	movwf	btemp
  1237     0064  3000               	movlw	0
  1238     0065  00FF               	movwf	btemp+1
  1239     0066  3190  20D8  3180   	fcall	clear_ram0
  1240                           
  1241                           ; Clear objects allocated to BANK7
  1242     0069  30C3               	movlw	low __pbssBANK7
  1243     006A  0084               	movwf	4
  1244     006B  3003               	movlw	high __pbssBANK7
  1245     006C  0085               	movwf	5
  1246     006D  3020               	movlw	32
  1247     006E  00FE               	movwf	btemp
  1248     006F  3000               	movlw	0
  1249     0070  00FF               	movwf	btemp+1
  1250     0071  3190  20D8  3180   	fcall	clear_ram0
  1251                           
  1252                           ; Clear objects allocated to BANK8
  1253     0074  3020               	movlw	low __pbssBANK8
  1254     0075  0084               	movwf	4
  1255     0076  3004               	movlw	high __pbssBANK8
  1256     0077  0085               	movwf	5
  1257     0078  3020               	movlw	32
  1258     0079  00FE               	movwf	btemp
  1259     007A  3000               	movlw	0
  1260     007B  00FF               	movwf	btemp+1
  1261     007C  3190  20D8         	fcall	clear_ram0
  1262     007E                     end_of_initialization:	
  1263                           ;End of C runtime variable initialization code
  1264                           
  1265     007E                     __end_of__initialization:
  1266     007E  107E               	bcf	int$flags,0	;clear compiler interrupt flag (level 1)
  1267     007F  0020               	movlb	0
  1268     0080  318A  2A49         	ljmp	_main	;jump to C main() function
  1269                           
  1270                           	psect	bssBANK0
  1271     006D                     __pbssBANK0:
  1272     006D                     _ep0_data_stage_callback:
  1273     006D                     	ds	2
  1274     006F                     _pp_res_buf_len:
  1275     006F                     	ds	1
  1276                           
  1277                           	psect	bssBANK1
  1278     00C2                     __pbssBANK1:
  1279     00C2                     _ep0_data_stage_context:
  1280     00C2                     	ds	2
  1281     00C4                     _ep0_data_stage_buf_remaining:
  1282     00C4                     	ds	2
  1283     00C6                     _transfer_interface:
  1284     00C6                     	ds	1
  1285     00C7                     _ep0_data_stage_direc:
  1286     00C7                     	ds	1
  1287     00C8                     _ep0_data_stage_out_buffer:
  1288     00C8                     	ds	1
  1289     00C9                     _returning_short:
  1290     00C9                     	ds	1
  1291     00CA                     _g_configuration:
  1292     00CA                     	ds	1
  1293                           
  1294                           	psect	dataBANK1
  1295     00CB                     __pdataBANK1:
  1296     00CB                     _ep0_buf:
  1297     00CB                     	ds	5
  1298                           
  1299                           	psect	bssBANK6
  1300     0320                     __pbssBANK6:
  1301     0320                     pp_process@buf_len:
  1302     0320                     	ds	2
  1303     0322                     pp_process@state:
  1304     0322                     	ds	2
  1305     0324                     _sendback:
  1306     0324                     	ds	2
  1307     0326                     _ep0_data_stage_in_buffer:
  1308     0326                     	ds	2
  1309     0328                     pp_process@bytes_to_receive:
  1310     0328                     	ds	1
  1311     0329                     _turn_on_led:
  1312     0329                     	ds	1
  1313     032A                     _uart_tx_buf_head:
  1314     032A                     	ds	1
  1315     032B                     _uart_tx_buf_len:
  1316     032B                     	ds	1
  1317     032C                     _uart_rx_flush_timer:
  1318     032C                     	ds	1
  1319     032D                     _uart_rx_buf_len:
  1320     032D                     	ds	1
  1321     032E                     _set_or_clear_request:
  1322     032E                     	ds	1
  1323     032F                     _control_need_zlp:
  1324     032F                     	ds	1
  1325     0330                     _addr:
  1326     0330                     	ds	1
  1327     0331                     _addr_pending:
  1328     0331                     	ds	1
  1329     0332                     _pp_params:
  1330     0332                     	ds	11
  1331     033D                     _transfer_data:
  1332     033D                     	ds	7
  1333     0344                     _uart_tx_buf:
  1334     0344                     	ds	2
  1335                           
  1336                           	psect	dataBANK6
  1337     0360                     __pdataBANK6:
  1338     0360                     _line_coding:
  1339     0360                     	ds	7
  1340     0367                     usb_send_debug_hex@hex:
  1341     0367                     	ds	2
  1342     0369                     _usb_application_config_descs:
  1343     0369                     	ds	2
  1344                           
  1345                           	psect	bssBANK7
  1346     03C3                     __pbssBANK7:
  1347     03C3                     _uart_rx_buf:
  1348     03C3                     	ds	32
  1349                           
  1350                           	psect	dataBANK7
  1351     03A0                     __pdataBANK7:
  1352     03A0                     _ep_buf:
  1353     03A0                     	ds	35
  1354                           
  1355                           	psect	bssBANK8
  1356     0420                     __pbssBANK8:
  1357     0420                     _pp_res_buf:
  1358     0420                     	ds	32
  1359                           
  1360                           	psect	inittext
  1361     10E4                     init_ram:
  1362     10E4  00FE               	movwf	126
  1363     10E5                     initloop:
  1364     10E5  0012               	moviw fsr0++
  1365     10E6  001E               	movwi fsr1++
  1366     10E7  3001               	movlw	1
  1367     10E8  02FE               	subwf	126,f
  1368     10E9  3000               	movlw	0
  1369     10EA  3BFF               	subwfb	127,f
  1370     10EB  087F               	movf	127,w
  1371     10EC  047E               	iorwf	126,w
  1372     10ED  1903               	btfsc	3,2
  1373     10EE  3400               	retlw	0
  1374     10EF  28E5               	goto	initloop
  1375                           
  1376                           	psect	clrtext
  1377     10D8                     clear_ram0:	
  1378                           ;	Called with FSR0 containing the base address, and
  1379                           ;	btemp/btemp+1 has the size to clear
  1380                           
  1381     10D8  0064               	clrwdt	;clear the watchdog before getting into this loop
  1382     10D9                     clrloop0:
  1383     10D9  0180               	clrf	0	;clear RAM location pointed to by FSR
  1384     10DA  3101               	addfsr 0,1
  1385     10DB  3001               	movlw	1
  1386     10DC  02FE               	subwf	126,f
  1387     10DD  3000               	movlw	0
  1388     10DE  3BFF               	subwfb	127,f
  1389     10DF  087F               	movf	127,w
  1390     10E0  047E               	iorwf	126,w
  1391     10E1  1903               	btfsc	3,2
  1392     10E2  3400               	retlw	0	;all done for this memory range, return
  1393     10E3  28D9               	goto	clrloop0	;have we reached the end yet?
  1394                           
  1395                           	psect	cstackBANK6
  1396     0346                     __pcstackBANK6:
  1397     0346                     exec_ops@txbuf:
  1398                           
  1399                           ; 4 bytes @ 0x0
  1400     0346                     	ds	4
  1401     034A                     exec_ops@endp:
  1402                           
  1403                           ; 2 bytes @ 0x4
  1404     034A                     	ds	2
  1405     034C                     exec_ops@n10:
  1406                           
  1407                           ; 2 bytes @ 0x6
  1408     034C                     	ds	2
  1409     034E                     exec_ops@count:
  1410                           
  1411                           ; 1 bytes @ 0x8
  1412     034E                     	ds	1
  1413     034F                     exec_ops@count_1781:
  1414                           
  1415                           ; 1 bytes @ 0x9
  1416     034F                     	ds	1
  1417     0350                     exec_ops@count_1783:
  1418                           
  1419                           ; 1 bytes @ 0xA
  1420     0350                     	ds	1
  1421     0351                     exec_ops@count_1784:
  1422                           
  1423                           ; 1 bytes @ 0xB
  1424     0351                     	ds	1
  1425     0352                     exec_ops@count_1785:
  1426                           
  1427                           ; 1 bytes @ 0xC
  1428     0352                     	ds	1
  1429     0353                     exec_ops@count_1786:
  1430                           
  1431                           ; 1 bytes @ 0xD
  1432     0353                     	ds	1
  1433     0354                     exec_ops@count_1787:
  1434                           
  1435                           ; 1 bytes @ 0xE
  1436     0354                     	ds	1
  1437     0355                     exec_ops@count_1788:
  1438                           
  1439                           ; 1 bytes @ 0xF
  1440     0355                     	ds	1
  1441     0356                     exec_ops@count_1789:
  1442                           
  1443                           ; 1 bytes @ 0x10
  1444     0356                     	ds	1
  1445     0357                     exec_ops@count_1790:
  1446                           
  1447                           ; 1 bytes @ 0x11
  1448     0357                     	ds	1
  1449     0358                     exec_ops@txbuf_len:
  1450                           
  1451                           ; 1 bytes @ 0x12
  1452     0358                     	ds	1
  1453     0359                     exec_ops@d:
  1454                           
  1455                           ; 1 bytes @ 0x13
  1456     0359                     	ds	1
  1457     035A                     exec_ops@n:
  1458                           
  1459                           ; 1 bytes @ 0x14
  1460     035A                     	ds	1
  1461     035B                     exec_ops@i:
  1462                           
  1463                           ; 1 bytes @ 0x15
  1464     035B                     	ds	1
  1465     035C                     ?_pp_process:
  1466     035C                     pp_process@data:	
  1467                           ; 1 bytes @ 0x16
  1468                           
  1469                           
  1470                           ; 2 bytes @ 0x16
  1471     035C                     	ds	2
  1472     035E                     pp_process@len:
  1473                           
  1474                           ; 2 bytes @ 0x18
  1475     035E                     	ds	2
  1476                           
  1477                           	psect	cstackBANK5
  1478     02B6                     __pcstackBANK5:
  1479     02B6                     ?_pp_init:
  1480     02B6                     ??_usb_in_endpoint_busy:	
  1481                           ; 1 bytes @ 0x0
  1482                           
  1483     02B6                     ??_usb_out_endpoint_has_data:	
  1484                           ; 1 bytes @ 0x0
  1485                           
  1486     02B6                     ?_send_bits:	
  1487                           ; 1 bytes @ 0x0
  1488                           
  1489     02B6                     ??_dummy_locks:	
  1490                           ; 1 bytes @ 0x0
  1491                           
  1492     02B6                     ?_memset:	
  1493                           ; 1 bytes @ 0x0
  1494                           
  1495     02B6                     ?_memcpy:	
  1496                           ; 2 bytes @ 0x0
  1497                           
  1498     02B6                     ?___wmul:	
  1499                           ; 2 bytes @ 0x0
  1500                           
  1501     02B6                     send_bits@len:	
  1502                           ; 2 bytes @ 0x0
  1503                           
  1504     02B6                     uart_init@brg_data:	
  1505                           ; 1 bytes @ 0x0
  1506                           
  1507     02B6                     pp_init@sendbackp:	
  1508                           ; 2 bytes @ 0x0
  1509                           
  1510     02B6                     ___wmul@multiplier:	
  1511                           ; 2 bytes @ 0x0
  1512                           
  1513     02B6                     memcpy@d1:	
  1514                           ; 2 bytes @ 0x0
  1515                           
  1516     02B6                     memset@dest:	
  1517                           ; 2 bytes @ 0x0
  1518                           
  1519                           
  1520                           ; 2 bytes @ 0x0
  1521     02B6                     	ds	1
  1522     02B7                     ??_send_bits:
  1523     02B7                     usb_in_endpoint_busy@endpoint:	
  1524                           ; 1 bytes @ 0x1
  1525                           
  1526     02B7                     usb_out_endpoint_has_data@endpoint:	
  1527                           ; 1 bytes @ 0x1
  1528                           
  1529     02B7                     dummy_locks@n:	
  1530                           ; 1 bytes @ 0x1
  1531                           
  1532                           
  1533                           ; 1 bytes @ 0x1
  1534     02B7                     	ds	1
  1535     02B8                     send_bits@d:
  1536     02B8                     dummy_locks@i:	
  1537                           ; 1 bytes @ 0x2
  1538                           
  1539     02B8                     ___wmul@multiplicand:	
  1540                           ; 1 bytes @ 0x2
  1541                           
  1542     02B8                     memcpy@s1:	
  1543                           ; 2 bytes @ 0x2
  1544                           
  1545     02B8                     memset@c:	
  1546                           ; 2 bytes @ 0x2
  1547                           
  1548                           
  1549                           ; 2 bytes @ 0x2
  1550     02B8                     	ds	1
  1551     02B9                     send_bits@i:
  1552                           
  1553                           ; 1 bytes @ 0x3
  1554     02B9                     	ds	1
  1555     02BA                     ___wmul@product:
  1556     02BA                     memcpy@n:	
  1557                           ; 2 bytes @ 0x4
  1558                           
  1559     02BA                     memset@n:	
  1560                           ; 2 bytes @ 0x4
  1561                           
  1562                           
  1563                           ; 2 bytes @ 0x4
  1564     02BA                     	ds	2
  1565     02BC                     ??_usb_in_endpoint_halted:
  1566     02BC                     ?_usb_get_out_buffer:	
  1567                           ; 1 bytes @ 0x6
  1568                           
  1569     02BC                     ??_usb_arm_out_endpoint:	
  1570                           ; 1 bytes @ 0x6
  1571                           
  1572     02BC                     ??_usb_out_endpoint_halted:	
  1573                           ; 1 bytes @ 0x6
  1574                           
  1575     02BC                     ?_usb_get_in_buffer:	
  1576                           ; 1 bytes @ 0x6
  1577                           
  1578     02BC                     ?_pic16_linear_addr:	
  1579                           ; 2 bytes @ 0x6
  1580                           
  1581     02BC                     memcpy@tmp:	
  1582                           ; 2 bytes @ 0x6
  1583                           
  1584     02BC                     pic16_linear_addr@ptr:	
  1585                           ; 1 bytes @ 0x6
  1586                           
  1587     02BC                     usb_get_out_buffer@buf:	
  1588                           ; 2 bytes @ 0x6
  1589                           
  1590     02BC                     memset@p:	
  1591                           ; 2 bytes @ 0x6
  1592                           
  1593                           
  1594                           ; 2 bytes @ 0x6
  1595     02BC                     	ds	1
  1596     02BD                     memcpy@d:
  1597                           
  1598                           ; 2 bytes @ 0x7
  1599     02BD                     	ds	1
  1600     02BE                     ??_usb_get_in_buffer:
  1601     02BE                     ??_pic16_linear_addr:	
  1602                           ; 1 bytes @ 0x8
  1603                           
  1604     02BE                     ??_usb_get_out_buffer:	
  1605                           ; 1 bytes @ 0x8
  1606                           
  1607                           
  1608                           ; 1 bytes @ 0x8
  1609     02BE                     	ds	1
  1610     02BF                     memcpy@s:
  1611                           
  1612                           ; 2 bytes @ 0x9
  1613     02BF                     	ds	1
  1614     02C0                     usb_in_endpoint_halted@endpoint:
  1615     02C0                     usb_out_endpoint_halted@endpoint:	
  1616                           ; 1 bytes @ 0xA
  1617                           
  1618                           
  1619                           ; 1 bytes @ 0xA
  1620     02C0                     	ds	1
  1621     02C1                     ?_usb_send_in_buffer:
  1622     02C1                     usb_arm_out_endpoint@pid:	
  1623                           ; 1 bytes @ 0xB
  1624                           
  1625     02C1                     usb_send_in_buffer@len:	
  1626                           ; 1 bytes @ 0xB
  1627                           
  1628                           
  1629                           ; 2 bytes @ 0xB
  1630     02C1                     	ds	1
  1631     02C2                     usb_get_in_buffer@endpoint:
  1632     02C2                     usb_get_out_buffer@endpoint:	
  1633                           ; 1 bytes @ 0xC
  1634                           
  1635     02C2                     usb_arm_out_endpoint@endpoint:	
  1636                           ; 1 bytes @ 0xC
  1637                           
  1638                           
  1639                           ; 1 bytes @ 0xC
  1640     02C2                     	ds	1
  1641     02C3                     ??_usb_send_in_buffer:
  1642                           
  1643                           ; 1 bytes @ 0xD
  1644     02C3                     	ds	5
  1645     02C8                     usb_send_in_buffer@pid:
  1646                           
  1647                           ; 1 bytes @ 0x12
  1648     02C8                     	ds	1
  1649     02C9                     usb_send_in_buffer@endpoint:
  1650                           
  1651                           ; 1 bytes @ 0x13
  1652     02C9                     	ds	1
  1653     02CA                     pic16_linear_addr@high:
  1654     02CA                     usb_send_in_buffer@bd:	
  1655                           ; 1 bytes @ 0x14
  1656                           
  1657                           
  1658                           ; 1 bytes @ 0x14
  1659     02CA                     	ds	1
  1660     02CB                     ?_usb_send_data:
  1661     02CB                     pic16_linear_addr@low:	
  1662                           ; 1 bytes @ 0x15
  1663                           
  1664     02CB                     usb_send_data@data:	
  1665                           ; 1 bytes @ 0x15
  1666                           
  1667                           
  1668                           ; 2 bytes @ 0x15
  1669     02CB                     	ds	1
  1670     02CC                     pic16_linear_addr@addr:
  1671                           
  1672                           ; 2 bytes @ 0x16
  1673     02CC                     	ds	1
  1674     02CD                     usb_send_data@len:
  1675                           
  1676                           ; 2 bytes @ 0x17
  1677     02CD                     	ds	1
  1678     02CE                     ??_init_endpoints:
  1679                           
  1680                           ; 1 bytes @ 0x18
  1681     02CE                     	ds	1
  1682     02CF                     usb_send_data@buf:
  1683                           
  1684                           ; 2 bytes @ 0x19
  1685     02CF                     	ds	2
  1686     02D1                     usb_send_data@ep:
  1687                           
  1688                           ; 1 bytes @ 0x1B
  1689     02D1                     	ds	1
  1690     02D2                     ?_pp_send_res_byte:
  1691     02D2                     ??_pp_flush_res_byte:	
  1692                           ; 1 bytes @ 0x1C
  1693                           
  1694     02D2                     pp_send_res_byte@data:	
  1695                           ; 1 bytes @ 0x1C
  1696                           
  1697                           
  1698                           ; 1 bytes @ 0x1C
  1699     02D2                     	ds	1
  1700     02D3                     ??_pp_send_res_byte:
  1701                           
  1702                           ; 1 bytes @ 0x1D
  1703     02D3                     	ds	1
  1704     02D4                     _init_endpoints$2319:
  1705                           
  1706                           ; 2 bytes @ 0x1E
  1707     02D4                     	ds	1
  1708     02D5                     ?_exec_ops:
  1709     02D5                     exec_ops@ops:	
  1710                           ; 1 bytes @ 0x1F
  1711                           
  1712                           
  1713                           ; 2 bytes @ 0x1F
  1714     02D5                     	ds	1
  1715     02D6                     init_endpoints@i:
  1716                           
  1717                           ; 1 bytes @ 0x20
  1718     02D6                     	ds	1
  1719     02D7                     ??_usb_init:
  1720     02D7                     exec_ops@len:	
  1721                           ; 1 bytes @ 0x21
  1722                           
  1723                           
  1724                           ; 2 bytes @ 0x21
  1725     02D7                     	ds	2
  1726     02D9                     ??_exec_ops:
  1727     02D9                     usb_init@i:	
  1728                           ; 1 bytes @ 0x23
  1729                           
  1730                           
  1731                           ; 1 bytes @ 0x23
  1732     02D9                     	ds	1
  1733     02DA                     usb_init@ep:
  1734                           
  1735                           ; 2 bytes @ 0x24
  1736     02DA                     	ds	1
  1737     02DB                     ??_pp_process:
  1738                           
  1739                           ; 1 bytes @ 0x25
  1740     02DB                     	ds	5
  1741     02E0                     ??_main:
  1742                           
  1743                           ; 1 bytes @ 0x2A
  1744     02E0                     	ds	2
  1745     02E2                     main@out_buf_len:
  1746                           
  1747                           ; 2 bytes @ 0x2C
  1748     02E2                     	ds	2
  1749     02E4                     main@c:
  1750                           
  1751                           ; 1 bytes @ 0x2E
  1752     02E4                     	ds	1
  1753     02E5                     main@out_buf:
  1754                           
  1755                           ; 2 bytes @ 0x2F
  1756     02E5                     	ds	2
  1757                           
  1758                           	psect	cstackBANK2
  1759     0000                     __pcstackBANK2:
  1760     0000                     ??_memset:
  1761     0000                     ??_memcpy:	
  1762                           ; 1 bytes @ 0x0
  1763                           
  1764     0000                     ??_hardware_init:	
  1765                           ; 1 bytes @ 0x0
  1766                           
  1767     0000                     ??_pp_init:	
  1768                           ; 1 bytes @ 0x0
  1769                           
  1770     0000                     ??_usb_send_data:	
  1771                           ; 1 bytes @ 0x0
  1772                           
  1773     0000                     ??_reset_ep0_data_stage:	
  1774                           ; 1 bytes @ 0x0
  1775                           
  1776     0000                     ??_usb_get_configuration:	
  1777                           ; 1 bytes @ 0x0
  1778                           
  1779     0000                     ??_uart_init:	
  1780                           ; 1 bytes @ 0x0
  1781                           
  1782     0000                     ??_timer_init:	
  1783                           ; 1 bytes @ 0x0
  1784                           
  1785     0000                     ??_led_init:	
  1786                           ; 1 bytes @ 0x0
  1787                           
  1788     0000                     ??___wmul:	
  1789                           ; 1 bytes @ 0x0
  1790                           
  1791                           
  1792                           	psect	cstackBANK1
  1793     00A0                     __pcstackBANK1:	
  1794                           ; 1 bytes @ 0x0
  1795                           
  1796     00A0                     _handle_standard_control_request$615:
  1797     00A0                     _process_cdc_setup_request$911:	
  1798                           ; 2 bytes @ 0x0
  1799                           
  1800                           
  1801                           ; 2 bytes @ 0x0
  1802     00A0                     	ds	2
  1803     00A2                     handle_standard_control_request@res_616:
  1804     00A2                     _process_cdc_setup_request$916:	
  1805                           ; 1 bytes @ 0x2
  1806                           
  1807                           
  1808                           ; 2 bytes @ 0x2
  1809     00A2                     	ds	1
  1810     00A3                     handle_standard_control_request@ret_614:
  1811                           
  1812                           ; 2 bytes @ 0x3
  1813     00A3                     	ds	1
  1814     00A4                     _process_cdc_setup_request$917:
  1815                           
  1816                           ; 2 bytes @ 0x4
  1817     00A4                     	ds	1
  1818     00A5                     handle_standard_control_request@res:
  1819                           
  1820                           ; 1 bytes @ 0x5
  1821     00A5                     	ds	1
  1822     00A6                     handle_standard_control_request@stall:
  1823     00A6                     _process_cdc_setup_request$923:	
  1824                           ; 1 bytes @ 0x6
  1825                           
  1826                           
  1827                           ; 2 bytes @ 0x6
  1828     00A6                     	ds	1
  1829     00A7                     handle_standard_control_request@ret:
  1830                           
  1831                           ; 2 bytes @ 0x7
  1832     00A7                     	ds	1
  1833     00A8                     process_cdc_setup_request@res:
  1834                           
  1835                           ; 1 bytes @ 0x8
  1836     00A8                     	ds	1
  1837     00A9                     process_cdc_setup_request@res_915:
  1838     00A9                     handle_standard_control_request@desc_605:	
  1839                           ; 1 bytes @ 0x9
  1840                           
  1841                           
  1842                           ; 2 bytes @ 0x9
  1843     00A9                     	ds	1
  1844     00AA                     process_cdc_setup_request@res_922:
  1845                           
  1846                           ; 1 bytes @ 0xA
  1847     00AA                     	ds	1
  1848     00AB                     process_cdc_setup_request@res_928:
  1849     00AB                     handle_standard_control_request@desc:	
  1850                           ; 1 bytes @ 0xB
  1851                           
  1852                           
  1853                           ; 2 bytes @ 0xB
  1854     00AB                     	ds	1
  1855     00AC                     process_cdc_setup_request@dtr:
  1856                           
  1857                           ; 1 bytes @ 0xC
  1858     00AC                     	ds	1
  1859     00AD                     process_cdc_setup_request@rts:
  1860     00AD                     handle_standard_control_request@len:	
  1861                           ; 1 bytes @ 0xD
  1862                           
  1863                           
  1864                           ; 2 bytes @ 0xD
  1865     00AD                     	ds	1
  1866     00AE                     process_cdc_setup_request@res_931:
  1867                           
  1868                           ; 1 bytes @ 0xE
  1869     00AE                     	ds	1
  1870     00AF                     handle_standard_control_request@len_604:
  1871     00AF                     process_cdc_setup_request@response:	
  1872                           ; 2 bytes @ 0xF
  1873                           
  1874                           
  1875                           ; 2 bytes @ 0xF
  1876     00AF                     	ds	2
  1877     00B1                     handle_standard_control_request@req:
  1878     00B1                     process_cdc_setup_request@callback:	
  1879                           ; 1 bytes @ 0x11
  1880                           
  1881                           
  1882                           ; 2 bytes @ 0x11
  1883     00B1                     	ds	1
  1884     00B2                     handle_standard_control_request@ep_num:
  1885                           
  1886                           ; 1 bytes @ 0x12
  1887     00B2                     	ds	1
  1888     00B3                     handle_standard_control_request@flags:
  1889     00B3                     process_cdc_setup_request@context:	
  1890                           ; 1 bytes @ 0x13
  1891                           
  1892                           
  1893                           ; 2 bytes @ 0x13
  1894     00B3                     	ds	1
  1895     00B4                     handle_standard_control_request@ep_dir:
  1896                           
  1897                           ; 1 bytes @ 0x14
  1898     00B4                     	ds	1
  1899     00B5                     handle_standard_control_request@ret_617:
  1900     00B5                     process_cdc_setup_request@idle_setting:	
  1901                           ; 1 bytes @ 0x15
  1902                           
  1903                           
  1904                           ; 1 bytes @ 0x15
  1905     00B5                     	ds	1
  1906     00B6                     handle_standard_control_request@descriptor:
  1907     00B6                     process_cdc_setup_request@data_multiplexed_state:	
  1908                           ; 1 bytes @ 0x16
  1909                           
  1910                           
  1911                           ; 1 bytes @ 0x16
  1912     00B6                     	ds	1
  1913     00B7                     handle_standard_control_request@descriptor_index:
  1914     00B7                     process_cdc_setup_request@len:	
  1915                           ; 1 bytes @ 0x17
  1916                           
  1917                           
  1918                           ; 2 bytes @ 0x17
  1919     00B7                     	ds	1
  1920     00B8                     handle_standard_control_request@desc_602:
  1921                           
  1922                           ; 2 bytes @ 0x18
  1923     00B8                     	ds	1
  1924     00B9                     process_cdc_setup_request@interface:
  1925                           
  1926                           ; 1 bytes @ 0x19
  1927     00B9                     	ds	1
  1928     00BA                     handle_standard_control_request@ep_num_619:
  1929                           
  1930                           ; 1 bytes @ 0x1A
  1931     00BA                     	ds	1
  1932     00BB                     handle_standard_control_request@setup:
  1933                           
  1934                           ; 2 bytes @ 0x1B
  1935     00BB                     	ds	2
  1936     00BD                     usb_service@ep:
  1937                           
  1938                           ; 2 bytes @ 0x1D
  1939     00BD                     	ds	2
  1940     00BF                     usb_service@i:
  1941                           
  1942                           ; 2 bytes @ 0x1F
  1943     00BF                     	ds	2
  1944     00C1                     usb_service@pid:
  1945                           
  1946                           ; 1 bytes @ 0x21
  1947     00C1                     	ds	1
  1948                           
  1949                           	psect	cstackCOMMON
  1950     0070                     __pcstackCOMMON:
  1951     0070                     ?_usb_in_endpoint_halted:
  1952     0070                     ?_app_set_configuration_callback:	
  1953                           ; 1 bytes @ 0x0
  1954                           
  1955     0070                     ??_app_set_configuration_callback:	
  1956                           ; 1 bytes @ 0x0
  1957                           
  1958     0070                     ?_app_set_interface_callback:	
  1959                           ; 1 bytes @ 0x0
  1960                           
  1961     0070                     ?_app_get_interface_callback:	
  1962                           ; 1 bytes @ 0x0
  1963                           
  1964     0070                     ??_app_get_interface_callback:	
  1965                           ; 1 bytes @ 0x0
  1966                           
  1967     0070                     ?_usb_halt_ep_in:	
  1968                           ; 1 bytes @ 0x0
  1969                           
  1970     0070                     ?_usb_halt_ep_out:	
  1971                           ; 1 bytes @ 0x0
  1972                           
  1973     0070                     ?_app_endpoint_halt_callback:	
  1974                           ; 1 bytes @ 0x0
  1975                           
  1976     0070                     ?_app_usb_reset_callback:	
  1977                           ; 1 bytes @ 0x0
  1978                           
  1979     0070                     ??_app_usb_reset_callback:	
  1980                           ; 1 bytes @ 0x0
  1981                           
  1982     0070                     ?_app_in_transaction_complete_callback:	
  1983                           ; 1 bytes @ 0x0
  1984                           
  1985     0070                     ??_app_in_transaction_complete_callback:	
  1986                           ; 1 bytes @ 0x0
  1987                           
  1988     0070                     ?_app_out_transaction_callback:	
  1989                           ; 1 bytes @ 0x0
  1990                           
  1991     0070                     ??_app_out_transaction_callback:	
  1992                           ; 1 bytes @ 0x0
  1993                           
  1994     0070                     ?_app_start_of_frame_callback:	
  1995                           ; 1 bytes @ 0x0
  1996                           
  1997     0070                     ??_app_start_of_frame_callback:	
  1998                           ; 1 bytes @ 0x0
  1999                           
  2000     0070                     ?_app_set_comm_feature_callback:	
  2001                           ; 1 bytes @ 0x0
  2002                           
  2003     0070                     ?_app_clear_comm_feature_callback:	
  2004                           ; 1 bytes @ 0x0
  2005                           
  2006     0070                     ?_app_set_line_coding_callback:	
  2007                           ; 1 bytes @ 0x0
  2008                           
  2009     0070                     ?_app_send_encapsulated_command:	
  2010                           ; 1 bytes @ 0x0
  2011                           
  2012     0070                     ?_app_get_comm_feature_callback:	
  2013                           ; 1 bytes @ 0x0
  2014                           
  2015     0070                     ?_app_get_line_coding_callback:	
  2016                           ; 1 bytes @ 0x0
  2017                           
  2018     0070                     ?_app_set_control_line_state_callback:	
  2019                           ; 1 bytes @ 0x0
  2020                           
  2021     0070                     ?_app_send_break_callback:	
  2022                           ; 1 bytes @ 0x0
  2023                           
  2024     0070                     ?_hardware_init:	
  2025                           ; 1 bytes @ 0x0
  2026                           
  2027     0070                     ?_pp_flush_res_byte:	
  2028                           ; 1 bytes @ 0x0
  2029                           
  2030     0070                     ?_reset_ep0_data_stage:	
  2031                           ; 1 bytes @ 0x0
  2032                           
  2033     0070                     ?_init_endpoints:	
  2034                           ; 1 bytes @ 0x0
  2035                           
  2036     0070                     ?_usb_init:	
  2037                           ; 1 bytes @ 0x0
  2038                           
  2039     0070                     ?_reset_bd0_out:	
  2040                           ; 1 bytes @ 0x0
  2041                           
  2042     0070                     ??_reset_bd0_out:	
  2043                           ; 1 bytes @ 0x0
  2044                           
  2045     0070                     ?_stall_ep0:	
  2046                           ; 1 bytes @ 0x0
  2047                           
  2048     0070                     ??_stall_ep0:	
  2049                           ; 1 bytes @ 0x0
  2050                           
  2051     0070                     ?_clear_ep0_stall:	
  2052                           ; 1 bytes @ 0x0
  2053                           
  2054     0070                     ??_clear_ep0_stall:	
  2055                           ; 1 bytes @ 0x0
  2056                           
  2057     0070                     ?_stall_ep_in:	
  2058                           ; 1 bytes @ 0x0
  2059                           
  2060     0070                     ?_stall_ep_out:	
  2061                           ; 1 bytes @ 0x0
  2062                           
  2063     0070                     ??_stall_ep_out:	
  2064                           ; 1 bytes @ 0x0
  2065                           
  2066     0070                     ?_send_zero_length_packet_ep0:	
  2067                           ; 1 bytes @ 0x0
  2068                           
  2069     0070                     ??_send_zero_length_packet_ep0:	
  2070                           ; 1 bytes @ 0x0
  2071                           
  2072     0070                     ?_handle_standard_control_request:	
  2073                           ; 1 bytes @ 0x0
  2074                           
  2075     0070                     ?_handle_ep0_setup:	
  2076                           ; 1 bytes @ 0x0
  2077                           
  2078     0070                     ?_handle_ep0_out:	
  2079                           ; 1 bytes @ 0x0
  2080                           
  2081     0070                     ?_handle_ep0_in:	
  2082                           ; 1 bytes @ 0x0
  2083                           
  2084     0070                     ?_usb_service:	
  2085                           ; 1 bytes @ 0x0
  2086                           
  2087     0070                     ?_usb_get_configuration:	
  2088                           ; 1 bytes @ 0x0
  2089                           
  2090     0070                     ?_usb_in_endpoint_busy:	
  2091                           ; 1 bytes @ 0x0
  2092                           
  2093     0070                     ?_usb_out_endpoint_has_data:	
  2094                           ; 1 bytes @ 0x0
  2095                           
  2096     0070                     ?_usb_arm_out_endpoint:	
  2097                           ; 1 bytes @ 0x0
  2098                           
  2099     0070                     ?_usb_out_endpoint_halted:	
  2100                           ; 1 bytes @ 0x0
  2101                           
  2102     0070                     ?_usb_start_receive_ep0_data_stage:	
  2103                           ; 1 bytes @ 0x0
  2104                           
  2105     0070                     ?_uart_init:	
  2106                           ; 1 bytes @ 0x0
  2107                           
  2108     0070                     ?_timer_init:	
  2109                           ; 1 bytes @ 0x0
  2110                           
  2111     0070                     ?_led_init:	
  2112                           ; 1 bytes @ 0x0
  2113                           
  2114     0070                     ?_isr:	
  2115                           ; 1 bytes @ 0x0
  2116                           
  2117     0070                     ?_dummy_locks:	
  2118                           ; 1 bytes @ 0x0
  2119                           
  2120     0070                     ?i1_reset_ep0_data_stage:	
  2121                           ; 1 bytes @ 0x0
  2122                           
  2123     0070                     ??i1_reset_ep0_data_stage:	
  2124                           ; 1 bytes @ 0x0
  2125                           
  2126     0070                     ?i1_init_endpoints:	
  2127                           ; 1 bytes @ 0x0
  2128                           
  2129     0070                     ?i1_usb_init:	
  2130                           ; 1 bytes @ 0x0
  2131                           
  2132     0070                     ?i1_usb_in_endpoint_halted:	
  2133                           ; 1 bytes @ 0x0
  2134                           
  2135     0070                     ?_usb_application_get_string:	
  2136                           ; 1 bytes @ 0x0
  2137                           
  2138     0070                     ?_app_unknown_get_descriptor_callback:	
  2139                           ; 2 bytes @ 0x0
  2140                           
  2141     0070                     ?_app_get_device_status_callback:	
  2142                           ; 2 bytes @ 0x0
  2143                           
  2144     0070                     ?_app_get_encapsulated_response:	
  2145                           ; 2 bytes @ 0x0
  2146                           
  2147     0070                     ?_main:	
  2148                           ; 2 bytes @ 0x0
  2149                           
  2150     0070                     ?i1___wmul:	
  2151                           ; 2 bytes @ 0x0
  2152                           
  2153     0070                     ?i1_memcpy:	
  2154                           ; 2 bytes @ 0x0
  2155                           
  2156     0070                     ?i1_memset:	
  2157                           ; 2 bytes @ 0x0
  2158                           
  2159     0070                     usb_application_get_string@ptr:	
  2160                           ; 2 bytes @ 0x0
  2161                           
  2162     0070                     app_set_configuration_callback@configuration:	
  2163                           ; 1 bytes @ 0x0
  2164                           
  2165     0070                     app_endpoint_halt_callback@endpoint:	
  2166                           ; 1 bytes @ 0x0
  2167                           
  2168     0070                     app_endpoint_halt_callback@halted:	
  2169                           ; 1 bytes @ 0x0
  2170                           
  2171     0070                     app_set_interface_callback@interface:	
  2172                           ; 1 bytes @ 0x0
  2173                           
  2174     0070                     app_set_interface_callback@alt_setting:	
  2175                           ; 1 bytes @ 0x0
  2176                           
  2177     0070                     app_get_interface_callback@interface:	
  2178                           ; 1 bytes @ 0x0
  2179                           
  2180     0070                     app_out_transaction_callback@endpoint:	
  2181                           ; 1 bytes @ 0x0
  2182                           
  2183     0070                     app_in_transaction_complete_callback@endpoint:	
  2184                           ; 1 bytes @ 0x0
  2185                           
  2186     0070                     app_send_encapsulated_command@interface:	
  2187                           ; 1 bytes @ 0x0
  2188                           
  2189     0070                     app_get_encapsulated_response@interface:	
  2190                           ; 1 bytes @ 0x0
  2191                           
  2192     0070                     app_set_comm_feature_callback@interface:	
  2193                           ; 1 bytes @ 0x0
  2194                           
  2195     0070                     app_set_comm_feature_callback@idle_setting:	
  2196                           ; 1 bytes @ 0x0
  2197                           
  2198     0070                     app_clear_comm_feature_callback@interface:	
  2199                           ; 1 bytes @ 0x0
  2200                           
  2201     0070                     app_clear_comm_feature_callback@idle_setting:	
  2202                           ; 1 bytes @ 0x0
  2203                           
  2204     0070                     app_get_comm_feature_callback@interface:	
  2205                           ; 1 bytes @ 0x0
  2206                           
  2207     0070                     app_get_comm_feature_callback@idle_setting:	
  2208                           ; 1 bytes @ 0x0
  2209                           
  2210     0070                     app_set_line_coding_callback@interface:	
  2211                           ; 1 bytes @ 0x0
  2212                           
  2213     0070                     app_set_line_coding_callback@coding:	
  2214                           ; 1 bytes @ 0x0
  2215                           
  2216     0070                     app_get_line_coding_callback@interface:	
  2217                           ; 1 bytes @ 0x0
  2218                           
  2219     0070                     app_get_line_coding_callback@coding:	
  2220                           ; 1 bytes @ 0x0
  2221                           
  2222     0070                     app_set_control_line_state_callback@interface:	
  2223                           ; 1 bytes @ 0x0
  2224                           
  2225     0070                     app_set_control_line_state_callback@dtr:	
  2226                           ; 1 bytes @ 0x0
  2227                           
  2228     0070                     usb_start_receive_ep0_data_stage@len:	
  2229                           ; 1 bytes @ 0x0
  2230                           
  2231     0070                     app_unknown_get_descriptor_callback@pkt:	
  2232                           ; 2 bytes @ 0x0
  2233                           
  2234     0070                     app_send_encapsulated_command@length:	
  2235                           ; 2 bytes @ 0x0
  2236                           
  2237     0070                     app_get_encapsulated_response@length:	
  2238                           ; 2 bytes @ 0x0
  2239                           
  2240     0070                     app_send_break_callback@duration:	
  2241                           ; 2 bytes @ 0x0
  2242                           
  2243     0070                     i1___wmul@multiplier:	
  2244                           ; 2 bytes @ 0x0
  2245                           
  2246     0070                     i1memcpy@d1:	
  2247                           ; 2 bytes @ 0x0
  2248                           
  2249     0070                     i1memset@dest:	
  2250                           ; 2 bytes @ 0x0
  2251                           
  2252                           
  2253                           ; 2 bytes @ 0x0
  2254     0070                     	ds	1
  2255     0071                     ??_app_set_interface_callback:
  2256     0071                     ??_app_endpoint_halt_callback:	
  2257                           ; 1 bytes @ 0x1
  2258                           
  2259     0071                     ??_app_set_line_coding_callback:	
  2260                           ; 1 bytes @ 0x1
  2261                           
  2262     0071                     ??_app_get_line_coding_callback:	
  2263                           ; 1 bytes @ 0x1
  2264                           
  2265     0071                     stall_ep_out@ep:	
  2266                           ; 1 bytes @ 0x1
  2267                           
  2268     0071                     app_set_comm_feature_callback@data_multiplexed_state:	
  2269                           ; 1 bytes @ 0x1
  2270                           
  2271     0071                     app_clear_comm_feature_callback@data_multiplexed_state:	
  2272                           ; 1 bytes @ 0x1
  2273                           
  2274     0071                     app_get_comm_feature_callback@data_multiplexed_state:	
  2275                           ; 1 bytes @ 0x1
  2276                           
  2277     0071                     app_set_control_line_state_callback@dts:	
  2278                           ; 1 bytes @ 0x1
  2279                           
  2280                           
  2281                           ; 1 bytes @ 0x1
  2282     0071                     	ds	1
  2283     0072                     ??_usb_application_get_string:
  2284     0072                     ??_app_get_device_status_callback:	
  2285                           ; 1 bytes @ 0x2
  2286                           
  2287     0072                     ??_app_set_comm_feature_callback:	
  2288                           ; 1 bytes @ 0x2
  2289                           
  2290     0072                     ??_app_clear_comm_feature_callback:	
  2291                           ; 1 bytes @ 0x2
  2292                           
  2293     0072                     ??_app_send_encapsulated_command:	
  2294                           ; 1 bytes @ 0x2
  2295                           
  2296     0072                     ??_app_get_comm_feature_callback:	
  2297                           ; 1 bytes @ 0x2
  2298                           
  2299     0072                     ??_app_set_control_line_state_callback:	
  2300                           ; 1 bytes @ 0x2
  2301                           
  2302     0072                     ??_app_send_break_callback:	
  2303                           ; 1 bytes @ 0x2
  2304                           
  2305     0072                     ?_set_or_clear_comm_feature_callback:	
  2306                           ; 1 bytes @ 0x2
  2307                           
  2308     0072                     ?_set_line_coding:	
  2309                           ; 1 bytes @ 0x2
  2310                           
  2311     0072                     set_or_clear_comm_feature_callback@transfer_ok:	
  2312                           ; 1 bytes @ 0x2
  2313                           
  2314     0072                     set_line_coding@transfer_ok:	
  2315                           ; 1 bytes @ 0x2
  2316                           
  2317     0072                     usb_application_get_string@string_number:	
  2318                           ; 1 bytes @ 0x2
  2319                           
  2320     0072                     app_unknown_get_descriptor_callback@descriptor:	
  2321                           ; 1 bytes @ 0x2
  2322                           
  2323     0072                     app_get_encapsulated_response@report:	
  2324                           ; 1 bytes @ 0x2
  2325                           
  2326     0072                     app_send_break_callback@interface:	
  2327                           ; 1 bytes @ 0x2
  2328                           
  2329     0072                     usb_start_receive_ep0_data_stage@callback:	
  2330                           ; 1 bytes @ 0x2
  2331                           
  2332     0072                     i1___wmul@multiplicand:	
  2333                           ; 2 bytes @ 0x2
  2334                           
  2335     0072                     i1memcpy@s1:	
  2336                           ; 2 bytes @ 0x2
  2337                           
  2338     0072                     i1memset@c:	
  2339                           ; 2 bytes @ 0x2
  2340                           
  2341                           
  2342                           ; 2 bytes @ 0x2
  2343     0072                     	ds	1
  2344     0073                     ??_app_unknown_get_descriptor_callback:
  2345     0073                     app_get_encapsulated_response@callback:	
  2346                           ; 1 bytes @ 0x3
  2347                           
  2348     0073                     set_or_clear_comm_feature_callback@context:	
  2349                           ; 1 bytes @ 0x3
  2350                           
  2351     0073                     set_line_coding@context:	
  2352                           ; 2 bytes @ 0x3
  2353                           
  2354                           
  2355                           ; 2 bytes @ 0x3
  2356     0073                     	ds	1
  2357     0074                     ??i1___wmul:
  2358     0074                     app_get_encapsulated_response@context:	
  2359                           ; 1 bytes @ 0x4
  2360                           
  2361     0074                     usb_start_receive_ep0_data_stage@context:	
  2362                           ; 1 bytes @ 0x4
  2363                           
  2364     0074                     i1___wmul@product:	
  2365                           ; 2 bytes @ 0x4
  2366                           
  2367     0074                     i1memcpy@n:	
  2368                           ; 2 bytes @ 0x4
  2369                           
  2370     0074                     i1memset@n:	
  2371                           ; 2 bytes @ 0x4
  2372                           
  2373                           
  2374                           ; 2 bytes @ 0x4
  2375     0074                     	ds	1
  2376     0075                     ??_app_get_encapsulated_response:
  2377     0075                     ??_set_or_clear_comm_feature_callback:	
  2378                           ; 1 bytes @ 0x5
  2379                           
  2380     0075                     ??_set_line_coding:	
  2381                           ; 1 bytes @ 0x5
  2382                           
  2383     0075                     set_or_clear_comm_feature_callback@idle_setting:	
  2384                           ; 1 bytes @ 0x5
  2385                           
  2386                           
  2387                           ; 1 bytes @ 0x5
  2388     0075                     	ds	1
  2389     0076                     ??_usb_halt_ep_out:
  2390     0076                     ??_stall_ep_in:	
  2391                           ; 1 bytes @ 0x6
  2392                           
  2393     0076                     ??_usb_start_receive_ep0_data_stage:	
  2394                           ; 1 bytes @ 0x6
  2395                           
  2396     0076                     ??i1_usb_in_endpoint_halted:	
  2397                           ; 1 bytes @ 0x6
  2398                           
  2399     0076                     ??i1_memcpy:	
  2400                           ; 1 bytes @ 0x6
  2401                           
  2402     0076                     ??i1_memset:	
  2403                           ; 1 bytes @ 0x6
  2404                           
  2405     0076                     ?i1_pic16_linear_addr:	
  2406                           ; 1 bytes @ 0x6
  2407                           
  2408     0076                     usb_start_receive_ep0_data_stage@buffer:	
  2409                           ; 2 bytes @ 0x6
  2410                           
  2411     0076                     set_or_clear_comm_feature_callback@data_multiplexed_state:	
  2412                           ; 1 bytes @ 0x6
  2413                           
  2414     0076                     i1pic16_linear_addr@ptr:	
  2415                           ; 1 bytes @ 0x6
  2416                           
  2417     0076                     i1memcpy@d:	
  2418                           ; 2 bytes @ 0x6
  2419                           
  2420     0076                     i1memset@p:	
  2421                           ; 2 bytes @ 0x6
  2422                           
  2423                           
  2424                           ; 2 bytes @ 0x6
  2425     0076                     	ds	2
  2426     0078                     i1pic16_linear_addr@high:
  2427     0078                     i1memcpy@s:	
  2428                           ; 1 bytes @ 0x8
  2429                           
  2430                           
  2431                           ; 2 bytes @ 0x8
  2432     0078                     	ds	1
  2433     0079                     i1pic16_linear_addr@low:
  2434                           
  2435                           ; 1 bytes @ 0x9
  2436     0079                     	ds	1
  2437     007A                     usb_halt_ep_out@ep:
  2438     007A                     i1usb_in_endpoint_halted@endpoint:	
  2439                           ; 1 bytes @ 0xA
  2440                           
  2441     007A                     i1memcpy@tmp:	
  2442                           ; 1 bytes @ 0xA
  2443                           
  2444     007A                     i1pic16_linear_addr@addr:	
  2445                           ; 1 bytes @ 0xA
  2446                           
  2447                           
  2448                           ; 2 bytes @ 0xA
  2449     007A                     	ds	1
  2450     007B                     ?_usb_send_in_buffer_0:
  2451     007B                     ??_handle_ep0_out:	
  2452                           ; 1 bytes @ 0xB
  2453                           
  2454     007B                     stall_ep_in@ep:	
  2455                           ; 1 bytes @ 0xB
  2456                           
  2457     007B                     usb_send_in_buffer_0@len:	
  2458                           ; 1 bytes @ 0xB
  2459                           
  2460                           
  2461                           ; 2 bytes @ 0xB
  2462     007B                     	ds	1
  2463     007C                     ??i1_usb_init:
  2464     007C                     usb_halt_ep_in@ep:	
  2465                           ; 1 bytes @ 0xC
  2466                           
  2467                           
  2468                           ; 1 bytes @ 0xC
  2469     007C                     	ds	1
  2470     007D                     ??_usb_send_in_buffer_0:
  2471                           
  2472                           ; 1 bytes @ 0xD
  2473     007D                     	ds	1
  2474     007E                     ??_app_unknown_setup_request_callback:
  2475     007E                     ??_handle_ep0_setup:	
  2476                           ; 1 bytes @ 0xE
  2477                           
  2478     007E                     ??_usb_send_data_stage:	
  2479                           ; 1 bytes @ 0xE
  2480                           
  2481     007E                     ??_isr:	
  2482                           ; 1 bytes @ 0xE
  2483                           
  2484                           
  2485                           	psect	cstackBANK0
  2486     0048                     __pcstackBANK0:	
  2487                           ; 1 bytes @ 0xE
  2488                           
  2489     0048                     ??_usb_halt_ep_in:
  2490     0048                     ??i1_pic16_linear_addr:	
  2491                           ; 1 bytes @ 0x0
  2492                           
  2493     0048                     usb_send_in_buffer_0@pid:	
  2494                           ; 1 bytes @ 0x0
  2495                           
  2496     0048                     _handle_ep0_out$655:	
  2497                           ; 1 bytes @ 0x0
  2498                           
  2499                           
  2500                           ; 2 bytes @ 0x0
  2501     0048                     	ds	1
  2502     0049                     ?_start_control_return:
  2503     0049                     ??_handle_ep0_in:	
  2504                           ; 1 bytes @ 0x1
  2505                           
  2506     0049                     start_control_return@ptr:	
  2507                           ; 1 bytes @ 0x1
  2508                           
  2509                           
  2510                           ; 2 bytes @ 0x1
  2511     0049                     	ds	1
  2512     004A                     handle_ep0_out@res:
  2513                           
  2514                           ; 1 bytes @ 0x2
  2515     004A                     	ds	1
  2516     004B                     handle_ep0_out@pkt_len:
  2517     004B                     start_control_return@len:	
  2518                           ; 1 bytes @ 0x3
  2519                           
  2520     004B                     _handle_ep0_in$660:	
  2521                           ; 2 bytes @ 0x3
  2522                           
  2523                           
  2524                           ; 2 bytes @ 0x3
  2525     004B                     	ds	1
  2526     004C                     handle_ep0_out@bytes_to_copy:
  2527                           
  2528                           ; 1 bytes @ 0x4
  2529     004C                     	ds	1
  2530     004D                     handle_ep0_in@bytes_to_send:
  2531     004D                     start_control_return@bytes_asked_for:	
  2532                           ; 1 bytes @ 0x5
  2533                           
  2534                           
  2535                           ; 2 bytes @ 0x5
  2536     004D                     	ds	2
  2537     004F                     ??_start_control_return:
  2538                           
  2539                           ; 1 bytes @ 0x7
  2540     004F                     	ds	2
  2541     0051                     _start_control_return$571:
  2542                           
  2543                           ; 2 bytes @ 0x9
  2544     0051                     	ds	2
  2545     0053                     _start_control_return$572:
  2546                           
  2547                           ; 2 bytes @ 0xB
  2548     0053                     	ds	1
  2549     0054                     ??i1_init_endpoints:
  2550                           
  2551                           ; 1 bytes @ 0xC
  2552     0054                     	ds	1
  2553     0055                     _start_control_return$573:
  2554                           
  2555                           ; 2 bytes @ 0xD
  2556     0055                     	ds	2
  2557     0057                     start_control_return@bytes_to_send:
  2558                           
  2559                           ; 1 bytes @ 0xF
  2560     0057                     	ds	1
  2561     0058                     ?_usb_send_data_stage:
  2562     0058                     usb_send_data_stage@len:	
  2563                           ; 1 bytes @ 0x10
  2564                           
  2565                           
  2566                           ; 2 bytes @ 0x10
  2567     0058                     	ds	2
  2568     005A                     usb_send_data_stage@callback:
  2569     005A                     i1_init_endpoints$2399:	
  2570                           ; 2 bytes @ 0x12
  2571                           
  2572                           
  2573                           ; 2 bytes @ 0x12
  2574     005A                     	ds	2
  2575     005C                     i1init_endpoints@i:
  2576     005C                     usb_send_data_stage@context:	
  2577                           ; 1 bytes @ 0x14
  2578                           
  2579                           
  2580                           ; 2 bytes @ 0x14
  2581     005C                     	ds	1
  2582     005D                     ??_handle_standard_control_request:
  2583     005D                     i1usb_init@i:	
  2584                           ; 1 bytes @ 0x15
  2585                           
  2586                           
  2587                           ; 1 bytes @ 0x15
  2588     005D                     	ds	1
  2589     005E                     usb_send_data_stage@buffer:
  2590     005E                     i1usb_init@ep:	
  2591                           ; 1 bytes @ 0x16
  2592                           
  2593                           
  2594                           ; 2 bytes @ 0x16
  2595     005E                     	ds	1
  2596     005F                     ?_process_cdc_setup_request:
  2597     005F                     process_cdc_setup_request@setup:	
  2598                           ; 1 bytes @ 0x17
  2599                           
  2600                           
  2601                           ; 2 bytes @ 0x17
  2602     005F                     	ds	2
  2603     0061                     ??_process_cdc_setup_request:
  2604                           
  2605                           ; 1 bytes @ 0x19
  2606     0061                     	ds	2
  2607     0063                     ?_app_unknown_setup_request_callback:
  2608     0063                     app_unknown_setup_request_callback@setup:	
  2609                           ; 1 bytes @ 0x1B
  2610                           
  2611                           
  2612                           ; 2 bytes @ 0x1B
  2613     0063                     	ds	2
  2614     0065                     handle_ep0_setup@res:
  2615                           
  2616                           ; 1 bytes @ 0x1D
  2617     0065                     	ds	1
  2618     0066                     handle_ep0_setup@setup:
  2619                           
  2620                           ; 2 bytes @ 0x1E
  2621     0066                     	ds	2
  2622     0068                     ??_usb_service:
  2623                           
  2624                           ; 1 bytes @ 0x20
  2625     0068                     	ds	5
  2626                           
  2627                           	psect	maintext
  2628     0A49                     __pmaintext:	
  2629 ;;
  2630 ;;Main: autosize = 0, tempsize = 2, incstack = 0, save=0
  2631 ;;
  2632 ;; *************** function _main *****************
  2633 ;; Defined at:
  2634 ;;		line 96 in file "../main.c"
  2635 ;; Parameters:    Size  Location     Type
  2636 ;;		None
  2637 ;; Auto vars:     Size  Location     Type
  2638 ;;  c               1   46[BANK5 ] unsigned char 
  2639 ;;  out_buf         2   47[BANK5 ] PTR const unsigned char 
  2640 ;;		 -> NULL(0), ep_buffers(294), 
  2641 ;;  out_buf_len     2   44[BANK5 ] unsigned int 
  2642 ;; Return value:  Size  Location     Type
  2643 ;;                  2  619[None  ] int 
  2644 ;; Registers used:
  2645 ;;		wreg, fsr0l, fsr0h, fsr1l, fsr1h, status,2, status,0, pclath, cstack
  2646 ;; Tracked objects:
  2647 ;;		On entry : B1F/0
  2648 ;;		On exit  : 1F/6
  2649 ;;		Unchanged: 0/0
  2650 ;; Data sizes:     COMMON   BANK0   BANK1   BANK2   BANK3   BANK4   BANK5   BANK6   BANK7   BANK8   BANK9  BANK10  BANK1
      +1  BANK12
  2651 ;;      Params:         0       0       0       0       0       0       0       0       0       0       0       0       
      +0       0
  2652 ;;      Locals:         0       0       0       0       0       0       5       0       0       0       0       0       
      +0       0
  2653 ;;      Temps:          0       0       0       0       0       0       2       0       0       0       0       0       
      +0       0
  2654 ;;      Totals:         0       0       0       0       0       0       7       0       0       0       0       0       
      +0       0
  2655 ;;Total ram usage:        7 bytes
  2656 ;; Hardware stack levels required when called: 17
  2657 ;; This function calls:
  2658 ;;		_hardware_init
  2659 ;;		_led_init
  2660 ;;		_pp_flush_res_byte
  2661 ;;		_pp_init
  2662 ;;		_pp_process
  2663 ;;		_timer_init
  2664 ;;		_uart_init
  2665 ;;		_usb_arm_out_endpoint
  2666 ;;		_usb_get_configuration
  2667 ;;		_usb_get_out_buffer
  2668 ;;		_usb_in_endpoint_halted
  2669 ;;		_usb_init
  2670 ;;		_usb_out_endpoint_halted
  2671 ;;		_usb_out_endpoint_has_data
  2672 ;;		_usb_send_data
  2673 ;; This function is called by:
  2674 ;;		Startup code after reset
  2675 ;; This function uses a non-reentrant model
  2676 ;;
  2677                           
  2678     0A49                     _main:	
  2679                           ;psect for function _main
  2680                           
  2681                           
  2682                           ;../main.c: 101:     ANSELA = 0;
  2683                           
  2684                           ;incstack = 0
  2685 ;; hardware stack exceeded
  2686                           ; Regs used in _main: [wreg-fsr1h+status,2+status,0+pclath+cstack]
  2687     0A49  0023               	movlb	3	; select bank3
  2688     0A4A  018C               	clrf	12	;volatile
  2689                           
  2690                           ;../main.c: 102:     ANSELC = 0;
  2691     0A4B  018E               	clrf	14	;volatile
  2692                           
  2693                           ;../main.c: 104:     hardware_init();
  2694     0A4C  3190  2097  318A   	fcall	_hardware_init
  2695                           
  2696                           ;../main.c: 105:     usb_init();
  2697     0A4F  3195  258E  318A   	fcall	_usb_init
  2698                           
  2699                           ;../main.c: 106:     uart_init();
  2700     0A52  3191  21A8  318A   	fcall	_uart_init
  2701                           
  2702                           ;../main.c: 107:     timer_init();
  2703     0A55  3190  20AB  318A   	fcall	_timer_init
  2704                           
  2705                           ;../main.c: 108:     led_init();
  2706     0A58  3190  2074  318A   	fcall	_led_init
  2707                           
  2708                           ;../main.c: 110:     pp_init(pp_send_res_byte);
  2709     0A5B  30EB               	movlw	low _pp_send_res_byte
  2710     0A5C  0025               	movlb	5	; select bank5
  2711     0A5D  00B6               	movwf	pp_init@sendbackp^(0+640)
  2712     0A5E  3013               	movlw	high _pp_send_res_byte
  2713     0A5F  00B7               	movwf	(pp_init@sendbackp^(0+640)+1)
  2714     0A60  3190  20F0  318A   	fcall	_pp_init
  2715                           
  2716                           ;../main.c: 112:     GIE = 1;
  2717     0A63  178B               	bsf	11,7	;volatile
  2718     0A64                     l5939:
  2719                           
  2720                           ;../main.c: 118:         if (0 < turn_on_led) {
  2721     0A64  0026               	movlb	6	; select bank6
  2722     0A65  0829               	movf	_turn_on_led^(0+768),w
  2723     0A66  1903               	btfsc	3,2
  2724     0A67  2A6B               	goto	l621
  2725                           
  2726                           ;../main.c: 119:             LATC2 = 0;
  2727     0A68  0022               	movlb	2	; select bank2
  2728     0A69  110E               	bcf	14,2	;volatile
  2729                           
  2730                           ;../main.c: 120:         } else {
  2731     0A6A  2A6D               	goto	l5943
  2732     0A6B                     l621:
  2733                           
  2734                           ;../main.c: 121:             LATC2 = 1;
  2735     0A6B  0022               	movlb	2	; select bank2
  2736     0A6C  150E               	bsf	14,2	;volatile
  2737     0A6D                     l5943:
  2738                           
  2739                           ;../main.c: 124:         if (!(usb_get_configuration() != 0))
  2740     0A6D  3187  27FC  318A   	fcall	_usb_get_configuration
  2741     0A70  3A00               	xorlw	0
  2742     0A71  1903               	btfsc	3,2
  2743     0A72  2A64               	goto	l5939
  2744                           
  2745                           ;../main.c: 130:         if (!usb_out_endpoint_halted(2) && usb_out_endpoint_has_data(2)
      +                          ) {
  2746     0A73  3002               	movlw	2
  2747     0A74  3192  2248  318A   	fcall	_usb_out_endpoint_halted
  2748     0A77  3A00               	xorlw	0
  2749     0A78  1D03               	skipz
  2750     0A79  2AAB               	goto	l5957
  2751     0A7A  3002               	movlw	2
  2752     0A7B  3191  2140  318A   	fcall	_usb_out_endpoint_has_data
  2753     0A7E  3A00               	xorlw	0
  2754     0A7F  1903               	skipnz
  2755     0A80  2AAB               	goto	l5957
  2756                           
  2757                           ;../main.c: 131:             const unsigned char *out_buf;;../main.c: 132:             s
      +                          ize_t out_buf_len;;../main.c: 134:             out_buf_len = usb_get_out_buffer(2, &out_
      +                          buf);
  2758     0A81  30E5               	movlw	low main@out_buf
  2759     0A82  00BC               	movwf	usb_get_out_buffer@buf^(0+640)
  2760     0A83  3002               	movlw	high main@out_buf
  2761     0A84  00BD               	movwf	(usb_get_out_buffer@buf+1)^(0+640)
  2762     0A85  3002               	movlw	2
  2763     0A86  3187  27CE  318A   	fcall	_usb_get_out_buffer
  2764     0A89  00E0               	movwf	??_main^(0+640)
  2765     0A8A  01E1               	clrf	(??_main^(0+640)+1)
  2766     0A8B  0860               	movf	??_main^(0+640),w
  2767     0A8C  00E2               	movwf	main@out_buf_len^(0+640)
  2768     0A8D  0861               	movf	(??_main+1)^(0+640),w
  2769     0A8E  00E3               	movwf	(main@out_buf_len+1)^(0+640)
  2770                           
  2771                           ;../main.c: 135:             pp_process(out_buf, out_buf_len);
  2772     0A8F  0866               	movf	(main@out_buf+1)^(0+640),w
  2773     0A90  0026               	movlb	6	; select bank6
  2774     0A91  00DD               	movwf	(pp_process@data+1)^(0+768)
  2775     0A92  0025               	movlb	5	; select bank5
  2776     0A93  0865               	movf	main@out_buf^(0+640),w
  2777     0A94  0026               	movlb	6	; select bank6
  2778     0A95  00DC               	movwf	pp_process@data^(0+768)
  2779     0A96  0025               	movlb	5	; select bank5
  2780     0A97  0863               	movf	(main@out_buf_len+1)^(0+640),w
  2781     0A98  0026               	movlb	6	; select bank6
  2782     0A99  00DF               	movwf	(pp_process@len+1)^(0+768)
  2783     0A9A  0025               	movlb	5	; select bank5
  2784     0A9B  0862               	movf	main@out_buf_len^(0+640),w
  2785     0A9C  0026               	movlb	6	; select bank6
  2786     0A9D  00DE               	movwf	pp_process@len^(0+768)
  2787     0A9E  3189  215B  318A   	fcall	_pp_process
  2788                           
  2789                           ;../main.c: 137:             usb_arm_out_endpoint(2);
  2790     0AA1  3002               	movlw	2
  2791     0AA2  3188  2014  318A   	fcall	_usb_arm_out_endpoint
  2792                           
  2793                           ;../main.c: 138:             turn_on_led = 5;
  2794     0AA5  3005               	movlw	5
  2795     0AA6  0026               	movlb	6	; select bank6
  2796     0AA7  00A9               	movwf	_turn_on_led^(0+768)
  2797                           
  2798                           ;../main.c: 140:             pp_flush_res_byte();
  2799     0AA8  3188  2000  318A   	fcall	_pp_flush_res_byte
  2800     0AAB                     l5957:
  2801                           
  2802                           ;../main.c: 146:         if (PIR1bits.RCIF) {
  2803     0AAB  0020               	movlb	0	; select bank0
  2804     0AAC  1E91               	btfss	17,5	;volatile
  2805     0AAD  2AEC               	goto	l5983
  2806                           
  2807                           ;../main.c: 147:             uint8_t c;;../main.c: 148:             if (RCSTAbits.OERR) 
      +                          {
  2808     0AAE  0023               	movlb	3	; select bank3
  2809     0AAF  1C9D               	btfss	29,1	;volatile
  2810     0AB0  2AB8               	goto	l5967
  2811                           
  2812                           ;../main.c: 150:                 RCSTAbits.CREN = 0;
  2813     0AB1  121D               	bcf	29,4	;volatile
  2814                           
  2815                           ;../main.c: 151:                 c = RCREG;
  2816     0AB2  0819               	movf	25,w	;volatile
  2817     0AB3  0025               	movlb	5	; select bank5
  2818     0AB4  00E4               	movwf	main@c^(0+640)
  2819                           
  2820                           ;../main.c: 152:                 RCSTAbits.CREN = 1;
  2821     0AB5  0023               	movlb	3	; select bank3
  2822     0AB6  161D               	bsf	29,4	;volatile
  2823                           
  2824                           ;../main.c: 153:             } else {
  2825     0AB7  2ABB               	goto	l5969
  2826     0AB8                     l5967:
  2827                           
  2828                           ;../main.c: 154:                 c = RCREG;
  2829     0AB8  0819               	movf	25,w	;volatile
  2830     0AB9  0025               	movlb	5	; select bank5
  2831     0ABA  00E4               	movwf	main@c^(0+640)
  2832     0ABB                     l5969:
  2833                           
  2834                           ;../main.c: 156:             uart_rx_buf[uart_rx_buf_len++] = c;
  2835     0ABB  0026               	movlb	6	; select bank6
  2836     0ABC  082D               	movf	_uart_rx_buf_len^(0+768),w
  2837     0ABD  3EC3               	addlw	(low (_uart_rx_buf| (0+768)))& (0+255)
  2838     0ABE  0086               	movwf	6
  2839     0ABF  3003               	movlw	3	; select bank7/8
  2840     0AC0  0087               	movwf	7
  2841     0AC1  0025               	movlb	5	; select bank5
  2842     0AC2  0864               	movf	main@c^(0+640),w
  2843     0AC3  0081               	movwf	1
  2844     0AC4  3001               	movlw	1
  2845     0AC5  00E0               	movwf	??_main^(0+640)
  2846     0AC6  0860               	movf	??_main^(0+640),w
  2847     0AC7  0026               	movlb	6	; select bank6
  2848     0AC8  07AD               	addwf	_uart_rx_buf_len^(0+768),f
  2849                           
  2850                           ;../main.c: 157:             if (sizeof(uart_rx_buf) <= uart_rx_buf_len) {
  2851     0AC9  3020               	movlw	32
  2852     0ACA  022D               	subwf	_uart_rx_buf_len^(0+768),w
  2853     0ACB  1C03               	skipc
  2854     0ACC  2AE8               	goto	l5981
  2855                           
  2856                           ;../main.c: 159:                 if (!usb_in_endpoint_halted(4)) {
  2857     0ACD  3004               	movlw	4
  2858     0ACE  3192  222C  318A   	fcall	_usb_in_endpoint_halted
  2859     0AD1  3A00               	xorlw	0
  2860     0AD2  1D03               	skipz
  2861     0AD3  2AE5               	goto	l5979
  2862                           
  2863                           ;../main.c: 160:                     usb_send_data(4, uart_rx_buf, uart_rx_buf_len);
  2864     0AD4  30C3               	movlw	low _uart_rx_buf
  2865     0AD5  00CB               	movwf	usb_send_data@data^(0+640)
  2866     0AD6  3003               	movlw	high _uart_rx_buf
  2867     0AD7  00CC               	movwf	(usb_send_data@data+1)^(0+640)
  2868     0AD8  0026               	movlb	6	; select bank6
  2869     0AD9  082D               	movf	_uart_rx_buf_len^(0+768),w
  2870     0ADA  0025               	movlb	5	; select bank5
  2871     0ADB  00E0               	movwf	??_main^(0+640)
  2872     0ADC  01E1               	clrf	(??_main^(0+640)+1)
  2873     0ADD  0860               	movf	??_main^(0+640),w
  2874     0ADE  00CD               	movwf	usb_send_data@len^(0+640)
  2875     0ADF  0861               	movf	(??_main+1)^(0+640),w
  2876     0AE0  00CE               	movwf	(usb_send_data@len+1)^(0+640)
  2877     0AE1  3004               	movlw	4
  2878     0AE2  3193  239C  318A   	fcall	_usb_send_data
  2879     0AE5                     l5979:
  2880                           
  2881                           ;../main.c: 162:                 uart_rx_buf_len = 0;
  2882     0AE5  0026               	movlb	6	; select bank6
  2883     0AE6  01AD               	clrf	_uart_rx_buf_len^(0+768)
  2884                           
  2885                           ;../main.c: 163:             } else {
  2886     0AE7  2AEA               	goto	l631
  2887     0AE8                     l5981:
  2888                           
  2889                           ;../main.c: 164:                 uart_rx_flush_timer = 2;
  2890     0AE8  3002               	movlw	2
  2891     0AE9  00AC               	movwf	_uart_rx_flush_timer^(0+768)
  2892     0AEA                     l631:	
  2893                           ;../main.c: 165:             }
  2894                           
  2895                           
  2896                           ;../main.c: 166:             turn_on_led = 5;
  2897     0AEA  3005               	movlw	5
  2898     0AEB  00A9               	movwf	_turn_on_led^(0+768)
  2899     0AEC                     l5983:
  2900                           
  2901                           ;../main.c: 168:         if (uart_rx_flush_timer == 0 && 0 < uart_rx_buf_len) {
  2902     0AEC  0026               	movlb	6	; select bank6
  2903     0AED  082C               	movf	_uart_rx_flush_timer^(0+768),w
  2904     0AEE  1D03               	btfss	3,2
  2905     0AEF  2B07               	goto	l5991
  2906     0AF0  082D               	movf	_uart_rx_buf_len^(0+768),w
  2907     0AF1  1903               	btfsc	3,2
  2908     0AF2  2B07               	goto	l5991
  2909                           
  2910                           ;../main.c: 169:             usb_send_data(4, uart_rx_buf, uart_rx_buf_len);
  2911     0AF3  30C3               	movlw	low _uart_rx_buf
  2912     0AF4  0025               	movlb	5	; select bank5
  2913     0AF5  00CB               	movwf	usb_send_data@data^(0+640)
  2914     0AF6  3003               	movlw	high _uart_rx_buf
  2915     0AF7  00CC               	movwf	(usb_send_data@data+1)^(0+640)
  2916     0AF8  0026               	movlb	6	; select bank6
  2917     0AF9  082D               	movf	_uart_rx_buf_len^(0+768),w
  2918     0AFA  0025               	movlb	5	; select bank5
  2919     0AFB  00E0               	movwf	??_main^(0+640)
  2920     0AFC  01E1               	clrf	(??_main^(0+640)+1)
  2921     0AFD  0860               	movf	??_main^(0+640),w
  2922     0AFE  00CD               	movwf	usb_send_data@len^(0+640)
  2923     0AFF  0861               	movf	(??_main+1)^(0+640),w
  2924     0B00  00CE               	movwf	(usb_send_data@len+1)^(0+640)
  2925     0B01  3004               	movlw	4
  2926     0B02  3193  239C  318A   	fcall	_usb_send_data
  2927                           
  2928                           ;../main.c: 170:             uart_rx_buf_len = 0;
  2929     0B05  0026               	movlb	6	; select bank6
  2930     0B06  01AD               	clrf	_uart_rx_buf_len^(0+768)
  2931     0B07                     l5991:
  2932                           
  2933                           ;../main.c: 176:         if (uart_tx_buf_len == 0 && !usb_out_endpoint_halted(4) && usb_
      +                          out_endpoint_has_data(4)) {
  2934     0B07  082B               	movf	_uart_tx_buf_len^(0+768),w
  2935     0B08  1D03               	btfss	3,2
  2936     0B09  2B25               	goto	l6003
  2937     0B0A  3004               	movlw	4
  2938     0B0B  3192  2248  318A   	fcall	_usb_out_endpoint_halted
  2939     0B0E  3A00               	xorlw	0
  2940     0B0F  1D03               	skipz
  2941     0B10  2B25               	goto	l6003
  2942     0B11  3004               	movlw	4
  2943     0B12  3191  2140  318A   	fcall	_usb_out_endpoint_has_data
  2944     0B15  3A00               	xorlw	0
  2945     0B16  1903               	skipnz
  2946     0B17  2B25               	goto	l6003
  2947                           
  2948                           ;../main.c: 177:             uart_tx_buf_len = usb_get_out_buffer(4, &uart_tx_buf);
  2949     0B18  3044               	movlw	low _uart_tx_buf
  2950     0B19  00BC               	movwf	usb_get_out_buffer@buf^(0+640)
  2951     0B1A  3003               	movlw	high _uart_tx_buf
  2952     0B1B  00BD               	movwf	(usb_get_out_buffer@buf+1)^(0+640)
  2953     0B1C  3004               	movlw	4
  2954     0B1D  3187  27CE  318A   	fcall	_usb_get_out_buffer
  2955     0B20  0026               	movlb	6	; select bank6
  2956     0B21  00AB               	movwf	_uart_tx_buf_len^(0+768)
  2957                           
  2958                           ;../main.c: 178:             uart_tx_buf_head = 0;
  2959     0B22  01AA               	clrf	_uart_tx_buf_head^(0+768)
  2960                           
  2961                           ;../main.c: 179:             turn_on_led = 5;
  2962     0B23  3005               	movlw	5
  2963     0B24  00A9               	movwf	_turn_on_led^(0+768)
  2964     0B25                     l6003:
  2965                           
  2966                           ;../main.c: 181:         if (PIR1bits.TXIF && 0 < uart_tx_buf_len) {
  2967     0B25  0020               	movlb	0	; select bank0
  2968     0B26  1E11               	btfss	17,4	;volatile
  2969     0B27  2A64               	goto	l5939
  2970     0B28  0026               	movlb	6	; select bank6
  2971     0B29  082B               	movf	_uart_tx_buf_len^(0+768),w
  2972     0B2A  1903               	btfsc	3,2
  2973     0B2B  2A64               	goto	l5939
  2974                           
  2975                           ;../main.c: 182:             TXREG = uart_tx_buf[uart_tx_buf_head++];
  2976     0B2C  082A               	movf	_uart_tx_buf_head^(0+768),w
  2977     0B2D  0025               	movlb	5	; select bank5
  2978     0B2E  00E0               	movwf	??_main^(0+640)
  2979     0B2F  01E1               	clrf	(??_main^(0+640)+1)
  2980     0B30  0860               	movf	??_main^(0+640),w
  2981     0B31  0026               	movlb	6	; select bank6
  2982     0B32  0744               	addwf	_uart_tx_buf^(0+768),w
  2983     0B33  0086               	movwf	6
  2984     0B34  0025               	movlb	5	; select bank5
  2985     0B35  0861               	movf	(??_main+1)^(0+640),w
  2986     0B36  0026               	movlb	6	; select bank6
  2987     0B37  3D45               	addwfc	(_uart_tx_buf+1)^(0+768),w
  2988     0B38  0087               	movwf	7
  2989     0B39  0801               	movf	1,w
  2990     0B3A  0023               	movlb	3	; select bank3
  2991     0B3B  009A               	movwf	26	;volatile
  2992     0B3C  3001               	movlw	1
  2993     0B3D  0025               	movlb	5	; select bank5
  2994     0B3E  00E0               	movwf	??_main^(0+640)
  2995     0B3F  0860               	movf	??_main^(0+640),w
  2996     0B40  0026               	movlb	6	; select bank6
  2997     0B41  07AA               	addwf	_uart_tx_buf_head^(0+768),f
  2998                           
  2999                           ;../main.c: 183:             if (uart_tx_buf_len <= uart_tx_buf_head) {
  3000     0B42  082B               	movf	_uart_tx_buf_len^(0+768),w
  3001     0B43  022A               	subwf	_uart_tx_buf_head^(0+768),w
  3002     0B44  1C03               	skipc
  3003     0B45  2B4B               	goto	l6017
  3004                           
  3005                           ;../main.c: 184:                 uart_tx_buf_len = 0;
  3006     0B46  01AB               	clrf	_uart_tx_buf_len^(0+768)
  3007                           
  3008                           ;../main.c: 185:                 usb_arm_out_endpoint(4);
  3009     0B47  3004               	movlw	4
  3010     0B48  3188  2014  318A   	fcall	_usb_arm_out_endpoint
  3011     0B4B                     l6017:
  3012                           
  3013                           ;../main.c: 187:             turn_on_led = 5;
  3014     0B4B  3005               	movlw	5
  3015     0B4C  0026               	movlb	6	; select bank6
  3016     0B4D  00A9               	movwf	_turn_on_led^(0+768)
  3017     0B4E  2A64               	goto	l5939
  3018     0B4F                     __end_of_main:
  3019                           
  3020                           	psect	text1
  3021     1140                     __ptext1:	
  3022 ;; *************** function _usb_out_endpoint_has_data *****************
  3023 ;; Defined at:
  3024 ;;		line 1616 in file "../m-stack/usb/src/usb.c"
  3025 ;; Parameters:    Size  Location     Type
  3026 ;;  endpoint        1    wreg     unsigned char 
  3027 ;; Auto vars:     Size  Location     Type
  3028 ;;  endpoint        1    1[BANK5 ] unsigned char 
  3029 ;; Return value:  Size  Location     Type
  3030 ;;                  1    wreg      _Bool 
  3031 ;; Registers used:
  3032 ;;		wreg, fsr1l, fsr1h, status,2, status,0
  3033 ;; Tracked objects:
  3034 ;;		On entry : 1F/5
  3035 ;;		On exit  : 1F/5
  3036 ;;		Unchanged: 0/0
  3037 ;; Data sizes:     COMMON   BANK0   BANK1   BANK2   BANK3   BANK4   BANK5   BANK6   BANK7   BANK8   BANK9  BANK10  BANK1
      +1  BANK12
  3038 ;;      Params:         0       0       0       0       0       0       0       0       0       0       0       0       
      +0       0
  3039 ;;      Locals:         0       0       0       0       0       0       1       0       0       0       0       0       
      +0       0
  3040 ;;      Temps:          0       0       0       0       0       0       1       0       0       0       0       0       
      +0       0
  3041 ;;      Totals:         0       0       0       0       0       0       2       0       0       0       0       0       
      +0       0
  3042 ;;Total ram usage:        2 bytes
  3043 ;; Hardware stack levels used: 1
  3044 ;; Hardware stack levels required when called: 10
  3045 ;; This function calls:
  3046 ;;		Nothing
  3047 ;; This function is called by:
  3048 ;;		_main
  3049 ;; This function uses a non-reentrant model
  3050 ;;
  3051                           
  3052     1140                     _usb_out_endpoint_has_data:	
  3053                           ;psect for function _usb_out_endpoint_has_data
  3054                           
  3055                           
  3056                           ;incstack = 0
  3057                           ; Regs used in _usb_out_endpoint_has_data: [wreg+fsr1l+fsr1h+status,2+status,0]
  3058                           ;usb_out_endpoint_has_data@endpoint stored from wreg
  3059     1140  00B7               	movwf	usb_out_endpoint_has_data@endpoint^(0+640)
  3060                           
  3061                           ;../m-stack/usb/src/usb.c: 1616: _Bool usb_out_endpoint_has_data(uint8_t endpoint);../m-
      +                          stack/usb/src/usb.c: 1617: {;../m-stack/usb/src/usb.c: 1622:  return !bds[(endpoint) * 2
      +                          ].STAT.UOWN;
  3062     1141  0837               	movf	usb_out_endpoint_has_data@endpoint^(0+640),w
  3063     1142  00B6               	movwf	??_usb_out_endpoint_has_data^(0+640)
  3064     1143  3002               	movlw	2
  3065     1144                     u6295:
  3066     1144  35B6               	lslf	??_usb_out_endpoint_has_data^(0+640),f
  3067     1145  3EFF               	addlw	-1
  3068     1146  1D03               	skipz
  3069     1147  2944               	goto	u6295
  3070     1148  3536               	lslf	??_usb_out_endpoint_has_data^(0+640),w
  3071     1149  3E20               	addlw	32
  3072     114A  0086               	movwf	6
  3073     114B  0187               	clrf	7
  3074     114C  1003               	clrc
  3075     114D  1F81               	btfss	1,7
  3076     114E  1403               	setc
  3077     114F  3000               	movlw	0
  3078     1150  3D09               	addwfc	9,w
  3079     1151  0008               	return
  3080     1152                     __end_of_usb_out_endpoint_has_data:
  3081                           
  3082                           	psect	text2
  3083     1248                     __ptext2:	
  3084 ;; *************** function _usb_out_endpoint_halted *****************
  3085 ;; Defined at:
  3086 ;;		line 1672 in file "../m-stack/usb/src/usb.c"
  3087 ;; Parameters:    Size  Location     Type
  3088 ;;  endpoint        1    wreg     unsigned char 
  3089 ;; Auto vars:     Size  Location     Type
  3090 ;;  endpoint        1   10[BANK5 ] unsigned char 
  3091 ;; Return value:  Size  Location     Type
  3092 ;;                  1    wreg      _Bool 
  3093 ;; Registers used:
  3094 ;;		wreg, fsr1l, fsr1h, status,2, status,0, pclath, cstack
  3095 ;; Tracked objects:
  3096 ;;		On entry : 18/1
  3097 ;;		On exit  : 1F/5
  3098 ;;		Unchanged: 0/0
  3099 ;; Data sizes:     COMMON   BANK0   BANK1   BANK2   BANK3   BANK4   BANK5   BANK6   BANK7   BANK8   BANK9  BANK10  BANK1
      +1  BANK12
  3100 ;;      Params:         0       0       0       0       0       0       0       0       0       0       0       0       
      +0       0
  3101 ;;      Locals:         0       0       0       0       0       0       1       0       0       0       0       0       
      +0       0
  3102 ;;      Temps:          0       0       0       0       0       0       4       0       0       0       0       0       
      +0       0
  3103 ;;      Totals:         0       0       0       0       0       0       5       0       0       0       0       0       
      +0       0
  3104 ;;Total ram usage:        5 bytes
  3105 ;; Hardware stack levels used: 1
  3106 ;; Hardware stack levels required when called: 11
  3107 ;; This function calls:
  3108 ;;		___wmul
  3109 ;; This function is called by:
  3110 ;;		_main
  3111 ;; This function uses a non-reentrant model
  3112 ;;
  3113                           
  3114     1248                     _usb_out_endpoint_halted:	
  3115                           ;psect for function _usb_out_endpoint_halted
  3116                           
  3117                           
  3118                           ;incstack = 0
  3119                           ; Regs used in _usb_out_endpoint_halted: [wreg+fsr1l+fsr1h+status,2+status,0+pclath+csta
      +                          ck]
  3120                           ;usb_out_endpoint_halted@endpoint stored from wreg
  3121     1248  0025               	movlb	5	; select bank5
  3122     1249  00C0               	movwf	usb_out_endpoint_halted@endpoint^(0+640)
  3123                           
  3124                           ;../m-stack/usb/src/usb.c: 1672: _Bool usb_out_endpoint_halted(uint8_t endpoint);../m-st
      +                          ack/usb/src/usb.c: 1673: {;../m-stack/usb/src/usb.c: 1674:  return ep_buf[endpoint].flag
      +                          s & 0x1;
  3125     124A  0840               	movf	usb_out_endpoint_halted@endpoint^(0+640),w
  3126     124B  00BC               	movwf	??_usb_out_endpoint_halted^(0+640)
  3127     124C  01BD               	clrf	(??_usb_out_endpoint_halted^(0+640)+1)
  3128     124D  083C               	movf	??_usb_out_endpoint_halted^(0+640),w
  3129     124E  00B6               	movwf	___wmul@multiplier^(0+640)
  3130     124F  083D               	movf	(??_usb_out_endpoint_halted+1)^(0+640),w
  3131     1250  00B7               	movwf	(___wmul@multiplier+1)^(0+640)
  3132     1251  3007               	movlw	7
  3133     1252  00B8               	movwf	___wmul@multiplicand^(0+640)
  3134     1253  3000               	movlw	0
  3135     1254  00B9               	movwf	(___wmul@multiplicand^(0+640)+1)
  3136     1255  3192  2211         	fcall	___wmul
  3137     1257  30A6               	movlw	low (_ep_buf+6)
  3138     1258  00BE               	movwf	(??_usb_out_endpoint_halted+2)^(0+640)
  3139     1259  3003               	movlw	high (_ep_buf+6)
  3140     125A  00BF               	movwf	((??_usb_out_endpoint_halted+2)^(0+640)+1)
  3141     125B  0836               	movf	?___wmul^(0+640),w
  3142     125C  073E               	addwf	(??_usb_out_endpoint_halted+2)^(0+640),w
  3143     125D  0086               	movwf	6
  3144     125E  0837               	movf	(?___wmul+1)^(0+640),w
  3145     125F  3D3F               	addwfc	(??_usb_out_endpoint_halted+3)^(0+640),w
  3146     1260  0087               	movwf	7
  3147     1261  0801               	movf	1,w
  3148     1262  3901               	andlw	1
  3149     1263  0008               	return
  3150     1264                     __end_of_usb_out_endpoint_halted:
  3151                           
  3152                           	psect	text3
  3153     158E                     __ptext3:	
  3154 ;; *************** function _usb_init *****************
  3155 ;; Defined at:
  3156 ;;		line 561 in file "../m-stack/usb/src/usb.c"
  3157 ;; Parameters:    Size  Location     Type
  3158 ;;		None
  3159 ;; Auto vars:     Size  Location     Type
  3160 ;;  ep              2   36[BANK5 ] PTR volatile struct .
  3161 ;;		 -> UEP0(1), 
  3162 ;;  i               1   35[BANK5 ] unsigned char 
  3163 ;; Return value:  Size  Location     Type
  3164 ;;                  1    wreg      void 
  3165 ;; Registers used:
  3166 ;;		wreg, fsr0l, fsr0h, fsr1l, fsr1h, status,2, status,0, pclath, cstack
  3167 ;; Tracked objects:
  3168 ;;		On entry : B1F/7
  3169 ;;		On exit  : 1F/1
  3170 ;;		Unchanged: 0/0
  3171 ;; Data sizes:     COMMON   BANK0   BANK1   BANK2   BANK3   BANK4   BANK5   BANK6   BANK7   BANK8   BANK9  BANK10  BANK1
      +1  BANK12
  3172 ;;      Params:         0       0       0       0       0       0       0       0       0       0       0       0       
      +0       0
  3173 ;;      Locals:         0       0       0       0       0       0       3       0       0       0       0       0       
      +0       0
  3174 ;;      Temps:          0       0       0       0       0       0       2       0       0       0       0       0       
      +0       0
  3175 ;;      Totals:         0       0       0       0       0       0       5       0       0       0       0       0       
      +0       0
  3176 ;;Total ram usage:        5 bytes
  3177 ;; Hardware stack levels used: 1
  3178 ;; Hardware stack levels required when called: 13
  3179 ;; This function calls:
  3180 ;;		_init_endpoints
  3181 ;;		_memset
  3182 ;;		_reset_ep0_data_stage
  3183 ;; This function is called by:
  3184 ;;		_main
  3185 ;; This function uses a non-reentrant model
  3186 ;;
  3187                           
  3188     158E                     _usb_init:	
  3189                           ;psect for function _usb_init
  3190                           
  3191                           
  3192                           ;incstack = 0
  3193                           ; Regs used in _usb_init: [wreg-fsr1h+status,2+status,0+pclath+cstack]
  3194                           ;../m-stack/usb/src/usb.c: 563:  uint8_t i;;../m-stack/usb/src/usb.c: 567:  do { UCFGbit
      +                          s.PPB0 = 0 & 1; UCFGbits.PPB1 = (0 & 2)? 1: 0; } while (0);
  3195     158E  003D               	movlb	29	; select bank29
  3196     158F  1011               	bcf	17,0	;volatile
  3197     1590  1091               	bcf	17,1	;volatile
  3198                           
  3199                           ;../m-stack/usb/src/usb.c: 573:  UIE = 0x0;
  3200     1591  0192               	clrf	18	;volatile
  3201                           
  3202                           ;../m-stack/usb/src/usb.c: 574:  UEIE = 0x0;
  3203     1592  0197               	clrf	23	;volatile
  3204                           
  3205                           ;../m-stack/usb/src/usb.c: 576:  UCONbits.USBEN = 1;
  3206     1593  158E               	bsf	14,3	;volatile
  3207                           
  3208                           ;../m-stack/usb/src/usb.c: 584:  UCFGbits.UPUEN = 1;
  3209     1594  1611               	bsf	17,4	;volatile
  3210                           
  3211                           ;../m-stack/usb/src/usb.c: 592:  UCFGbits.FSEN = 1;
  3212     1595  1511               	bsf	17,2	;volatile
  3213                           
  3214                           ;../m-stack/usb/src/usb.c: 595:  UIRbits.TRNIF = 0;
  3215     1596  1190               	bcf	16,3	;volatile
  3216                           
  3217                           ;../m-stack/usb/src/usb.c: 596:  UIRbits.TRNIF = 0;
  3218     1597  1190               	bcf	16,3	;volatile
  3219                           
  3220                           ;../m-stack/usb/src/usb.c: 597:  UIRbits.TRNIF = 0;
  3221     1598  1190               	bcf	16,3	;volatile
  3222                           
  3223                           ;../m-stack/usb/src/usb.c: 598:  UIRbits.TRNIF = 0;
  3224     1599  1190               	bcf	16,3	;volatile
  3225                           
  3226                           ;../m-stack/usb/src/usb.c: 600:  UIR = 0;
  3227     159A  0190               	clrf	16	;volatile
  3228                           
  3229                           ;../m-stack/usb/src/usb.c: 603:  UIEbits.TRNIE = 1;
  3230     159B  1592               	bsf	18,3	;volatile
  3231                           
  3232                           ;../m-stack/usb/src/usb.c: 604:  UIEbits.STALLIE = 1;
  3233     159C  1692               	bsf	18,5	;volatile
  3234                           
  3235                           ;../m-stack/usb/src/usb.c: 605:  UIEbits.URSTIE = 1;
  3236     159D  1412               	bsf	18,0	;volatile
  3237                           
  3238                           ;../m-stack/usb/src/usb.c: 607:  UIEbits.SOFIE = 1;
  3239     159E  1712               	bsf	18,6	;volatile
  3240                           
  3241                           ;../m-stack/usb/src/usb.c: 650:  memset(((UEP1bits_t*) (&UEP0 + 1 * (0))), 0x0, sizeof(*
      +                          ((UEP1bits_t*) (&UEP0 + 1 * (0)))) * 16);
  3242     159F  3098               	movlw	152
  3243     15A0  0025               	movlb	5	; select bank5
  3244     15A1  00B6               	movwf	memset@dest^(0+640)
  3245     15A2  300E               	movlw	14
  3246     15A3  00B7               	movwf	(memset@dest^(0+640)+1)
  3247     15A4  3000               	movlw	0
  3248     15A5  00B8               	movwf	memset@c^(0+640)
  3249     15A6  00B9               	movwf	(memset@c+1)^(0+640)
  3250     15A7  3010               	movlw	16
  3251     15A8  00BA               	movwf	memset@n^(0+640)
  3252     15A9  3000               	movlw	0
  3253     15AA  00BB               	movwf	(memset@n^(0+640)+1)
  3254     15AB  3191  2190  3195   	fcall	_memset
  3255                           
  3256                           ;../m-stack/usb/src/usb.c: 653:  ((UEP1bits_t*) (&UEP0 + 1 * (0)))->EPHSHK = 1;
  3257     15AE  003D               	movlb	29	; select bank29
  3258     15AF  1618               	bsf	24,4
  3259                           
  3260                           ;../m-stack/usb/src/usb.c: 654:  ((UEP1bits_t*) (&UEP0 + 1 * (0)))->EPCONDIS = 0;
  3261     15B0  1198               	bcf	24,3
  3262                           
  3263                           ;../m-stack/usb/src/usb.c: 655:  ((UEP1bits_t*) (&UEP0 + 1 * (0)))->EPOUTEN = 1;
  3264     15B1  1518               	bsf	24,2
  3265                           
  3266                           ;../m-stack/usb/src/usb.c: 656:  ((UEP1bits_t*) (&UEP0 + 1 * (0)))->EPINEN = 1;
  3267     15B2  1498               	bsf	24,1
  3268                           
  3269                           ;../m-stack/usb/src/usb.c: 657:  ((UEP1bits_t*) (&UEP0 + 1 * (0)))->EPSTALL = 0;
  3270     15B3  1018               	bcf	24,0
  3271                           
  3272                           ;../m-stack/usb/src/usb.c: 659:  for (i = 1; i <= 4; i++) {
  3273     15B4  0025               	movlb	5	; select bank5
  3274     15B5  01D9               	clrf	usb_init@i^(0+640)
  3275     15B6  0AD9               	incf	usb_init@i^(0+640),f
  3276     15B7                     l5573:
  3277                           
  3278                           ;../m-stack/usb/src/usb.c: 660:   volatile UEP1bits_t *ep = ((UEP1bits_t*) (&UEP0 + 1 * 
      +                          (i)));
  3279     15B7  0859               	movf	usb_init@i^(0+640),w
  3280     15B8  3E98               	addlw	152
  3281     15B9  00D7               	movwf	??_usb_init^(0+640)
  3282     15BA  01D8               	clrf	(??_usb_init^(0+640)+1)
  3283     15BB  300E               	movlw	14
  3284     15BC  3DD8               	addwfc	(??_usb_init^(0+640)+1),f
  3285     15BD  0857               	movf	??_usb_init^(0+640),w
  3286     15BE  00DA               	movwf	usb_init@ep^(0+640)
  3287     15BF  0858               	movf	(??_usb_init+1)^(0+640),w
  3288     15C0  00DB               	movwf	(usb_init@ep+1)^(0+640)
  3289                           
  3290                           ;../m-stack/usb/src/usb.c: 661:   ep->EPHSHK = 1;
  3291     15C1  085A               	movf	usb_init@ep^(0+640),w
  3292     15C2  0086               	movwf	6
  3293     15C3  085B               	movf	(usb_init@ep+1)^(0+640),w
  3294     15C4  0087               	movwf	7
  3295     15C5  1601               	bsf	1,4
  3296                           
  3297                           ;../m-stack/usb/src/usb.c: 662:   ep->EPCONDIS = 1;
  3298     15C6  085A               	movf	usb_init@ep^(0+640),w
  3299     15C7  0086               	movwf	6
  3300     15C8  085B               	movf	(usb_init@ep+1)^(0+640),w
  3301     15C9  0087               	movwf	7
  3302     15CA  1581               	bsf	1,3
  3303                           
  3304                           ;../m-stack/usb/src/usb.c: 663:   ep->EPOUTEN = 1;
  3305     15CB  085A               	movf	usb_init@ep^(0+640),w
  3306     15CC  0086               	movwf	6
  3307     15CD  085B               	movf	(usb_init@ep+1)^(0+640),w
  3308     15CE  0087               	movwf	7
  3309     15CF  1501               	bsf	1,2
  3310                           
  3311                           ;../m-stack/usb/src/usb.c: 664:   ep->EPINEN = 1;
  3312     15D0  085A               	movf	usb_init@ep^(0+640),w
  3313     15D1  0086               	movwf	6
  3314     15D2  085B               	movf	(usb_init@ep+1)^(0+640),w
  3315     15D3  0087               	movwf	7
  3316     15D4  1481               	bsf	1,1
  3317                           
  3318                           ;../m-stack/usb/src/usb.c: 665:   ep->EPSTALL = 0;
  3319     15D5  085A               	movf	usb_init@ep^(0+640),w
  3320     15D6  0086               	movwf	6
  3321     15D7  085B               	movf	(usb_init@ep+1)^(0+640),w
  3322     15D8  0087               	movwf	7
  3323     15D9  1001               	bcf	1,0
  3324                           
  3325                           ;../m-stack/usb/src/usb.c: 666:  }
  3326     15DA  3001               	movlw	1
  3327     15DB  00D7               	movwf	??_usb_init^(0+640)
  3328     15DC  0857               	movf	??_usb_init^(0+640),w
  3329     15DD  07D9               	addwf	usb_init@i^(0+640),f
  3330     15DE  3005               	movlw	5
  3331     15DF  0259               	subwf	usb_init@i^(0+640),w
  3332     15E0  1C03               	skipc
  3333     15E1  2DB7               	goto	l5573
  3334                           
  3335                           ;../m-stack/usb/src/usb.c: 669:  UADDR = 0x0;
  3336     15E2  003D               	movlb	29	; select bank29
  3337     15E3  0196               	clrf	22	;volatile
  3338                           
  3339                           ;../m-stack/usb/src/usb.c: 670:  addr_pending = 0;
  3340     15E4  0026               	movlb	6	; select bank6
  3341     15E5  01B1               	clrf	_addr_pending^(0+768)
  3342                           
  3343                           ;../m-stack/usb/src/usb.c: 671:  g_configuration = 0;
  3344     15E6  0021               	movlb	1	; select bank1
  3345     15E7  01CA               	clrf	_g_configuration^(0+128)
  3346                           
  3347                           ;../m-stack/usb/src/usb.c: 673:  init_endpoints();
  3348     15E8  3186  2694  3195   	fcall	_init_endpoints
  3349                           
  3350                           ;../m-stack/usb/src/usb.c: 683:  reset_ep0_data_stage();
  3351     15EB  3190  20B6         	fcall	_reset_ep0_data_stage
  3352                           
  3353                           ;../m-stack/usb/src/usb.c: 686:  PIE2bits.USBIE = 1;
  3354     15ED  0021               	movlb	1	; select bank1
  3355     15EE  1512               	bsf	18,2	;volatile
  3356     15EF  0008               	return
  3357     15F0                     __end_of_usb_init:
  3358                           
  3359                           	psect	text4
  3360     10B6                     __ptext4:	
  3361 ;; *************** function _reset_ep0_data_stage *****************
  3362 ;; Defined at:
  3363 ;;		line 474 in file "../m-stack/usb/src/usb.c"
  3364 ;; Parameters:    Size  Location     Type
  3365 ;;		None
  3366 ;; Auto vars:     Size  Location     Type
  3367 ;;		None
  3368 ;; Return value:  Size  Location     Type
  3369 ;;                  1    wreg      void 
  3370 ;; Registers used:
  3371 ;;		status,2
  3372 ;; Tracked objects:
  3373 ;;		On entry : 1F/1D
  3374 ;;		On exit  : 1F/0
  3375 ;;		Unchanged: 0/0
  3376 ;; Data sizes:     COMMON   BANK0   BANK1   BANK2   BANK3   BANK4   BANK5   BANK6   BANK7   BANK8   BANK9  BANK10  BANK1
      +1  BANK12
  3377 ;;      Params:         0       0       0       0       0       0       0       0       0       0       0       0       
      +0       0
  3378 ;;      Locals:         0       0       0       0       0       0       0       0       0       0       0       0       
      +0       0
  3379 ;;      Temps:          0       0       0       0       0       0       0       0       0       0       0       0       
      +0       0
  3380 ;;      Totals:         0       0       0       0       0       0       0       0       0       0       0       0       
      +0       0
  3381 ;;Total ram usage:        0 bytes
  3382 ;; Hardware stack levels used: 1
  3383 ;; Hardware stack levels required when called: 10
  3384 ;; This function calls:
  3385 ;;		Nothing
  3386 ;; This function is called by:
  3387 ;;		_usb_init
  3388 ;; This function uses a non-reentrant model
  3389 ;;
  3390                           
  3391     10B6                     _reset_ep0_data_stage:	
  3392                           ;psect for function _reset_ep0_data_stage
  3393                           
  3394                           
  3395                           ;../m-stack/usb/src/usb.c: 476:  ep0_data_stage_in_buffer = ((void*)0);
  3396                           
  3397                           ;incstack = 0
  3398                           ; Regs used in _reset_ep0_data_stage: [status,2]
  3399     10B6  0026               	movlb	6	; select bank6
  3400     10B7  01A6               	clrf	_ep0_data_stage_in_buffer^(0+768)
  3401     10B8  01A7               	clrf	(_ep0_data_stage_in_buffer+1)^(0+768)
  3402                           
  3403                           ;../m-stack/usb/src/usb.c: 477:  ep0_data_stage_out_buffer = ((void*)0);
  3404     10B9  0021               	movlb	1	; select bank1
  3405     10BA  01C8               	clrf	_ep0_data_stage_out_buffer^(0+128)
  3406                           
  3407                           ;../m-stack/usb/src/usb.c: 478:  ep0_data_stage_buf_remaining = 0;
  3408     10BB  01C4               	clrf	_ep0_data_stage_buf_remaining^(0+128)
  3409     10BC  01C5               	clrf	(_ep0_data_stage_buf_remaining+1)^(0+128)
  3410                           
  3411                           ;../m-stack/usb/src/usb.c: 479:  ep0_data_stage_callback = ((void*)0);
  3412     10BD  0020               	movlb	0	; select bank0
  3413     10BE  01ED               	clrf	_ep0_data_stage_callback
  3414     10BF  01EE               	clrf	_ep0_data_stage_callback+1
  3415     10C0  0008               	return
  3416     10C1                     __end_of_reset_ep0_data_stage:
  3417                           
  3418                           	psect	text5
  3419     0694                     __ptext5:	
  3420 ;; *************** function _init_endpoints *****************
  3421 ;; Defined at:
  3422 ;;		line 495 in file "../m-stack/usb/src/usb.c"
  3423 ;; Parameters:    Size  Location     Type
  3424 ;;		None
  3425 ;; Auto vars:     Size  Location     Type
  3426 ;;  i               1   32[BANK5 ] unsigned char 
  3427 ;; Return value:  Size  Location     Type
  3428 ;;                  1    wreg      void 
  3429 ;; Registers used:
  3430 ;;		wreg, fsr0l, fsr0h, fsr1l, fsr1h, status,2, status,0, pclath, cstack
  3431 ;; Tracked objects:
  3432 ;;		On entry : 1F/1
  3433 ;;		On exit  : 1F/1D
  3434 ;;		Unchanged: 0/0
  3435 ;; Data sizes:     COMMON   BANK0   BANK1   BANK2   BANK3   BANK4   BANK5   BANK6   BANK7   BANK8   BANK9  BANK10  BANK1
      +1  BANK12
  3436 ;;      Params:         0       0       0       0       0       0       0       0       0       0       0       0       
      +0       0
  3437 ;;      Locals:         0       0       0       0       0       0       3       0       0       0       0       0       
      +0       0
  3438 ;;      Temps:          0       0       0       0       0       0       6       0       0       0       0       0       
      +0       0
  3439 ;;      Totals:         0       0       0       0       0       0       9       0       0       0       0       0       
      +0       0
  3440 ;;Total ram usage:        9 bytes
  3441 ;; Hardware stack levels used: 1
  3442 ;; Hardware stack levels required when called: 12
  3443 ;; This function calls:
  3444 ;;		___wmul
  3445 ;;		_memset
  3446 ;;		_pic16_linear_addr
  3447 ;; This function is called by:
  3448 ;;		_usb_init
  3449 ;; This function uses a non-reentrant model
  3450 ;;
  3451                           
  3452     0694                     _init_endpoints:	
  3453                           ;psect for function _init_endpoints
  3454                           
  3455                           
  3456                           ;../m-stack/usb/src/usb.c: 497:  uint8_t i;;../m-stack/usb/src/usb.c: 501:  UCONbits.PPB
      +                          RST = 1;
  3457                           
  3458                           ;incstack = 0
  3459                           ; Regs used in _init_endpoints: [wreg-fsr1h+status,2+status,0+pclath+cstack]
  3460     0694  003D               	movlb	29	; select bank29
  3461     0695  170E               	bsf	14,6	;volatile
  3462                           
  3463                           ;../m-stack/usb/src/usb.c: 503:  ep0_buf.flags = 0;
  3464     0696  0021               	movlb	1	; select bank1
  3465     0697  01CF               	clrf	(_ep0_buf^(0+128)+4)
  3466                           
  3467                           ;../m-stack/usb/src/usb.c: 504:  for (i = 0; i <= 4; i++) {
  3468     0698  0025               	movlb	5	; select bank5
  3469     0699  01D6               	clrf	init_endpoints@i^(0+640)
  3470     069A                     l5293:
  3471                           
  3472                           ;../m-stack/usb/src/usb.c: 508:   ep_buf[i].flags = 0x4;
  3473     069A  0856               	movf	init_endpoints@i^(0+640),w
  3474     069B  00CE               	movwf	??_init_endpoints^(0+640)
  3475     069C  01CF               	clrf	(??_init_endpoints^(0+640)+1)
  3476     069D  084E               	movf	??_init_endpoints^(0+640),w
  3477     069E  00B6               	movwf	___wmul@multiplier^(0+640)
  3478     069F  084F               	movf	(??_init_endpoints+1)^(0+640),w
  3479     06A0  00B7               	movwf	(___wmul@multiplier+1)^(0+640)
  3480     06A1  3007               	movlw	7
  3481     06A2  00B8               	movwf	___wmul@multiplicand^(0+640)
  3482     06A3  3000               	movlw	0
  3483     06A4  00B9               	movwf	(___wmul@multiplicand^(0+640)+1)
  3484     06A5  3192  2211  3186   	fcall	___wmul
  3485     06A8  30A6               	movlw	low (_ep_buf+6)
  3486     06A9  00D0               	movwf	(??_init_endpoints+2)^(0+640)
  3487     06AA  3003               	movlw	high (_ep_buf+6)
  3488     06AB  00D1               	movwf	((??_init_endpoints+2)^(0+640)+1)
  3489     06AC  0836               	movf	?___wmul^(0+640),w
  3490     06AD  0750               	addwf	(??_init_endpoints+2)^(0+640),w
  3491     06AE  00D2               	movwf	(??_init_endpoints+4)^(0+640)
  3492     06AF  0837               	movf	(?___wmul+1)^(0+640),w
  3493     06B0  3D51               	addwfc	(??_init_endpoints+3)^(0+640),w
  3494     06B1  00D3               	movwf	(??_init_endpoints+5)^(0+640)
  3495     06B2  0852               	movf	(??_init_endpoints+4)^(0+640),w
  3496     06B3  0086               	movwf	6
  3497     06B4  0853               	movf	(??_init_endpoints+5)^(0+640),w
  3498     06B5  0087               	movwf	7
  3499     06B6  3004               	movlw	4
  3500     06B7  0081               	movwf	1
  3501                           
  3502                           ;../m-stack/usb/src/usb.c: 510:  }
  3503     06B8  3001               	movlw	1
  3504     06B9  00CE               	movwf	??_init_endpoints^(0+640)
  3505     06BA  084E               	movf	??_init_endpoints^(0+640),w
  3506     06BB  07D6               	addwf	init_endpoints@i^(0+640),f
  3507     06BC  3005               	movlw	5
  3508     06BD  0256               	subwf	init_endpoints@i^(0+640),w
  3509     06BE  1C03               	skipc
  3510     06BF  2E9A               	goto	l5293
  3511                           
  3512                           ;../m-stack/usb/src/usb.c: 513:  memset(bds, 0x0, sizeof(bds));
  3513     06C0  3020               	movlw	32
  3514     06C1  00B6               	movwf	memset@dest^(0+640)
  3515     06C2  3000               	movlw	0
  3516     06C3  00B7               	movwf	(memset@dest+1)^(0+640)
  3517     06C4  3000               	movlw	0
  3518     06C5  00B8               	movwf	memset@c^(0+640)
  3519     06C6  00B9               	movwf	(memset@c+1)^(0+640)
  3520     06C7  3028               	movlw	40
  3521     06C8  00BA               	movwf	memset@n^(0+640)
  3522     06C9  3000               	movlw	0
  3523     06CA  00BB               	movwf	(memset@n^(0+640)+1)
  3524     06CB  3191  2190  3186   	fcall	_memset
  3525                           
  3526                           ;../m-stack/usb/src/usb.c: 517:  bds[0].BDnADR = (uint16_t) pic16_linear_addr(ep0_buf.ou
      +                          t);
  3527     06CE  0021               	movlb	1	; select bank1
  3528     06CF  084C               	movf	(_ep0_buf+1)^(0+128),w
  3529     06D0  0025               	movlb	5	; select bank5
  3530     06D1  00BD               	movwf	(pic16_linear_addr@ptr+1)^(0+640)
  3531     06D2  0021               	movlb	1	; select bank1
  3532     06D3  084B               	movf	_ep0_buf^(0+128),w
  3533     06D4  0025               	movlb	5	; select bank5
  3534     06D5  00BC               	movwf	pic16_linear_addr@ptr^(0+640)
  3535     06D6  3194  244B  3186   	fcall	_pic16_linear_addr
  3536     06D9  083D               	movf	(?_pic16_linear_addr+1)^(0+640),w
  3537     06DA  0020               	movlb	0	; select bank0
  3538     06DB  00A3               	movwf	35
  3539     06DC  0025               	movlb	5	; select bank5
  3540     06DD  083C               	movf	?_pic16_linear_addr^(0+640),w
  3541     06DE  0020               	movlb	0	; select bank0
  3542     06DF  00A2               	movwf	34
  3543     06E0  3008               	movlw	8
  3544     06E1  00A1               	movwf	33
  3545     06E2  3080               	movlw	128
  3546     06E3  00A0               	movwf	32
  3547                           
  3548                           ;../m-stack/usb/src/usb.c: 527:  bds[1].BDnADR = (uint16_t) pic16_linear_addr(ep0_buf.in
      +                          );
  3549     06E4  0021               	movlb	1	; select bank1
  3550     06E5  084E               	movf	((_ep0_buf+1)^(0+128)+2),w
  3551     06E6  0025               	movlb	5	; select bank5
  3552     06E7  00BD               	movwf	(pic16_linear_addr@ptr+1)^(0+640)
  3553     06E8  0021               	movlb	1	; select bank1
  3554     06E9  084D               	movf	(_ep0_buf^(0+128)+2),w
  3555     06EA  0025               	movlb	5	; select bank5
  3556     06EB  00BC               	movwf	pic16_linear_addr@ptr^(0+640)
  3557     06EC  3194  244B  3186   	fcall	_pic16_linear_addr
  3558     06EF  083D               	movf	(?_pic16_linear_addr+1)^(0+640),w
  3559     06F0  0020               	movlb	0	; select bank0
  3560     06F1  00A7               	movwf	39
  3561     06F2  0025               	movlb	5	; select bank5
  3562     06F3  083C               	movf	?_pic16_linear_addr^(0+640),w
  3563     06F4  0020               	movlb	0	; select bank0
  3564     06F5  00A6               	movwf	38
  3565     06F6  3008               	movlw	8
  3566     06F7  00A5               	movwf	37
  3567     06F8  01A4               	clrf	36
  3568                           
  3569                           ;../m-stack/usb/src/usb.c: 534:  for (i = 1; i <= 4; i++) {
  3570     06F9  0025               	movlb	5	; select bank5
  3571     06FA  01D6               	clrf	init_endpoints@i^(0+640)
  3572     06FB  0AD6               	incf	init_endpoints@i^(0+640),f
  3573     06FC                     l5319:
  3574                           
  3575                           ;../m-stack/usb/src/usb.c: 537:   bds[(i) * 2].BDnADR = (uint16_t) pic16_linear_addr(ep_
      +                          buf[i].out);
  3576     06FC  0856               	movf	init_endpoints@i^(0+640),w
  3577     06FD  00CE               	movwf	??_init_endpoints^(0+640)
  3578     06FE  01CF               	clrf	(??_init_endpoints^(0+640)+1)
  3579     06FF  084E               	movf	??_init_endpoints^(0+640),w
  3580     0700  00B6               	movwf	___wmul@multiplier^(0+640)
  3581     0701  084F               	movf	(??_init_endpoints+1)^(0+640),w
  3582     0702  00B7               	movwf	(___wmul@multiplier+1)^(0+640)
  3583     0703  3007               	movlw	7
  3584     0704  00B8               	movwf	___wmul@multiplicand^(0+640)
  3585     0705  3000               	movlw	0
  3586     0706  00B9               	movwf	(___wmul@multiplicand^(0+640)+1)
  3587     0707  3192  2211  3186   	fcall	___wmul
  3588     070A  30A0               	movlw	low _ep_buf
  3589     070B  00D0               	movwf	(??_init_endpoints+2)^(0+640)
  3590     070C  3003               	movlw	high _ep_buf
  3591     070D  00D1               	movwf	((??_init_endpoints+2)^(0+640)+1)
  3592     070E  0836               	movf	?___wmul^(0+640),w
  3593     070F  0750               	addwf	(??_init_endpoints+2)^(0+640),w
  3594     0710  0086               	movwf	6
  3595     0711  0837               	movf	(?___wmul+1)^(0+640),w
  3596     0712  3D51               	addwfc	(??_init_endpoints+3)^(0+640),w
  3597     0713  0087               	movwf	7
  3598     0714  3F40               	moviw [0]fsr1
  3599     0715  00D4               	movwf	_init_endpoints$2319^(0+640)
  3600     0716  3F41               	moviw [1]fsr1
  3601     0717  00D5               	movwf	(_init_endpoints$2319+1)^(0+640)
  3602                           
  3603                           ;../m-stack/usb/src/usb.c: 537:   bds[(i) * 2].BDnADR = (uint16_t) pic16_linear_addr(ep_
      +                          buf[i].out);
  3604     0718  0855               	movf	(_init_endpoints$2319+1)^(0+640),w
  3605     0719  00BD               	movwf	(pic16_linear_addr@ptr+1)^(0+640)
  3606     071A  0854               	movf	_init_endpoints$2319^(0+640),w
  3607     071B  00BC               	movwf	pic16_linear_addr@ptr^(0+640)
  3608     071C  3194  244B  3186   	fcall	_pic16_linear_addr
  3609     071F  0856               	movf	init_endpoints@i^(0+640),w
  3610     0720  00CE               	movwf	??_init_endpoints^(0+640)
  3611     0721  3002               	movlw	2
  3612     0722                     u5815:
  3613     0722  35CE               	lslf	??_init_endpoints^(0+640),f
  3614     0723  3EFF               	addlw	-1
  3615     0724  1D03               	skipz
  3616     0725  2F22               	goto	u5815
  3617     0726  354E               	lslf	??_init_endpoints^(0+640),w
  3618     0727  3E22               	addlw	34
  3619     0728  0086               	movwf	6
  3620     0729  0187               	clrf	7
  3621     072A  083C               	movf	?_pic16_linear_addr^(0+640),w
  3622     072B  3FC0               	movwi [0]fsr1
  3623     072C  083D               	movf	(?_pic16_linear_addr+1)^(0+640),w
  3624     072D  3FC1               	movwi [1]fsr1
  3625     072E  0856               	movf	init_endpoints@i^(0+640),w
  3626     072F  00CE               	movwf	??_init_endpoints^(0+640)
  3627     0730  3002               	movlw	2
  3628     0731                     u5825:
  3629     0731  35CE               	lslf	??_init_endpoints^(0+640),f
  3630     0732  3EFF               	addlw	-1
  3631     0733  1D03               	skipz
  3632     0734  2F31               	goto	u5825
  3633     0735  354E               	lslf	??_init_endpoints^(0+640),w
  3634     0736  3E21               	addlw	33
  3635     0737  0086               	movwf	6
  3636     0738  0187               	clrf	7
  3637     0739  0856               	movf	init_endpoints@i^(0+640),w
  3638     073A  00CF               	movwf	(??_init_endpoints+1)^(0+640)
  3639     073B  01D0               	clrf	((??_init_endpoints+1)^(0+640)+1)
  3640     073C  084F               	movf	(??_init_endpoints+1)^(0+640),w
  3641     073D  00B6               	movwf	___wmul@multiplier^(0+640)
  3642     073E  0850               	movf	(??_init_endpoints+2)^(0+640),w
  3643     073F  00B7               	movwf	(___wmul@multiplier+1)^(0+640)
  3644     0740  3007               	movlw	7
  3645     0741  00B8               	movwf	___wmul@multiplicand^(0+640)
  3646     0742  3000               	movlw	0
  3647     0743  00B9               	movwf	(___wmul@multiplicand^(0+640)+1)
  3648     0744  3192  2211  3186   	fcall	___wmul
  3649     0747  30A4               	movlw	low (_ep_buf+4)
  3650     0748  00D1               	movwf	(??_init_endpoints+3)^(0+640)
  3651     0749  3003               	movlw	high (_ep_buf+4)
  3652     074A  00D2               	movwf	((??_init_endpoints+3)^(0+640)+1)
  3653     074B  0836               	movf	?___wmul^(0+640),w
  3654     074C  0751               	addwf	(??_init_endpoints+3)^(0+640),w
  3655     074D  0084               	movwf	4
  3656     074E  0837               	movf	(?___wmul+1)^(0+640),w
  3657     074F  3D52               	addwfc	(??_init_endpoints+4)^(0+640),w
  3658     0750  0085               	movwf	5
  3659     0751  0800               	movf	0,w
  3660     0752  0081               	movwf	1
  3661     0753  0856               	movf	init_endpoints@i^(0+640),w
  3662     0754  00CE               	movwf	??_init_endpoints^(0+640)
  3663     0755  3002               	movlw	2
  3664     0756                     u5835:
  3665     0756  35CE               	lslf	??_init_endpoints^(0+640),f
  3666     0757  3EFF               	addlw	-1
  3667     0758  1D03               	skipz
  3668     0759  2F56               	goto	u5835
  3669     075A  354E               	lslf	??_init_endpoints^(0+640),w
  3670     075B  3E20               	addlw	32
  3671     075C  0086               	movwf	6
  3672     075D  0187               	clrf	7
  3673     075E  3088               	movlw	136
  3674     075F  0081               	movwf	1
  3675                           
  3676                           ;../m-stack/usb/src/usb.c: 546:   bds[(i) * 2 + 1].BDnADR = (uint16_t) pic16_linear_addr
      +                          (ep_buf[i].in);
  3677     0760  0856               	movf	init_endpoints@i^(0+640),w
  3678     0761  00CE               	movwf	??_init_endpoints^(0+640)
  3679     0762  01CF               	clrf	(??_init_endpoints^(0+640)+1)
  3680     0763  084E               	movf	??_init_endpoints^(0+640),w
  3681     0764  00B6               	movwf	___wmul@multiplier^(0+640)
  3682     0765  084F               	movf	(??_init_endpoints+1)^(0+640),w
  3683     0766  00B7               	movwf	(___wmul@multiplier+1)^(0+640)
  3684     0767  3007               	movlw	7
  3685     0768  00B8               	movwf	___wmul@multiplicand^(0+640)
  3686     0769  3000               	movlw	0
  3687     076A  00B9               	movwf	(___wmul@multiplicand^(0+640)+1)
  3688     076B  3192  2211  3186   	fcall	___wmul
  3689     076E  30A2               	movlw	low (_ep_buf+2)
  3690     076F  00D0               	movwf	(??_init_endpoints+2)^(0+640)
  3691     0770  3003               	movlw	high (_ep_buf+2)
  3692     0771  00D1               	movwf	((??_init_endpoints+2)^(0+640)+1)
  3693     0772  0836               	movf	?___wmul^(0+640),w
  3694     0773  0750               	addwf	(??_init_endpoints+2)^(0+640),w
  3695     0774  0086               	movwf	6
  3696     0775  0837               	movf	(?___wmul+1)^(0+640),w
  3697     0776  3D51               	addwfc	(??_init_endpoints+3)^(0+640),w
  3698     0777  0087               	movwf	7
  3699     0778  3F40               	moviw [0]fsr1
  3700     0779  00D4               	movwf	_init_endpoints$2319^(0+640)
  3701     077A  3F41               	moviw [1]fsr1
  3702     077B  00D5               	movwf	(_init_endpoints$2319+1)^(0+640)
  3703                           
  3704                           ;../m-stack/usb/src/usb.c: 546:   bds[(i) * 2 + 1].BDnADR = (uint16_t) pic16_linear_addr
      +                          (ep_buf[i].in);
  3705     077C  0855               	movf	(_init_endpoints$2319+1)^(0+640),w
  3706     077D  00BD               	movwf	(pic16_linear_addr@ptr+1)^(0+640)
  3707     077E  0854               	movf	_init_endpoints$2319^(0+640),w
  3708     077F  00BC               	movwf	pic16_linear_addr@ptr^(0+640)
  3709     0780  3194  244B  3186   	fcall	_pic16_linear_addr
  3710     0783  0856               	movf	init_endpoints@i^(0+640),w
  3711     0784  00CE               	movwf	??_init_endpoints^(0+640)
  3712     0785  3002               	movlw	2
  3713     0786                     u5845:
  3714     0786  35CE               	lslf	??_init_endpoints^(0+640),f
  3715     0787  3EFF               	addlw	-1
  3716     0788  1D03               	skipz
  3717     0789  2F86               	goto	u5845
  3718     078A  354E               	lslf	??_init_endpoints^(0+640),w
  3719     078B  3E26               	addlw	38
  3720     078C  0086               	movwf	6
  3721     078D  0187               	clrf	7
  3722     078E  083C               	movf	?_pic16_linear_addr^(0+640),w
  3723     078F  3FC0               	movwi [0]fsr1
  3724     0790  083D               	movf	(?_pic16_linear_addr+1)^(0+640),w
  3725     0791  3FC1               	movwi [1]fsr1
  3726     0792  0856               	movf	init_endpoints@i^(0+640),w
  3727     0793  00CE               	movwf	??_init_endpoints^(0+640)
  3728     0794  3002               	movlw	2
  3729     0795                     u5855:
  3730     0795  35CE               	lslf	??_init_endpoints^(0+640),f
  3731     0796  3EFF               	addlw	-1
  3732     0797  1D03               	skipz
  3733     0798  2F95               	goto	u5855
  3734     0799  354E               	lslf	??_init_endpoints^(0+640),w
  3735     079A  3E25               	addlw	37
  3736     079B  0086               	movwf	6
  3737     079C  0187               	clrf	7
  3738     079D  0856               	movf	init_endpoints@i^(0+640),w
  3739     079E  00CF               	movwf	(??_init_endpoints+1)^(0+640)
  3740     079F  01D0               	clrf	((??_init_endpoints+1)^(0+640)+1)
  3741     07A0  084F               	movf	(??_init_endpoints+1)^(0+640),w
  3742     07A1  00B6               	movwf	___wmul@multiplier^(0+640)
  3743     07A2  0850               	movf	(??_init_endpoints+2)^(0+640),w
  3744     07A3  00B7               	movwf	(___wmul@multiplier+1)^(0+640)
  3745     07A4  3007               	movlw	7
  3746     07A5  00B8               	movwf	___wmul@multiplicand^(0+640)
  3747     07A6  3000               	movlw	0
  3748     07A7  00B9               	movwf	(___wmul@multiplicand^(0+640)+1)
  3749     07A8  3192  2211  3186   	fcall	___wmul
  3750     07AB  30A5               	movlw	low (_ep_buf+5)
  3751     07AC  00D1               	movwf	(??_init_endpoints+3)^(0+640)
  3752     07AD  3003               	movlw	high (_ep_buf+5)
  3753     07AE  00D2               	movwf	((??_init_endpoints+3)^(0+640)+1)
  3754     07AF  0836               	movf	?___wmul^(0+640),w
  3755     07B0  0751               	addwf	(??_init_endpoints+3)^(0+640),w
  3756     07B1  0084               	movwf	4
  3757     07B2  0837               	movf	(?___wmul+1)^(0+640),w
  3758     07B3  3D52               	addwfc	(??_init_endpoints+4)^(0+640),w
  3759     07B4  0085               	movwf	5
  3760     07B5  0800               	movf	0,w
  3761     07B6  0081               	movwf	1
  3762     07B7  0856               	movf	init_endpoints@i^(0+640),w
  3763     07B8  00CE               	movwf	??_init_endpoints^(0+640)
  3764     07B9  3002               	movlw	2
  3765     07BA                     u5865:
  3766     07BA  35CE               	lslf	??_init_endpoints^(0+640),f
  3767     07BB  3EFF               	addlw	-1
  3768     07BC  1D03               	skipz
  3769     07BD  2FBA               	goto	u5865
  3770     07BE  354E               	lslf	??_init_endpoints^(0+640),w
  3771     07BF  3E24               	addlw	36
  3772     07C0  0086               	movwf	6
  3773     07C1  0187               	clrf	7
  3774     07C2  0181               	clrf	1
  3775                           
  3776                           ;../m-stack/usb/src/usb.c: 553:  }
  3777     07C3  3001               	movlw	1
  3778     07C4  00CE               	movwf	??_init_endpoints^(0+640)
  3779     07C5  084E               	movf	??_init_endpoints^(0+640),w
  3780     07C6  07D6               	addwf	init_endpoints@i^(0+640),f
  3781     07C7  3005               	movlw	5
  3782     07C8  0256               	subwf	init_endpoints@i^(0+640),w
  3783     07C9  1C03               	skipc
  3784     07CA  2EFC               	goto	l5319
  3785                           
  3786                           ;../m-stack/usb/src/usb.c: 555:  UCONbits.PPBRST = 0;
  3787     07CB  003D               	movlb	29	; select bank29
  3788     07CC  130E               	bcf	14,6	;volatile
  3789     07CD  0008               	return
  3790     07CE                     __end_of_init_endpoints:
  3791                           
  3792                           	psect	text6
  3793     144B                     __ptext6:	
  3794 ;; *************** function _pic16_linear_addr *****************
  3795 ;; Defined at:
  3796 ;;		line 456 in file "../m-stack/usb/src/usb.c"
  3797 ;; Parameters:    Size  Location     Type
  3798 ;;  ptr             2    6[BANK5 ] PTR void 
  3799 ;;		 -> NULL(0), ep_buffers(294), 
  3800 ;; Auto vars:     Size  Location     Type
  3801 ;;  addr            2   22[BANK5 ] unsigned short 
  3802 ;;  low             1   21[BANK5 ] unsigned char 
  3803 ;;  high            1   20[BANK5 ] unsigned char 
  3804 ;; Return value:  Size  Location     Type
  3805 ;;                  2    6[BANK5 ] unsigned short 
  3806 ;; Registers used:
  3807 ;;		wreg, status,2, status,0, pclath, cstack
  3808 ;; Tracked objects:
  3809 ;;		On entry : 1F/5
  3810 ;;		On exit  : 1F/5
  3811 ;;		Unchanged: 0/0
  3812 ;; Data sizes:     COMMON   BANK0   BANK1   BANK2   BANK3   BANK4   BANK5   BANK6   BANK7   BANK8   BANK9  BANK10  BANK1
      +1  BANK12
  3813 ;;      Params:         0       0       0       0       0       0       2       0       0       0       0       0       
      +0       0
  3814 ;;      Locals:         0       0       0       0       0       0       4       0       0       0       0       0       
      +0       0
  3815 ;;      Temps:          0       0       0       0       0       0      12       0       0       0       0       0       
      +0       0
  3816 ;;      Totals:         0       0       0       0       0       0      18       0       0       0       0       0       
      +0       0
  3817 ;;Total ram usage:       18 bytes
  3818 ;; Hardware stack levels used: 1
  3819 ;; Hardware stack levels required when called: 11
  3820 ;; This function calls:
  3821 ;;		___wmul
  3822 ;; This function is called by:
  3823 ;;		_init_endpoints
  3824 ;; This function uses a non-reentrant model
  3825 ;;
  3826                           
  3827     144B                     _pic16_linear_addr:	
  3828                           ;psect for function _pic16_linear_addr
  3829                           
  3830                           
  3831                           ;../m-stack/usb/src/usb.c: 456: static uint16_t pic16_linear_addr(void *ptr);../m-stack/
      +                          usb/src/usb.c: 457: {;../m-stack/usb/src/usb.c: 458:  uint8_t high, low;;../m-stack/usb/
      +                          src/usb.c: 459:  uint16_t addr = (uint16_t) ptr;
  3832                           
  3833                           ;incstack = 0
  3834                           ; Regs used in _pic16_linear_addr: [wreg+status,2+status,0+pclath+cstack]
  3835     144B  083D               	movf	(pic16_linear_addr@ptr+1)^(0+640),w
  3836     144C  00CD               	movwf	(pic16_linear_addr@addr+1)^(0+640)
  3837     144D  083C               	movf	pic16_linear_addr@ptr^(0+640),w
  3838     144E  00CC               	movwf	pic16_linear_addr@addr^(0+640)
  3839                           
  3840                           ;../m-stack/usb/src/usb.c: 462:  if (addr >= 0x2000)
  3841     144F  3020               	movlw	32
  3842     1450  024D               	subwf	(pic16_linear_addr@addr+1)^(0+640),w
  3843     1451  3000               	movlw	0
  3844     1452  1903               	skipnz
  3845     1453  024C               	subwf	pic16_linear_addr@addr^(0+640),w
  3846     1454  1C03               	skipc
  3847     1455  2C5B               	goto	l5237
  3848                           
  3849                           ;../m-stack/usb/src/usb.c: 463:   return addr;
  3850     1456  084D               	movf	(pic16_linear_addr@addr+1)^(0+640),w
  3851     1457  00BD               	movwf	(?_pic16_linear_addr+1)^(0+640)
  3852     1458  084C               	movf	pic16_linear_addr@addr^(0+640),w
  3853     1459  00BC               	movwf	?_pic16_linear_addr^(0+640)
  3854     145A  0008               	return
  3855     145B                     l5237:
  3856                           
  3857                           ;../m-stack/usb/src/usb.c: 465:  high = (addr & 0xff00) >> 8;
  3858     145B  084D               	movf	(pic16_linear_addr@addr^(0+640)+1),w
  3859     145C  00CA               	movwf	pic16_linear_addr@high^(0+640)
  3860                           
  3861                           ;../m-stack/usb/src/usb.c: 466:  low = addr & 0x00ff;
  3862     145D  084C               	movf	pic16_linear_addr@addr^(0+640),w
  3863     145E  00CB               	movwf	pic16_linear_addr@low^(0+640)
  3864                           
  3865                           ;../m-stack/usb/src/usb.c: 468:  return 0x2000 +
  3866     145F  084B               	movf	pic16_linear_addr@low^(0+640),w
  3867     1460  397F               	andlw	127
  3868     1461  00BE               	movwf	??_pic16_linear_addr^(0+640)
  3869     1462  01BF               	clrf	(??_pic16_linear_addr^(0+640)+1)
  3870     1463  084B               	movf	pic16_linear_addr@low^(0+640),w
  3871     1464  3980               	andlw	128
  3872     1465  00C0               	movwf	(??_pic16_linear_addr+2)^(0+640)
  3873     1466  01C1               	clrf	((??_pic16_linear_addr+2)^(0+640)+1)
  3874     1467  084A               	movf	pic16_linear_addr@high^(0+640),w
  3875     1468  00C2               	movwf	(??_pic16_linear_addr+4)^(0+640)
  3876     1469  01C3               	clrf	((??_pic16_linear_addr+4)^(0+640)+1)
  3877     146A  35C2               	lslf	(??_pic16_linear_addr+4)^(0+640),f
  3878     146B  0DC3               	rlf	((??_pic16_linear_addr+4)^(0+640)+1),f
  3879     146C  0840               	movf	(??_pic16_linear_addr+2)^(0+640),w
  3880     146D  0742               	addwf	(??_pic16_linear_addr+4)^(0+640),w
  3881     146E  00C4               	movwf	(??_pic16_linear_addr+6)^(0+640)
  3882     146F  0841               	movf	(??_pic16_linear_addr+3)^(0+640),w
  3883     1470  3D43               	addwfc	(??_pic16_linear_addr+5)^(0+640),w
  3884     1471  00C5               	movwf	(??_pic16_linear_addr+7)^(0+640)
  3885     1472  0844               	movf	(??_pic16_linear_addr+6)^(0+640),w
  3886     1473  0445               	iorwf	((??_pic16_linear_addr+6)^(0+640)+1),w
  3887     1474  1903               	btfsc	3,2
  3888     1475  2C78               	goto	u5710
  3889     1476  3001               	movlw	1
  3890     1477  2C79               	goto	u5720
  3891     1478                     u5710:
  3892     1478  3000               	movlw	0
  3893     1479                     u5720:
  3894     1479  00C6               	movwf	(??_pic16_linear_addr+8)^(0+640)
  3895     147A  01C7               	clrf	((??_pic16_linear_addr+8)^(0+640)+1)
  3896     147B  0846               	movf	(??_pic16_linear_addr+8)^(0+640),w
  3897     147C  00B6               	movwf	___wmul@multiplier^(0+640)
  3898     147D  0847               	movf	(??_pic16_linear_addr+9)^(0+640),w
  3899     147E  00B7               	movwf	(___wmul@multiplier+1)^(0+640)
  3900     147F  3050               	movlw	80
  3901     1480  00B8               	movwf	___wmul@multiplicand^(0+640)
  3902     1481  3000               	movlw	0
  3903     1482  00B9               	movwf	(___wmul@multiplicand^(0+640)+1)
  3904     1483  3192  2211         	fcall	___wmul
  3905     1485  083E               	movf	??_pic16_linear_addr^(0+640),w
  3906     1486  0736               	addwf	?___wmul^(0+640),w
  3907     1487  00C8               	movwf	(??_pic16_linear_addr+10)^(0+640)
  3908     1488  083F               	movf	(??_pic16_linear_addr+1)^(0+640),w
  3909     1489  3D37               	addwfc	(?___wmul+1)^(0+640),w
  3910     148A  00C9               	movwf	(??_pic16_linear_addr+11)^(0+640)
  3911     148B  0848               	movf	(??_pic16_linear_addr+10)^(0+640),w
  3912     148C  3EE0               	addlw	224
  3913     148D  00BC               	movwf	?_pic16_linear_addr^(0+640)
  3914     148E  301F               	movlw	31
  3915     148F  3D49               	addwfc	(??_pic16_linear_addr+11)^(0+640),w
  3916     1490  00BD               	movwf	(?_pic16_linear_addr+1)^(0+640)
  3917     1491  0008               	return
  3918     1492                     __end_of_pic16_linear_addr:
  3919                           
  3920                           	psect	text7
  3921     07CE                     __ptext7:	
  3922 ;; *************** function _usb_get_out_buffer *****************
  3923 ;; Defined at:
  3924 ;;		line 1599 in file "../m-stack/usb/src/usb.c"
  3925 ;; Parameters:    Size  Location     Type
  3926 ;;  endpoint        1    wreg     unsigned char 
  3927 ;;  buf             2    6[BANK5 ] PTR PTR const unsigned c
  3928 ;;		 -> uart_tx_buf(2), main@out_buf(2), 
  3929 ;; Auto vars:     Size  Location     Type
  3930 ;;  endpoint        1   12[BANK5 ] unsigned char 
  3931 ;; Return value:  Size  Location     Type
  3932 ;;                  1    wreg      unsigned char 
  3933 ;; Registers used:
  3934 ;;		wreg, fsr0l, fsr0h, fsr1l, fsr1h, status,2, status,0, pclath, cstack
  3935 ;; Tracked objects:
  3936 ;;		On entry : 1F/5
  3937 ;;		On exit  : 1F/5
  3938 ;;		Unchanged: 0/0
  3939 ;; Data sizes:     COMMON   BANK0   BANK1   BANK2   BANK3   BANK4   BANK5   BANK6   BANK7   BANK8   BANK9  BANK10  BANK1
      +1  BANK12
  3940 ;;      Params:         0       0       0       0       0       0       2       0       0       0       0       0       
      +0       0
  3941 ;;      Locals:         0       0       0       0       0       0       1       0       0       0       0       0       
      +0       0
  3942 ;;      Temps:          0       0       0       0       0       0       4       0       0       0       0       0       
      +0       0
  3943 ;;      Totals:         0       0       0       0       0       0       7       0       0       0       0       0       
      +0       0
  3944 ;;Total ram usage:        7 bytes
  3945 ;; Hardware stack levels used: 1
  3946 ;; Hardware stack levels required when called: 11
  3947 ;; This function calls:
  3948 ;;		___wmul
  3949 ;; This function is called by:
  3950 ;;		_main
  3951 ;; This function uses a non-reentrant model
  3952 ;;
  3953                           
  3954     07CE                     _usb_get_out_buffer:	
  3955                           ;psect for function _usb_get_out_buffer
  3956                           
  3957                           
  3958                           ;incstack = 0
  3959                           ; Regs used in _usb_get_out_buffer: [wreg-fsr1h+status,2+status,0+pclath+cstack]
  3960                           ;usb_get_out_buffer@endpoint stored from wreg
  3961     07CE  00C2               	movwf	usb_get_out_buffer@endpoint^(0+640)
  3962                           
  3963                           ;../m-stack/usb/src/usb.c: 1599: uint8_t usb_get_out_buffer(uint8_t endpoint, const unsi
      +                          gned char **buf);../m-stack/usb/src/usb.c: 1600: {;../m-stack/usb/src/usb.c: 1611:  *buf
      +                           = ep_buf[endpoint].out;
  3964     07CF  0842               	movf	usb_get_out_buffer@endpoint^(0+640),w
  3965     07D0  00BE               	movwf	??_usb_get_out_buffer^(0+640)
  3966     07D1  01BF               	clrf	(??_usb_get_out_buffer^(0+640)+1)
  3967     07D2  083E               	movf	??_usb_get_out_buffer^(0+640),w
  3968     07D3  00B6               	movwf	___wmul@multiplier^(0+640)
  3969     07D4  083F               	movf	(??_usb_get_out_buffer+1)^(0+640),w
  3970     07D5  00B7               	movwf	(___wmul@multiplier+1)^(0+640)
  3971     07D6  3007               	movlw	7
  3972     07D7  00B8               	movwf	___wmul@multiplicand^(0+640)
  3973     07D8  3000               	movlw	0
  3974     07D9  00B9               	movwf	(___wmul@multiplicand^(0+640)+1)
  3975     07DA  3192  2211  3187   	fcall	___wmul
  3976     07DD  30A0               	movlw	low _ep_buf
  3977     07DE  00C0               	movwf	(??_usb_get_out_buffer+2)^(0+640)
  3978     07DF  3003               	movlw	high _ep_buf
  3979     07E0  00C1               	movwf	((??_usb_get_out_buffer+2)^(0+640)+1)
  3980     07E1  0836               	movf	?___wmul^(0+640),w
  3981     07E2  0740               	addwf	(??_usb_get_out_buffer+2)^(0+640),w
  3982     07E3  0086               	movwf	6
  3983     07E4  0837               	movf	(?___wmul+1)^(0+640),w
  3984     07E5  3D41               	addwfc	(??_usb_get_out_buffer+3)^(0+640),w
  3985     07E6  0087               	movwf	7
  3986     07E7  083C               	movf	usb_get_out_buffer@buf^(0+640),w
  3987     07E8  0084               	movwf	4
  3988     07E9  083D               	movf	(usb_get_out_buffer@buf+1)^(0+640),w
  3989     07EA  0085               	movwf	5
  3990     07EB  3F40               	moviw [0]fsr1
  3991     07EC  3F80               	movwi [0]fsr0
  3992     07ED  3F41               	moviw [1]fsr1
  3993     07EE  3F81               	movwi [1]fsr0
  3994                           
  3995                           ;../m-stack/usb/src/usb.c: 1612:  return (bds[(endpoint) * 2].BDnCNT);
  3996     07EF  0842               	movf	usb_get_out_buffer@endpoint^(0+640),w
  3997     07F0  00BE               	movwf	??_usb_get_out_buffer^(0+640)
  3998     07F1  3002               	movlw	2
  3999     07F2                     u6585:
  4000     07F2  35BE               	lslf	??_usb_get_out_buffer^(0+640),f
  4001     07F3  3EFF               	addlw	-1
  4002     07F4  1D03               	skipz
  4003     07F5  2FF2               	goto	u6585
  4004     07F6  353E               	lslf	??_usb_get_out_buffer^(0+640),w
  4005     07F7  3E21               	addlw	33
  4006     07F8  0086               	movwf	6
  4007     07F9  0187               	clrf	7
  4008     07FA  0801               	movf	1,w
  4009     07FB  0008               	return
  4010     07FC                     __end_of_usb_get_out_buffer:
  4011                           
  4012                           	psect	text8
  4013     07FC                     __ptext8:	
  4014 ;; *************** function _usb_get_configuration *****************
  4015 ;; Defined at:
  4016 ;;		line 1514 in file "../m-stack/usb/src/usb.c"
  4017 ;; Parameters:    Size  Location     Type
  4018 ;;		None
  4019 ;; Auto vars:     Size  Location     Type
  4020 ;;		None
  4021 ;; Return value:  Size  Location     Type
  4022 ;;                  1    wreg      unsigned char 
  4023 ;; Registers used:
  4024 ;;		wreg
  4025 ;; Tracked objects:
  4026 ;;		On entry : 1F/2
  4027 ;;		On exit  : 1F/1
  4028 ;;		Unchanged: 0/0
  4029 ;; Data sizes:     COMMON   BANK0   BANK1   BANK2   BANK3   BANK4   BANK5   BANK6   BANK7   BANK8   BANK9  BANK10  BANK1
      +1  BANK12
  4030 ;;      Params:         0       0       0       0       0       0       0       0       0       0       0       0       
      +0       0
  4031 ;;      Locals:         0       0       0       0       0       0       0       0       0       0       0       0       
      +0       0
  4032 ;;      Temps:          0       0       0       0       0       0       0       0       0       0       0       0       
      +0       0
  4033 ;;      Totals:         0       0       0       0       0       0       0       0       0       0       0       0       
      +0       0
  4034 ;;Total ram usage:        0 bytes
  4035 ;; Hardware stack levels used: 1
  4036 ;; Hardware stack levels required when called: 10
  4037 ;; This function calls:
  4038 ;;		Nothing
  4039 ;; This function is called by:
  4040 ;;		_main
  4041 ;; This function uses a non-reentrant model
  4042 ;;
  4043                           
  4044     07FC                     _usb_get_configuration:	
  4045                           ;psect for function _usb_get_configuration
  4046                           
  4047                           
  4048                           ;../m-stack/usb/src/usb.c: 1516:  return g_configuration;
  4049                           
  4050                           ;incstack = 0
  4051                           ; Regs used in _usb_get_configuration: [wreg]
  4052     07FC  0021               	movlb	1	; select bank1
  4053     07FD  084A               	movf	_g_configuration^(0+128),w
  4054     07FE  0008               	return
  4055     07FF                     __end_of_usb_get_configuration:
  4056                           
  4057                           	psect	text9
  4058     0814                     __ptext9:	
  4059 ;; *************** function _usb_arm_out_endpoint *****************
  4060 ;; Defined at:
  4061 ;;		line 1626 in file "../m-stack/usb/src/usb.c"
  4062 ;; Parameters:    Size  Location     Type
  4063 ;;  endpoint        1    wreg     unsigned char 
  4064 ;; Auto vars:     Size  Location     Type
  4065 ;;  endpoint        1   12[BANK5 ] unsigned char 
  4066 ;;  pid             1   11[BANK5 ] unsigned char 
  4067 ;; Return value:  Size  Location     Type
  4068 ;;                  1    wreg      void 
  4069 ;; Registers used:
  4070 ;;		wreg, fsr0l, fsr0h, fsr1l, fsr1h, status,2, status,0, pclath, cstack
  4071 ;; Tracked objects:
  4072 ;;		On entry : 1F/6
  4073 ;;		On exit  : 1F/5
  4074 ;;		Unchanged: 0/0
  4075 ;; Data sizes:     COMMON   BANK0   BANK1   BANK2   BANK3   BANK4   BANK5   BANK6   BANK7   BANK8   BANK9  BANK10  BANK1
      +1  BANK12
  4076 ;;      Params:         0       0       0       0       0       0       0       0       0       0       0       0       
      +0       0
  4077 ;;      Locals:         0       0       0       0       0       0       2       0       0       0       0       0       
      +0       0
  4078 ;;      Temps:          0       0       0       0       0       0       5       0       0       0       0       0       
      +0       0
  4079 ;;      Totals:         0       0       0       0       0       0       7       0       0       0       0       0       
      +0       0
  4080 ;;Total ram usage:        7 bytes
  4081 ;; Hardware stack levels used: 1
  4082 ;; Hardware stack levels required when called: 11
  4083 ;; This function calls:
  4084 ;;		___wmul
  4085 ;; This function is called by:
  4086 ;;		_main
  4087 ;; This function uses a non-reentrant model
  4088 ;;
  4089                           
  4090     0814                     _usb_arm_out_endpoint:	
  4091                           ;psect for function _usb_arm_out_endpoint
  4092                           
  4093                           
  4094                           ;incstack = 0
  4095                           ; Regs used in _usb_arm_out_endpoint: [wreg-fsr1h+status,2+status,0+pclath+cstack]
  4096                           ;usb_arm_out_endpoint@endpoint stored from wreg
  4097     0814  0025               	movlb	5	; select bank5
  4098     0815  00C2               	movwf	usb_arm_out_endpoint@endpoint^(0+640)
  4099                           
  4100                           ;../m-stack/usb/src/usb.c: 1626: void usb_arm_out_endpoint(uint8_t endpoint);../m-stack/
      +                          usb/src/usb.c: 1627: {;../m-stack/usb/src/usb.c: 1646:  uint8_t pid = (ep_buf[endpoint].
      +                          flags & 0x4)? 1: 0;
  4101     0816  0842               	movf	usb_arm_out_endpoint@endpoint^(0+640),w
  4102     0817  00BC               	movwf	??_usb_arm_out_endpoint^(0+640)
  4103     0818  01BD               	clrf	(??_usb_arm_out_endpoint^(0+640)+1)
  4104     0819  083C               	movf	??_usb_arm_out_endpoint^(0+640),w
  4105     081A  00B6               	movwf	___wmul@multiplier^(0+640)
  4106     081B  083D               	movf	(??_usb_arm_out_endpoint+1)^(0+640),w
  4107     081C  00B7               	movwf	(___wmul@multiplier+1)^(0+640)
  4108     081D  3007               	movlw	7
  4109     081E  00B8               	movwf	___wmul@multiplicand^(0+640)
  4110     081F  3000               	movlw	0
  4111     0820  00B9               	movwf	(___wmul@multiplicand^(0+640)+1)
  4112     0821  3192  2211  3188   	fcall	___wmul
  4113     0824  30A6               	movlw	low (_ep_buf+6)
  4114     0825  00BE               	movwf	(??_usb_arm_out_endpoint+2)^(0+640)
  4115     0826  3003               	movlw	high (_ep_buf+6)
  4116     0827  00BF               	movwf	((??_usb_arm_out_endpoint+2)^(0+640)+1)
  4117     0828  0836               	movf	?___wmul^(0+640),w
  4118     0829  073E               	addwf	(??_usb_arm_out_endpoint+2)^(0+640),w
  4119     082A  0086               	movwf	6
  4120     082B  0837               	movf	(?___wmul+1)^(0+640),w
  4121     082C  3D3F               	addwfc	(??_usb_arm_out_endpoint+3)^(0+640),w
  4122     082D  0087               	movwf	7
  4123     082E  1D01               	btfss	1,2
  4124     082F  2832               	goto	u6300
  4125     0830  3001               	movlw	1
  4126     0831  2833               	goto	u6310
  4127     0832                     u6300:
  4128     0832  3000               	movlw	0
  4129     0833                     u6310:
  4130     0833  00C1               	movwf	usb_arm_out_endpoint@pid^(0+640)
  4131                           
  4132                           ;../m-stack/usb/src/usb.c: 1647:  if (pid)
  4133     0834  0841               	movf	usb_arm_out_endpoint@pid^(0+640),w
  4134     0835  1903               	btfsc	3,2
  4135     0836  2869               	goto	l5619
  4136     0837  0842               	movf	usb_arm_out_endpoint@endpoint^(0+640),w
  4137     0838  00BC               	movwf	??_usb_arm_out_endpoint^(0+640)
  4138     0839  3002               	movlw	2
  4139     083A                     u6335:
  4140     083A  35BC               	lslf	??_usb_arm_out_endpoint^(0+640),f
  4141     083B  3EFF               	addlw	-1
  4142     083C  1D03               	skipz
  4143     083D  283A               	goto	u6335
  4144     083E  353C               	lslf	??_usb_arm_out_endpoint^(0+640),w
  4145     083F  3E21               	addlw	33
  4146     0840  0086               	movwf	6
  4147     0841  0187               	clrf	7
  4148     0842  0842               	movf	usb_arm_out_endpoint@endpoint^(0+640),w
  4149     0843  00BD               	movwf	(??_usb_arm_out_endpoint+1)^(0+640)
  4150     0844  01BE               	clrf	((??_usb_arm_out_endpoint+1)^(0+640)+1)
  4151     0845  083D               	movf	(??_usb_arm_out_endpoint+1)^(0+640),w
  4152     0846  00B6               	movwf	___wmul@multiplier^(0+640)
  4153     0847  083E               	movf	(??_usb_arm_out_endpoint+2)^(0+640),w
  4154     0848  00B7               	movwf	(___wmul@multiplier+1)^(0+640)
  4155     0849  3007               	movlw	7
  4156     084A  00B8               	movwf	___wmul@multiplicand^(0+640)
  4157     084B  3000               	movlw	0
  4158     084C  00B9               	movwf	(___wmul@multiplicand^(0+640)+1)
  4159     084D  3192  2211  3188   	fcall	___wmul
  4160     0850  30A4               	movlw	low (_ep_buf+4)
  4161     0851  00BF               	movwf	(??_usb_arm_out_endpoint+3)^(0+640)
  4162     0852  3003               	movlw	high (_ep_buf+4)
  4163     0853  00C0               	movwf	((??_usb_arm_out_endpoint+3)^(0+640)+1)
  4164     0854  0836               	movf	?___wmul^(0+640),w
  4165     0855  073F               	addwf	(??_usb_arm_out_endpoint+3)^(0+640),w
  4166     0856  0084               	movwf	4
  4167     0857  0837               	movf	(?___wmul+1)^(0+640),w
  4168     0858  3D40               	addwfc	(??_usb_arm_out_endpoint+4)^(0+640),w
  4169     0859  0085               	movwf	5
  4170     085A  0800               	movf	0,w
  4171     085B  0081               	movwf	1
  4172     085C  0842               	movf	usb_arm_out_endpoint@endpoint^(0+640),w
  4173     085D  00BC               	movwf	??_usb_arm_out_endpoint^(0+640)
  4174     085E  3002               	movlw	2
  4175     085F                     u6345:
  4176     085F  35BC               	lslf	??_usb_arm_out_endpoint^(0+640),f
  4177     0860  3EFF               	addlw	-1
  4178     0861  1D03               	skipz
  4179     0862  285F               	goto	u6345
  4180     0863  353C               	lslf	??_usb_arm_out_endpoint^(0+640),w
  4181     0864  3E20               	addlw	32
  4182     0865  0086               	movwf	6
  4183     0866  0187               	clrf	7
  4184     0867  30C8               	movlw	200
  4185     0868  289A               	goto	L1
  4186     0869                     l5619:
  4187     0869  0842               	movf	usb_arm_out_endpoint@endpoint^(0+640),w
  4188     086A  00BC               	movwf	??_usb_arm_out_endpoint^(0+640)
  4189     086B  3002               	movlw	2
  4190     086C                     u6355:
  4191     086C  35BC               	lslf	??_usb_arm_out_endpoint^(0+640),f
  4192     086D  3EFF               	addlw	-1
  4193     086E  1D03               	skipz
  4194     086F  286C               	goto	u6355
  4195     0870  353C               	lslf	??_usb_arm_out_endpoint^(0+640),w
  4196     0871  3E21               	addlw	33
  4197     0872  0086               	movwf	6
  4198     0873  0187               	clrf	7
  4199     0874  0842               	movf	usb_arm_out_endpoint@endpoint^(0+640),w
  4200     0875  00BD               	movwf	(??_usb_arm_out_endpoint+1)^(0+640)
  4201     0876  01BE               	clrf	((??_usb_arm_out_endpoint+1)^(0+640)+1)
  4202     0877  083D               	movf	(??_usb_arm_out_endpoint+1)^(0+640),w
  4203     0878  00B6               	movwf	___wmul@multiplier^(0+640)
  4204     0879  083E               	movf	(??_usb_arm_out_endpoint+2)^(0+640),w
  4205     087A  00B7               	movwf	(___wmul@multiplier+1)^(0+640)
  4206     087B  3007               	movlw	7
  4207     087C  00B8               	movwf	___wmul@multiplicand^(0+640)
  4208     087D  3000               	movlw	0
  4209     087E  00B9               	movwf	(___wmul@multiplicand^(0+640)+1)
  4210     087F  3192  2211  3188   	fcall	___wmul
  4211     0882  30A4               	movlw	low (_ep_buf+4)
  4212     0883  00BF               	movwf	(??_usb_arm_out_endpoint+3)^(0+640)
  4213     0884  3003               	movlw	high (_ep_buf+4)
  4214     0885  00C0               	movwf	((??_usb_arm_out_endpoint+3)^(0+640)+1)
  4215     0886  0836               	movf	?___wmul^(0+640),w
  4216     0887  073F               	addwf	(??_usb_arm_out_endpoint+3)^(0+640),w
  4217     0888  0084               	movwf	4
  4218     0889  0837               	movf	(?___wmul+1)^(0+640),w
  4219     088A  3D40               	addwfc	(??_usb_arm_out_endpoint+4)^(0+640),w
  4220     088B  0085               	movwf	5
  4221     088C  0800               	movf	0,w
  4222     088D  0081               	movwf	1
  4223     088E  0842               	movf	usb_arm_out_endpoint@endpoint^(0+640),w
  4224     088F  00BC               	movwf	??_usb_arm_out_endpoint^(0+640)
  4225     0890  3002               	movlw	2
  4226     0891                     u6365:
  4227     0891  35BC               	lslf	??_usb_arm_out_endpoint^(0+640),f
  4228     0892  3EFF               	addlw	-1
  4229     0893  1D03               	skipz
  4230     0894  2891               	goto	u6365
  4231     0895  353C               	lslf	??_usb_arm_out_endpoint^(0+640),w
  4232     0896  3E20               	addlw	32
  4233     0897  0086               	movwf	6
  4234     0898  0187               	clrf	7
  4235     0899  3088               	movlw	136
  4236     089A                     L1:
  4237     089A  0081               	movwf	1
  4238                           
  4239                           ;../m-stack/usb/src/usb.c: 1656:  ep_buf[endpoint].flags ^= 0x4;
  4240     089B  3004               	movlw	4
  4241     089C  00BC               	movwf	??_usb_arm_out_endpoint^(0+640)
  4242     089D  0842               	movf	usb_arm_out_endpoint@endpoint^(0+640),w
  4243     089E  00BD               	movwf	(??_usb_arm_out_endpoint+1)^(0+640)
  4244     089F  01BE               	clrf	((??_usb_arm_out_endpoint+1)^(0+640)+1)
  4245     08A0  083D               	movf	(??_usb_arm_out_endpoint+1)^(0+640),w
  4246     08A1  00B6               	movwf	___wmul@multiplier^(0+640)
  4247     08A2  083E               	movf	(??_usb_arm_out_endpoint+2)^(0+640),w
  4248     08A3  00B7               	movwf	(___wmul@multiplier+1)^(0+640)
  4249     08A4  3007               	movlw	7
  4250     08A5  00B8               	movwf	___wmul@multiplicand^(0+640)
  4251     08A6  3000               	movlw	0
  4252     08A7  00B9               	movwf	(___wmul@multiplicand^(0+640)+1)
  4253     08A8  3192  2211         	fcall	___wmul
  4254     08AA  30A6               	movlw	low (_ep_buf+6)
  4255     08AB  00BF               	movwf	(??_usb_arm_out_endpoint+3)^(0+640)
  4256     08AC  3003               	movlw	high (_ep_buf+6)
  4257     08AD  00C0               	movwf	((??_usb_arm_out_endpoint+3)^(0+640)+1)
  4258     08AE  0836               	movf	?___wmul^(0+640),w
  4259     08AF  073F               	addwf	(??_usb_arm_out_endpoint+3)^(0+640),w
  4260     08B0  0086               	movwf	6
  4261     08B1  0837               	movf	(?___wmul+1)^(0+640),w
  4262     08B2  3D40               	addwfc	(??_usb_arm_out_endpoint+4)^(0+640),w
  4263     08B3  0087               	movwf	7
  4264     08B4  083C               	movf	??_usb_arm_out_endpoint^(0+640),w
  4265     08B5  0681               	xorwf	1,f
  4266     08B6  0008               	return
  4267     08B7                     __end_of_usb_arm_out_endpoint:
  4268                           
  4269                           	psect	text10
  4270     11A8                     __ptext10:	
  4271 ;; *************** function _uart_init *****************
  4272 ;; Defined at:
  4273 ;;		line 58 in file "../main.c"
  4274 ;; Parameters:    Size  Location     Type
  4275 ;;		None
  4276 ;; Auto vars:     Size  Location     Type
  4277 ;;  brg_data        2    0[BANK5 ] unsigned short 
  4278 ;; Return value:  Size  Location     Type
  4279 ;;                  1    wreg      void 
  4280 ;; Registers used:
  4281 ;;		wreg
  4282 ;; Tracked objects:
  4283 ;;		On entry : 1F/1
  4284 ;;		On exit  : 1F/3
  4285 ;;		Unchanged: 0/0
  4286 ;; Data sizes:     COMMON   BANK0   BANK1   BANK2   BANK3   BANK4   BANK5   BANK6   BANK7   BANK8   BANK9  BANK10  BANK1
      +1  BANK12
  4287 ;;      Params:         0       0       0       0       0       0       0       0       0       0       0       0       
      +0       0
  4288 ;;      Locals:         0       0       0       0       0       0       2       0       0       0       0       0       
      +0       0
  4289 ;;      Temps:          0       0       0       0       0       0       0       0       0       0       0       0       
      +0       0
  4290 ;;      Totals:         0       0       0       0       0       0       2       0       0       0       0       0       
      +0       0
  4291 ;;Total ram usage:        2 bytes
  4292 ;; Hardware stack levels used: 1
  4293 ;; Hardware stack levels required when called: 10
  4294 ;; This function calls:
  4295 ;;		Nothing
  4296 ;; This function is called by:
  4297 ;;		_main
  4298 ;; This function uses a non-reentrant model
  4299 ;;
  4300                           
  4301     11A8                     _uart_init:	
  4302                           ;psect for function _uart_init
  4303                           
  4304                           
  4305                           ;../main.c: 60:     uint16_t brg_data;;../main.c: 63:     brg_data = 0x0067;
  4306                           
  4307                           ;incstack = 0
  4308                           ; Regs used in _uart_init: [wreg]
  4309     11A8  3067               	movlw	103
  4310     11A9  0025               	movlb	5	; select bank5
  4311     11AA  00B6               	movwf	uart_init@brg_data^(0+640)
  4312     11AB  3000               	movlw	0
  4313     11AC  00B7               	movwf	(uart_init@brg_data^(0+640)+1)
  4314                           
  4315                           ;../main.c: 65:     TRISC5 = 1;
  4316     11AD  0021               	movlb	1	; select bank1
  4317     11AE  168E               	bsf	14,5	;volatile
  4318                           
  4319                           ;../main.c: 66:     TRISC4 = 0;
  4320     11AF  120E               	bcf	14,4	;volatile
  4321                           
  4322                           ;../main.c: 67:     TXSTA = 0x24;
  4323     11B0  3024               	movlw	36
  4324     11B1  0023               	movlb	3	; select bank3
  4325     11B2  009E               	movwf	30	;volatile
  4326                           
  4327                           ;../main.c: 68:     RCSTA = 0x90;
  4328     11B3  3090               	movlw	144
  4329     11B4  009D               	movwf	29	;volatile
  4330                           
  4331                           ;../main.c: 69:     SPBRG = (brg_data >> 0) & 0xff;
  4332     11B5  3000               	movlw	0
  4333     11B6  009C               	movwf	28	;volatile
  4334     11B7  3067               	movlw	103
  4335     11B8  009B               	movwf	27	;volatile
  4336                           
  4337                           ;../main.c: 70:     SPBRGH = (brg_data >> 8) & 0xff;
  4338     11B9  0025               	movlb	5	; select bank5
  4339     11BA  0837               	movf	(uart_init@brg_data^(0+640)+1),w
  4340     11BB  0023               	movlb	3	; select bank3
  4341     11BC  009C               	movwf	28	;volatile
  4342                           
  4343                           ;../main.c: 71:     BAUDCON = 0x08;
  4344     11BD  3008               	movlw	8
  4345     11BE  009F               	movwf	31	;volatile
  4346     11BF  0008               	return
  4347     11C0                     __end_of_uart_init:
  4348                           
  4349                           	psect	text11
  4350     10AB                     __ptext11:	
  4351 ;; *************** function _timer_init *****************
  4352 ;; Defined at:
  4353 ;;		line 74 in file "../main.c"
  4354 ;; Parameters:    Size  Location     Type
  4355 ;;		None
  4356 ;; Auto vars:     Size  Location     Type
  4357 ;;		None
  4358 ;; Return value:  Size  Location     Type
  4359 ;;                  1    wreg      void 
  4360 ;; Registers used:
  4361 ;;		None
  4362 ;; Tracked objects:
  4363 ;;		On entry : 1F/3
  4364 ;;		On exit  : 1F/1
  4365 ;;		Unchanged: 0/0
  4366 ;; Data sizes:     COMMON   BANK0   BANK1   BANK2   BANK3   BANK4   BANK5   BANK6   BANK7   BANK8   BANK9  BANK10  BANK1
      +1  BANK12
  4367 ;;      Params:         0       0       0       0       0       0       0       0       0       0       0       0       
      +0       0
  4368 ;;      Locals:         0       0       0       0       0       0       0       0       0       0       0       0       
      +0       0
  4369 ;;      Temps:          0       0       0       0       0       0       0       0       0       0       0       0       
      +0       0
  4370 ;;      Totals:         0       0       0       0       0       0       0       0       0       0       0       0       
      +0       0
  4371 ;;Total ram usage:        0 bytes
  4372 ;; Hardware stack levels used: 1
  4373 ;; Hardware stack levels required when called: 10
  4374 ;; This function calls:
  4375 ;;		Nothing
  4376 ;; This function is called by:
  4377 ;;		_main
  4378 ;; This function uses a non-reentrant model
  4379 ;;
  4380                           
  4381     10AB                     _timer_init:	
  4382                           ;psect for function _timer_init
  4383                           
  4384                           
  4385                           ;../main.c: 77:     TMR1CS1 = 0;
  4386                           
  4387                           ;incstack = 0
  4388                           ; Regs used in _timer_init: []
  4389     10AB  0020               	movlb	0	; select bank0
  4390     10AC  1398               	bcf	24,7	;volatile
  4391                           
  4392                           ;../main.c: 78:     TMR1CS0 = 0;
  4393     10AD  1318               	bcf	24,6	;volatile
  4394                           
  4395                           ;../main.c: 79:     T1CKPS1 = 0;
  4396     10AE  1298               	bcf	24,5	;volatile
  4397                           
  4398                           ;../main.c: 80:     T1CKPS0 = 1;
  4399     10AF  1618               	bsf	24,4	;volatile
  4400                           
  4401                           ;../main.c: 81:     TMR1ON = 1;
  4402     10B0  1418               	bsf	24,0	;volatile
  4403                           
  4404                           ;../main.c: 83:     TMR1IF = 0;
  4405     10B1  1011               	bcf	17,0	;volatile
  4406                           
  4407                           ;../main.c: 85:     TMR1IE = 1;
  4408     10B2  0021               	movlb	1	; select bank1
  4409     10B3  1411               	bsf	17,0	;volatile
  4410                           
  4411                           ;../main.c: 86:     PEIE = 1;
  4412     10B4  170B               	bsf	11,6	;volatile
  4413     10B5  0008               	return
  4414     10B6                     __end_of_timer_init:
  4415                           
  4416                           	psect	text12
  4417     095B                     __ptext12:	
  4418 ;; *************** function _pp_process *****************
  4419 ;; Defined at:
  4420 ;;		line 73 in file "../pp.c"
  4421 ;; Parameters:    Size  Location     Type
  4422 ;;  data            2   22[BANK6 ] PTR const unsigned char 
  4423 ;;		 -> NULL(0), ep_buffers(294), 
  4424 ;;  len             2   24[BANK6 ] unsigned int 
  4425 ;; Auto vars:     Size  Location     Type
  4426 ;;		None
  4427 ;; Return value:  Size  Location     Type
  4428 ;;                  1    wreg      void 
  4429 ;; Registers used:
  4430 ;;		wreg, fsr0l, fsr0h, fsr1l, fsr1h, status,2, status,0, pclath, cstack
  4431 ;; Tracked objects:
  4432 ;;		On entry : 1F/6
  4433 ;;		On exit  : 1F/6
  4434 ;;		Unchanged: 0/0
  4435 ;; Data sizes:     COMMON   BANK0   BANK1   BANK2   BANK3   BANK4   BANK5   BANK6   BANK7   BANK8   BANK9  BANK10  BANK1
      +1  BANK12
  4436 ;;      Params:         0       0       0       0       0       0       0       4       0       0       0       0       
      +0       0
  4437 ;;      Locals:         0       0       0       0       0       0       0       0       0       0       0       0       
      +0       0
  4438 ;;      Temps:          0       0       0       0       0       0       5       0       0       0       0       0       
      +0       0
  4439 ;;      Totals:         0       0       0       0       0       0       5       4       0       0       0       0       
      +0       0
  4440 ;;Total ram usage:        9 bytes
  4441 ;; Hardware stack levels used: 1
  4442 ;; Hardware stack levels required when called: 16
  4443 ;; This function calls:
  4444 ;;		NULL
  4445 ;;		_exec_ops
  4446 ;;		_pp_send_res_byte
  4447 ;; This function is called by:
  4448 ;;		_main
  4449 ;; This function uses a non-reentrant model
  4450 ;;
  4451                           
  4452     095B                     _pp_process:	
  4453                           ;psect for function _pp_process
  4454                           
  4455                           
  4456                           ;../pp.c: 73: void pp_process(const uint8_t *data, size_t len);../pp.c: 74: {;../pp.c: 7
      +                          5:     static unsigned char bytes_to_receive = 0;;../pp.c: 76:     static int state = 0;
      +                          ;../pp.c: 77:     static int buf_len;;../pp.c: 79:     while (0 < len--) {
  4457                           
  4458                           ;incstack = 0
  4459 ;; hardware stack exceeded
  4460                           ; Regs used in _pp_process: [wreg-fsr1h+status,2+status,0+pclath+cstack]
  4461     095B  2A3D               	goto	l5713
  4462     095C                     l5661:
  4463                           
  4464                           ;../pp.c: 82:             pp_buf[0] = *data++;
  4465     095C  30D8               	movlw	216
  4466     095D  0086               	movwf	6
  4467     095E  3022               	movlw	34
  4468     095F  0087               	movwf	7
  4469     0960  085C               	movf	pp_process@data^(0+768),w
  4470     0961  0084               	movwf	4
  4471     0962  085D               	movf	(pp_process@data+1)^(0+768),w
  4472     0963  0085               	movwf	5
  4473     0964  0800               	movf	0,w
  4474     0965  3FC0               	movwi [0]fsr1
  4475     0966  3001               	movlw	1
  4476     0967  07DC               	addwf	pp_process@data^(0+768),f
  4477     0968  3000               	movlw	0
  4478     0969  3DDD               	addwfc	(pp_process@data+1)^(0+768),f
  4479                           
  4480                           ;../pp.c: 83:             if (pp_buf[0] == OP_NONE)
  4481     096A  30D8               	movlw	216
  4482     096B  0086               	movwf	6
  4483     096C  3022               	movlw	34
  4484     096D  0087               	movwf	7
  4485     096E  0801               	movf	1,w
  4486     096F  1903               	btfsc	3,2
  4487     0970  2A3D               	goto	l5713
  4488                           
  4489                           ;../pp.c: 85:             buf_len = 1;
  4490     0971  3001               	movlw	1
  4491     0972  00A0               	movwf	pp_process@buf_len^(0+768)
  4492     0973  3000               	movlw	0
  4493     0974  00A1               	movwf	(pp_process@buf_len^(0+768)+1)
  4494                           
  4495                           ;../pp.c: 86:             state = 1;
  4496     0975  3001               	movlw	1
  4497     0976  29A1               	goto	L3
  4498     0977                     l5671:	
  4499                           ;../pp.c: 87:             break;
  4500                           
  4501                           
  4502                           ;../pp.c: 89:             bytes_to_receive = *data++;
  4503     0977  085C               	movf	pp_process@data^(0+768),w
  4504     0978  0086               	movwf	6
  4505     0979  085D               	movf	(pp_process@data+1)^(0+768),w
  4506     097A  0087               	movwf	7
  4507     097B  0801               	movf	1,w
  4508     097C  00A8               	movwf	pp_process@bytes_to_receive^(0+768)
  4509     097D  3001               	movlw	1
  4510     097E  07DC               	addwf	pp_process@data^(0+768),f
  4511     097F  3000               	movlw	0
  4512     0980  3DDD               	addwfc	(pp_process@data+1)^(0+768),f
  4513                           
  4514                           ;../pp.c: 90:             pp_buf[buf_len++] = bytes_to_receive;
  4515     0981  30D8               	movlw	216
  4516     0982  0025               	movlb	5	; select bank5
  4517     0983  00DB               	movwf	??_pp_process^(0+640)
  4518     0984  3022               	movlw	34
  4519     0985  00DC               	movwf	(??_pp_process^(0+640)+1)
  4520     0986  0026               	movlb	6	; select bank6
  4521     0987  0820               	movf	pp_process@buf_len^(0+768),w
  4522     0988  0025               	movlb	5	; select bank5
  4523     0989  075B               	addwf	??_pp_process^(0+640),w
  4524     098A  00DD               	movwf	(??_pp_process+2)^(0+640)
  4525     098B  0026               	movlb	6	; select bank6
  4526     098C  0821               	movf	(pp_process@buf_len+1)^(0+768),w
  4527     098D  0025               	movlb	5	; select bank5
  4528     098E  3D5C               	addwfc	(??_pp_process+1)^(0+640),w
  4529     098F  00DE               	movwf	(??_pp_process+3)^(0+640)
  4530     0990  085D               	movf	(??_pp_process+2)^(0+640),w
  4531     0991  0086               	movwf	6
  4532     0992  085E               	movf	(??_pp_process+3)^(0+640),w
  4533     0993  0087               	movwf	7
  4534     0994  0026               	movlb	6	; select bank6
  4535     0995  0828               	movf	pp_process@bytes_to_receive^(0+768),w
  4536     0996  0081               	movwf	1
  4537     0997  3001               	movlw	1
  4538     0998  07A0               	addwf	pp_process@buf_len^(0+768),f
  4539     0999  3000               	movlw	0
  4540     099A  3DA1               	addwfc	(pp_process@buf_len+1)^(0+768),f
  4541                           
  4542                           ;../pp.c: 91:             state = (bytes_to_receive == 0) ? 3 : 2;
  4543     099B  0828               	movf	pp_process@bytes_to_receive^(0+768),w
  4544     099C  1903               	btfsc	3,2
  4545     099D  29A0               	goto	l5683
  4546     099E  3002               	movlw	2
  4547     099F  29A1               	goto	L3
  4548     09A0                     l5683:
  4549     09A0  3003               	movlw	3
  4550     09A1                     L3:
  4551     09A1  00A2               	movwf	pp_process@state^(0+768)
  4552     09A2  3000               	movlw	0
  4553     09A3  00A3               	movwf	(pp_process@state^(0+768)+1)
  4554     09A4  29DF               	goto	l5701
  4555     09A5                     l5685:
  4556                           
  4557                           ;../pp.c: 94:             pp_buf[buf_len++] = *data++;
  4558     09A5  085C               	movf	pp_process@data^(0+768),w
  4559     09A6  0086               	movwf	6
  4560     09A7  085D               	movf	(pp_process@data+1)^(0+768),w
  4561     09A8  0087               	movwf	7
  4562     09A9  0801               	movf	1,w
  4563     09AA  0025               	movlb	5	; select bank5
  4564     09AB  00DB               	movwf	??_pp_process^(0+640)
  4565     09AC  30D8               	movlw	216
  4566     09AD  00DC               	movwf	(??_pp_process+1)^(0+640)
  4567     09AE  3022               	movlw	34
  4568     09AF  00DD               	movwf	((??_pp_process+1)^(0+640)+1)
  4569     09B0  0026               	movlb	6	; select bank6
  4570     09B1  0820               	movf	pp_process@buf_len^(0+768),w
  4571     09B2  0025               	movlb	5	; select bank5
  4572     09B3  075C               	addwf	(??_pp_process+1)^(0+640),w
  4573     09B4  00DE               	movwf	(??_pp_process+3)^(0+640)
  4574     09B5  0026               	movlb	6	; select bank6
  4575     09B6  0821               	movf	(pp_process@buf_len+1)^(0+768),w
  4576     09B7  0025               	movlb	5	; select bank5
  4577     09B8  3D5D               	addwfc	(??_pp_process+2)^(0+640),w
  4578     09B9  00DF               	movwf	(??_pp_process+4)^(0+640)
  4579     09BA  085E               	movf	(??_pp_process+3)^(0+640),w
  4580     09BB  0086               	movwf	6
  4581     09BC  085F               	movf	(??_pp_process+4)^(0+640),w
  4582     09BD  0087               	movwf	7
  4583     09BE  085B               	movf	??_pp_process^(0+640),w
  4584     09BF  0081               	movwf	1
  4585     09C0  3001               	movlw	1
  4586     09C1  0026               	movlb	6	; select bank6
  4587     09C2  07DC               	addwf	pp_process@data^(0+768),f
  4588     09C3  3000               	movlw	0
  4589     09C4  3DDD               	addwfc	(pp_process@data+1)^(0+768),f
  4590     09C5  3001               	movlw	1
  4591     09C6  07A0               	addwf	pp_process@buf_len^(0+768),f
  4592     09C7  3000               	movlw	0
  4593     09C8  3DA1               	addwfc	(pp_process@buf_len+1)^(0+768),f
  4594                           
  4595                           ;../pp.c: 95:             bytes_to_receive--;
  4596     09C9  3001               	movlw	1
  4597     09CA  02A8               	subwf	pp_process@bytes_to_receive^(0+768),f
  4598                           
  4599                           ;../pp.c: 96:             if (bytes_to_receive == 0)
  4600     09CB  0828               	movf	pp_process@bytes_to_receive^(0+768),w
  4601     09CC  1903               	btfsc	3,2
  4602     09CD  29A0               	goto	l5683
  4603     09CE  29DF               	goto	l5701
  4604     09CF                     l5699:
  4605                           
  4606                           ; Switch on 2 bytes has been partitioned into a top level switch of size 1, and 1 sub-sw
      +                          itches
  4607                           ; Switch size 1, requested type "simple"
  4608                           ; Number of cases is 1, Range of values is 0 to 0
  4609                           ; switch strategies available:
  4610                           ; Name         Instructions Cycles
  4611                           ; simple_byte            4     3 (average)
  4612                           ; direct_byte            8     6 (fixed)
  4613                           ; jumptable            260     6 (fixed)
  4614                           ;	Chosen strategy is simple_byte
  4615     09CF  0823               	movf	(pp_process@state+1)^(0+768),w
  4616     09D0  3A00               	xorlw	0	; case 0
  4617     09D1  1903               	skipnz
  4618     09D2  29D4               	goto	l6109
  4619     09D3  29DF               	goto	l5701
  4620     09D4                     l6109:
  4621                           
  4622                           ; Switch size 1, requested type "simple"
  4623                           ; Number of cases is 3, Range of values is 0 to 2
  4624                           ; switch strategies available:
  4625                           ; Name         Instructions Cycles
  4626                           ; simple_byte           10     6 (average)
  4627                           ; direct_byte           12     6 (fixed)
  4628                           ; jumptable            260     6 (fixed)
  4629                           ;	Chosen strategy is simple_byte
  4630     09D4  0822               	movf	pp_process@state^(0+768),w
  4631     09D5  3A00               	xorlw	0	; case 0
  4632     09D6  1903               	skipnz
  4633     09D7  295C               	goto	l5661
  4634     09D8  3A01               	xorlw	1	; case 1
  4635     09D9  1903               	skipnz
  4636     09DA  2977               	goto	l5671
  4637     09DB  3A03               	xorlw	3	; case 2
  4638     09DC  1903               	skipnz
  4639     09DD  29A5               	goto	l5685
  4640     09DE  29DF               	goto	l5701
  4641     09DF                     l5701:
  4642                           
  4643                           ;../pp.c: 102:         if (state == 3) {
  4644     09DF  3003               	movlw	3
  4645     09E0  0622               	xorwf	pp_process@state^(0+768),w
  4646     09E1  0423               	iorwf	(pp_process@state+1)^(0+768),w
  4647     09E2  1D03               	btfss	3,2
  4648     09E3  2A3D               	goto	l5713
  4649                           
  4650                           ;../pp.c: 103:             state = 0;
  4651     09E4  01A2               	clrf	pp_process@state^(0+768)
  4652     09E5  01A3               	clrf	(pp_process@state+1)^(0+768)
  4653                           
  4654                           ;../pp.c: 104:             switch (pp_buf[0]) {
  4655     09E6  2A28               	goto	l5711
  4656     09E7                     l5705:
  4657                           
  4658                           ;../pp.c: 106:                 sendback(0xff);
  4659     09E7  30FF               	movlw	255
  4660     09E8  00D2               	movwf	pp_send_res_byte@data^(0+640)
  4661     09E9  0026               	movlb	6	; select bank6
  4662     09EA  0825               	movf	(_sendback+1)^(0+768),w
  4663     09EB  008A               	movwf	10
  4664     09EC  0824               	movf	_sendback^(0+768),w
  4665     09ED  000A               	callw
  4666     09EE  3189               	pagesel	$
  4667                           
  4668                           ;../pp.c: 107:                 sendback(0x88);
  4669     09EF  3088               	movlw	136
  4670     09F0  0025               	movlb	5	; select bank5
  4671     09F1  00D2               	movwf	pp_send_res_byte@data^(0+640)
  4672     09F2  0026               	movlb	6	; select bank6
  4673     09F3  0825               	movf	(_sendback+1)^(0+768),w
  4674     09F4  008A               	movwf	10
  4675     09F5  0824               	movf	_sendback^(0+768),w
  4676     09F6  000A               	callw
  4677     09F7  3189               	pagesel	$
  4678                           
  4679                           ;../pp.c: 108:                 sendback(1);
  4680     09F8  0025               	movlb	5	; select bank5
  4681     09F9  01D2               	clrf	pp_send_res_byte@data^(0+640)
  4682     09FA  0AD2               	incf	pp_send_res_byte@data^(0+640),f
  4683     09FB  0026               	movlb	6	; select bank6
  4684     09FC  0825               	movf	(_sendback+1)^(0+768),w
  4685     09FD  008A               	movwf	10
  4686     09FE  0824               	movf	_sendback^(0+768),w
  4687     09FF  000A               	callw
  4688     0A00  3189               	pagesel	$
  4689                           
  4690                           ;../pp.c: 109:                 sendback(0);
  4691     0A01  0025               	movlb	5	; select bank5
  4692     0A02  01D2               	clrf	pp_send_res_byte@data^(0+640)
  4693     0A03  0026               	movlb	6	; select bank6
  4694     0A04  0825               	movf	(_sendback+1)^(0+768),w
  4695     0A05  008A               	movwf	10
  4696     0A06  0824               	movf	_sendback^(0+768),w
  4697     0A07  000A               	callw
  4698     0A08  3189               	pagesel	$
  4699                           
  4700                           ;../pp.c: 110:                 sendback((1 << 1) | (1 << 2));
  4701     0A09  3006               	movlw	6
  4702     0A0A  0025               	movlb	5	; select bank5
  4703     0A0B  00D2               	movwf	pp_send_res_byte@data^(0+640)
  4704     0A0C  0026               	movlb	6	; select bank6
  4705     0A0D  0825               	movf	(_sendback+1)^(0+768),w
  4706     0A0E  008A               	movwf	10
  4707     0A0F  0824               	movf	_sendback^(0+768),w
  4708     0A10  000A               	callw
  4709     0A11  3189               	pagesel	$
  4710     0A12  2A26               	goto	L4
  4711     0A13                     l5707:	
  4712                           ;../pp.c: 111:                 break;
  4713                           
  4714                           
  4715                           ;../pp.c: 113:                 exec_ops(&pp_buf[2], pp_buf[1]);
  4716     0A13  30DA               	movlw	218
  4717     0A14  00D5               	movwf	exec_ops@ops^(0+640)
  4718     0A15  3022               	movlw	34
  4719     0A16  00D6               	movwf	(exec_ops@ops^(0+640)+1)
  4720     0A17  30D8               	movlw	216
  4721     0A18  0086               	movwf	6
  4722     0A19  3022               	movlw	34
  4723     0A1A  0087               	movwf	7
  4724     0A1B  3141               	addfsr 1,1
  4725     0A1C  0801               	movf	1,w
  4726     0A1D  00DB               	movwf	??_pp_process^(0+640)
  4727     0A1E  01DC               	clrf	(??_pp_process^(0+640)+1)
  4728     0A1F  085B               	movf	??_pp_process^(0+640),w
  4729     0A20  00D7               	movwf	exec_ops@len^(0+640)
  4730     0A21  085C               	movf	(??_pp_process+1)^(0+640),w
  4731     0A22  00D8               	movwf	(exec_ops@len+1)^(0+640)
  4732     0A23  3183  23E0  3189   	fcall	_exec_ops
  4733     0A26                     L4:
  4734                           
  4735                           ;../pp.c: 114:                 break;
  4736     0A26  0026               	movlb	6	; select bank6
  4737     0A27  2A3D               	goto	l5713
  4738     0A28                     l5711:
  4739     0A28  30D8               	movlw	216
  4740     0A29  0086               	movwf	6
  4741     0A2A  3022               	movlw	34
  4742     0A2B  0087               	movwf	7
  4743     0A2C  0801               	movf	1,w
  4744     0A2D  0025               	movlb	5	; select bank5
  4745     0A2E  00DB               	movwf	??_pp_process^(0+640)
  4746     0A2F  01DC               	clrf	(??_pp_process^(0+640)+1)
  4747                           
  4748                           ; Switch on 2 bytes has been partitioned into a top level switch of size 1, and 1 sub-sw
      +                          itches
  4749                           ; Switch size 1, requested type "simple"
  4750                           ; Number of cases is 1, Range of values is 0 to 0
  4751                           ; switch strategies available:
  4752                           ; Name         Instructions Cycles
  4753                           ; simple_byte            4     3 (average)
  4754                           ; direct_byte            8     6 (fixed)
  4755                           ; jumptable            260     6 (fixed)
  4756                           ;	Chosen strategy is simple_byte
  4757     0A30  085C               	movf	(??_pp_process+1)^(0+640),w
  4758     0A31  3A00               	xorlw	0	; case 0
  4759     0A32  1903               	skipnz
  4760     0A33  2A35               	goto	l6111
  4761     0A34  2A3D               	goto	l5713
  4762     0A35                     l6111:
  4763                           
  4764                           ; Switch size 1, requested type "simple"
  4765                           ; Number of cases is 2, Range of values is 127 to 128
  4766                           ; switch strategies available:
  4767                           ; Name         Instructions Cycles
  4768                           ; simple_byte            7     4 (average)
  4769                           ; direct_byte           13     9 (fixed)
  4770                           ; jumptable            263     9 (fixed)
  4771                           ;	Chosen strategy is simple_byte
  4772     0A35  085B               	movf	??_pp_process^(0+640),w
  4773     0A36  3A7F               	xorlw	127	; case 127
  4774     0A37  1903               	skipnz
  4775     0A38  29E7               	goto	l5705
  4776     0A39  3AFF               	xorlw	255	; case 128
  4777     0A3A  1903               	skipnz
  4778     0A3B  2A13               	goto	l5707
  4779     0A3C  2A3D               	goto	l5713
  4780     0A3D                     l5713:
  4781                           
  4782                           ;../pp.c: 79:     while (0 < len--) {
  4783     0A3D  3001               	movlw	1
  4784     0A3E  0026               	movlb	6	; select bank6
  4785     0A3F  02DE               	subwf	pp_process@len^(0+768),f
  4786     0A40  3000               	movlw	0
  4787     0A41  3BDF               	subwfb	(pp_process@len+1)^(0+768),f
  4788     0A42  0A5E               	incf	pp_process@len^(0+768),w
  4789     0A43  1D03               	skipz
  4790     0A44  29CF               	goto	l5699
  4791     0A45  0A5F               	incf	(pp_process@len+1)^(0+768),w
  4792     0A46  1903               	btfsc	3,2
  4793     0A47  0008               	return
  4794     0A48  29CF               	goto	l5699
  4795     0A49                     __end_of_pp_process:
  4796                           
  4797                           	psect	text13
  4798     03E0                     __ptext13:	
  4799 ;; *************** function _exec_ops *****************
  4800 ;; Defined at:
  4801 ;;		line 54 in file "../../fw/pp/pp_ops/fw_pp_ops.c"
  4802 ;; Parameters:    Size  Location     Type
  4803 ;;  ops             2   31[BANK5 ] PTR unsigned char 
  4804 ;;		 -> pp_buf(280), 
  4805 ;;  len             2   33[BANK5 ] int 
  4806 ;; Auto vars:     Size  Location     Type
  4807 ;;  count           1   14[BANK6 ] unsigned char 
  4808 ;;  count           1   13[BANK6 ] unsigned char 
  4809 ;;  count           1   12[BANK6 ] unsigned char 
  4810 ;;  count           1   11[BANK6 ] unsigned char 
  4811 ;;  count           1   10[BANK6 ] unsigned char 
  4812 ;;  count           1    9[BANK6 ] unsigned char 
  4813 ;;  count           1   17[BANK6 ] unsigned char 
  4814 ;;  count           1   16[BANK6 ] unsigned char 
  4815 ;;  count           1   15[BANK6 ] unsigned char 
  4816 ;;  count           1    8[BANK6 ] unsigned char 
  4817 ;;  txbuf           4    0[BANK6 ] unsigned char [4]
  4818 ;;  n10             2    6[BANK6 ] unsigned short 
  4819 ;;  endp            2    4[BANK6 ] PTR unsigned char 
  4820 ;;		 -> pp_buf(280), 
  4821 ;;  i               1   21[BANK6 ] unsigned char 
  4822 ;;  n               1   20[BANK6 ] unsigned char 
  4823 ;;  d               1   19[BANK6 ] unsigned char 
  4824 ;;  txbuf_len       1   18[BANK6 ] unsigned char 
  4825 ;;  t               1    0        unsigned char 
  4826 ;; Return value:  Size  Location     Type
  4827 ;;                  1    wreg      void 
  4828 ;; Registers used:
  4829 ;;		wreg, fsr0l, fsr0h, fsr1l, fsr1h, status,2, status,0, pclath, cstack
  4830 ;; Tracked objects:
  4831 ;;		On entry : 1F/5
  4832 ;;		On exit  : 1F/5
  4833 ;;		Unchanged: 0/0
  4834 ;; Data sizes:     COMMON   BANK0   BANK1   BANK2   BANK3   BANK4   BANK5   BANK6   BANK7   BANK8   BANK9  BANK10  BANK1
      +1  BANK12
  4835 ;;      Params:         0       0       0       0       0       0       4       0       0       0       0       0       
      +0       0
  4836 ;;      Locals:         0       0       0       0       0       0       0      22       0       0       0       0       
      +0       0
  4837 ;;      Temps:          0       0       0       0       0       0       2       0       0       0       0       0       
      +0       0
  4838 ;;      Totals:         0       0       0       0       0       0       6      22       0       0       0       0       
      +0       0
  4839 ;;Total ram usage:       28 bytes
  4840 ;; Hardware stack levels used: 1
  4841 ;; Hardware stack levels required when called: 15
  4842 ;; This function calls:
  4843 ;;		NULL
  4844 ;;		___wmul
  4845 ;;		_dummy_locks
  4846 ;;		_memset
  4847 ;;		_pp_send_res_byte
  4848 ;;		_send_bits
  4849 ;; This function is called by:
  4850 ;;		_pp_process
  4851 ;; This function uses a non-reentrant model
  4852 ;;
  4853                           
  4854     03E0                     _exec_ops:	
  4855                           ;psect for function _exec_ops
  4856                           
  4857                           
  4858                           ;../../fw/pp/pp_ops/fw_pp_ops.c: 54: void exec_ops(uint8_t *ops, int len);../../fw/pp/pp
      +                          _ops/fw_pp_ops.c: 55: {;../../fw/pp/pp_ops/fw_pp_ops.c: 56:     uint8_t i, n, t, d;;../.
      +                          ./fw/pp/pp_ops/fw_pp_ops.c: 57:     uint8_t *endp = &ops[len];
  4859                           
  4860                           ;incstack = 0
  4861 ;; hardware stack exceeded
  4862                           ; Regs used in _exec_ops: [wreg-fsr1h+status,2+status,0+pclath+cstack]
  4863     03E0  0857               	movf	exec_ops@len^(0+640),w
  4864     03E1  0755               	addwf	exec_ops@ops^(0+640),w
  4865     03E2  0026               	movlb	6	; select bank6
  4866     03E3  00CA               	movwf	exec_ops@endp^(0+768)
  4867     03E4  0025               	movlb	5	; select bank5
  4868     03E5  0858               	movf	(exec_ops@len+1)^(0+640),w
  4869     03E6  3D56               	addwfc	(exec_ops@ops+1)^(0+640),w
  4870     03E7  0026               	movlb	6	; select bank6
  4871     03E8  00CB               	movwf	(exec_ops@endp+1)^(0+768)
  4872     03E9                     l851:	
  4873                           ;../../fw/pp/pp_ops/fw_pp_ops.c: 229:     }
  4874                           
  4875                           ;../../fw/pp/pp_ops/fw_pp_ops.c: 58:     uint8_t txbuf[4];;../../fw/pp/pp_ops/fw_pp_ops.
      +                          c: 59:     uint8_t txbuf_len;;../../fw/pp/pp_ops/fw_pp_ops.c: 60:     uint16_t n10;;../.
      +                          ./fw/pp/pp_ops/fw_pp_ops.c: 62:     while (ops < endp) {
  4876                           
  4877                           
  4878                           ;../../fw/pp/pp_ops/fw_pp_ops.c: 62:     while (ops < endp) {
  4879     03E9  0026               	movlb	6	; select bank6
  4880     03EA  084B               	movf	(exec_ops@endp+1)^(0+768),w
  4881     03EB  0025               	movlb	5	; select bank5
  4882     03EC  0256               	subwf	(exec_ops@ops+1)^(0+640),w
  4883     03ED  1D03               	skipz
  4884     03EE  2BF3               	goto	u6265
  4885     03EF  0026               	movlb	6	; select bank6
  4886     03F0  084A               	movf	exec_ops@endp^(0+768),w
  4887     03F1  0025               	movlb	5	; select bank5
  4888     03F2  0255               	subwf	exec_ops@ops^(0+640),w
  4889     03F3                     u6265:
  4890     03F3  1803               	btfsc	3,0
  4891     03F4  0008               	return
  4892                           
  4893                           ;../../fw/pp/pp_ops/fw_pp_ops.c: 63:         n = ops[1];
  4894     03F5  0855               	movf	exec_ops@ops^(0+640),w
  4895     03F6  0086               	movwf	6
  4896     03F7  0856               	movf	(exec_ops@ops+1)^(0+640),w
  4897     03F8  0087               	movwf	7
  4898     03F9  3141               	addfsr 1,1
  4899     03FA  0801               	movf	1,w
  4900     03FB  0026               	movlb	6	; select bank6
  4901     03FC  00DA               	movwf	exec_ops@n^(0+768)
  4902                           
  4903                           ;../../fw/pp/pp_ops/fw_pp_ops.c: 64:         switch (ops[0]) {
  4904     03FD  2E58               	goto	l5521
  4905     03FE                     l857:	
  4906                           ;../../fw/pp/pp_ops/fw_pp_ops.c: 67:             do { LATC3 = (n & 0x01) ? 1 : 0; } whil
      +                          e(0);
  4907                           
  4908     03FE  0026               	movlb	6	; select bank6
  4909     03FF  1C5A               	btfss	exec_ops@n^(0+768),0
  4910     0400  2C04               	goto	u5880
  4911     0401  0022               	movlb	2	; select bank2
  4912     0402  158E               	bsf	14,3	;volatile
  4913     0403  2E8E               	goto	l5523
  4914     0404                     u5880:
  4915     0404  0022               	movlb	2	; select bank2
  4916     0405  118E               	bcf	14,3	;volatile
  4917     0406  2E8E               	goto	l5523
  4918     0407                     l862:
  4919                           
  4920                           ;../../fw/pp/pp_ops/fw_pp_ops.c: 71:             if (n & 0x02) {
  4921     0407  0026               	movlb	6	; select bank6
  4922     0408  1CDA               	btfss	exec_ops@n^(0+768),1
  4923     0409  2C14               	goto	l869
  4924                           
  4925                           ;../../fw/pp/pp_ops/fw_pp_ops.c: 72:                 do { LATA4 = (n & 0x01) ? 1 : 0; } 
      +                          while(0);
  4926     040A  1C5A               	btfss	exec_ops@n^(0+768),0
  4927     040B  2C0F               	goto	u5910
  4928     040C  0022               	movlb	2	; select bank2
  4929     040D  160C               	bsf	12,4	;volatile
  4930     040E  2C11               	goto	l866
  4931     040F                     u5910:
  4932     040F  0022               	movlb	2	; select bank2
  4933     0410  120C               	bcf	12,4	;volatile
  4934     0411                     l866:	
  4935                           ;../../fw/pp/pp_ops/fw_pp_ops.c: 73:                 do { TRISA4 = 0; } while(0);
  4936                           
  4937     0411  0021               	movlb	1	; select bank1
  4938     0412  120C               	bcf	12,4	;volatile
  4939     0413  2E8E               	goto	l5523
  4940     0414                     l869:	
  4941                           ;../../fw/pp/pp_ops/fw_pp_ops.c: 75:                 do { TRISA4 = 1; } while(0);
  4942                           
  4943     0414  0021               	movlb	1	; select bank1
  4944     0415  160C               	bsf	12,4	;volatile
  4945     0416  2E8E               	goto	l5523
  4946     0417                     l873:
  4947                           
  4948                           ;../../fw/pp/pp_ops/fw_pp_ops.c: 80:             if (n & 0x02) {
  4949     0417  0026               	movlb	6	; select bank6
  4950     0418  1CDA               	btfss	exec_ops@n^(0+768),1
  4951     0419  2C24               	goto	l880
  4952                           
  4953                           ;../../fw/pp/pp_ops/fw_pp_ops.c: 81:                 do { LATA5 = ((n & 0x01) ? 1 : 0); 
      +                          } while(0);
  4954     041A  1C5A               	btfss	exec_ops@n^(0+768),0
  4955     041B  2C1F               	goto	u5940
  4956     041C  0022               	movlb	2	; select bank2
  4957     041D  168C               	bsf	12,5	;volatile
  4958     041E  2C21               	goto	l877
  4959     041F                     u5940:
  4960     041F  0022               	movlb	2	; select bank2
  4961     0420  128C               	bcf	12,5	;volatile
  4962     0421                     l877:	
  4963                           ;../../fw/pp/pp_ops/fw_pp_ops.c: 82:                 do { TRISA5 = 0; } while(0);
  4964                           
  4965     0421  0021               	movlb	1	; select bank1
  4966     0422  128C               	bcf	12,5	;volatile
  4967     0423  2E8E               	goto	l5523
  4968     0424                     l880:	
  4969                           ;../../fw/pp/pp_ops/fw_pp_ops.c: 84:                 do { TRISA5 = 1; } while(0);
  4970                           
  4971     0424  0021               	movlb	1	; select bank1
  4972     0425  168C               	bsf	12,5	;volatile
  4973     0426  2E8E               	goto	l5523
  4974     0427                     l5341:
  4975                           
  4976                           ;../../fw/pp/pp_ops/fw_pp_ops.c: 90:             d = 0;
  4977     0427  0026               	movlb	6	; select bank6
  4978     0428  01D9               	clrf	exec_ops@d^(0+768)
  4979     0429  0021               	movlb	1	; select bank1
  4980     042A  160C               	bsf	12,4	;volatile
  4981     042B                     l5357:
  4982                           
  4983                           ;../../fw/pp/pp_ops/fw_pp_ops.c: 92:             while (0 < n--) {
  4984     042B  3001               	movlw	1
  4985     042C  0026               	movlb	6	; select bank6
  4986     042D  02DA               	subwf	exec_ops@n^(0+768),f
  4987     042E  0A5A               	incf	exec_ops@n^(0+768),w
  4988     042F  1903               	btfsc	3,2
  4989     0430  2E8E               	goto	l5523
  4990                           
  4991                           ;../../fw/pp/pp_ops/fw_pp_ops.c: 93:                 for (i = 0; i < 8; i++) {
  4992     0431  01DB               	clrf	exec_ops@i^(0+768)
  4993     0432                     l891:	
  4994                           ;../../fw/pp/pp_ops/fw_pp_ops.c: 94:                     do { LATA5 = ((1) ? 1 : 0); } w
      +                          hile(0);
  4995                           
  4996     0432  0022               	movlb	2	; select bank2
  4997     0433  168C               	bsf	12,5	;volatile
  4998                           
  4999                           ;../../fw/pp/pp_ops/fw_pp_ops.c: 95:                     do { __nop(); } while(0);
  5000     0434  0000               	nop
  5001                           
  5002                           ;../../fw/pp/pp_ops/fw_pp_ops.c: 96:                     do { LATA5 = ((0) ? 1 : 0); } w
      +                          hile(0);
  5003     0435  0022               	movlb	2	; select bank2
  5004     0436  128C               	bcf	12,5	;volatile
  5005                           
  5006                           ;../../fw/pp/pp_ops/fw_pp_ops.c: 97:                     do { __nop(); } while(0);
  5007     0437  0000               	nop
  5008                           
  5009                           ;../../fw/pp/pp_ops/fw_pp_ops.c: 98:                     d = (uint8_t)(d << 1) | (((PORT
      +                          Abits.RA4)) ? 1 : 0);
  5010     0438  0020               	movlb	0	; select bank0
  5011     0439  0E0C               	swapf	12,w	;volatile
  5012     043A  3901               	andlw	1
  5013     043B  0025               	movlb	5	; select bank5
  5014     043C  00D9               	movwf	??_exec_ops^(0+640)
  5015     043D  0026               	movlb	6	; select bank6
  5016     043E  3559               	lslf	exec_ops@d^(0+768),w
  5017     043F  0025               	movlb	5	; select bank5
  5018     0440  0459               	iorwf	??_exec_ops^(0+640),w
  5019     0441  0026               	movlb	6	; select bank6
  5020     0442  00D9               	movwf	exec_ops@d^(0+768)
  5021                           
  5022                           ;../../fw/pp/pp_ops/fw_pp_ops.c: 99:                 }
  5023     0443  3001               	movlw	1
  5024     0444  0025               	movlb	5	; select bank5
  5025     0445  00D9               	movwf	??_exec_ops^(0+640)
  5026     0446  0859               	movf	??_exec_ops^(0+640),w
  5027     0447  0026               	movlb	6	; select bank6
  5028     0448  07DB               	addwf	exec_ops@i^(0+768),f
  5029     0449  3008               	movlw	8
  5030     044A  025B               	subwf	exec_ops@i^(0+768),w
  5031     044B  1C03               	skipc
  5032     044C  2C32               	goto	l891
  5033     044D  0859               	movf	exec_ops@d^(0+768),w
  5034     044E  0025               	movlb	5	; select bank5
  5035     044F  00D2               	movwf	pp_send_res_byte@data^(0+640)
  5036     0450  0026               	movlb	6	; select bank6
  5037     0451  0825               	movf	(_sendback+1)^(0+768),w
  5038     0452  008A               	movwf	10
  5039     0453  0824               	movf	_sendback^(0+768),w
  5040     0454  000A               	callw
  5041     0455  3183               	pagesel	$
  5042     0456  2C2B               	goto	l5357
  5043     0457                     l905:	
  5044                           ;../../fw/pp/pp_ops/fw_pp_ops.c: 106:             do { TRISA4 = 0; } while(0);
  5045                           
  5046     0457  0021               	movlb	1	; select bank1
  5047     0458  120C               	bcf	12,4	;volatile
  5048     0459                     l5379:
  5049                           
  5050                           ;../../fw/pp/pp_ops/fw_pp_ops.c: 107:             while (0 < n--) {
  5051     0459  3001               	movlw	1
  5052     045A  0026               	movlb	6	; select bank6
  5053     045B  02DA               	subwf	exec_ops@n^(0+768),f
  5054     045C  0A5A               	incf	exec_ops@n^(0+768),w
  5055     045D  1903               	btfsc	3,2
  5056     045E  2C8B               	goto	l5381
  5057                           
  5058                           ;../../fw/pp/pp_ops/fw_pp_ops.c: 108:                 d = ops[2];
  5059     045F  0025               	movlb	5	; select bank5
  5060     0460  0855               	movf	exec_ops@ops^(0+640),w
  5061     0461  0086               	movwf	6
  5062     0462  0856               	movf	(exec_ops@ops+1)^(0+640),w
  5063     0463  0087               	movwf	7
  5064     0464  3142               	addfsr 1,2
  5065     0465  0801               	movf	1,w
  5066     0466  0026               	movlb	6	; select bank6
  5067     0467  00D9               	movwf	exec_ops@d^(0+768)
  5068                           
  5069                           ;../../fw/pp/pp_ops/fw_pp_ops.c: 109:                 ops++;
  5070     0468  3001               	movlw	1
  5071     0469  0025               	movlb	5	; select bank5
  5072     046A  07D5               	addwf	exec_ops@ops^(0+640),f
  5073     046B  3000               	movlw	0
  5074     046C  3DD6               	addwfc	(exec_ops@ops+1)^(0+640),f
  5075                           
  5076                           ;../../fw/pp/pp_ops/fw_pp_ops.c: 110:                 for (i = 0; i < 8; i++) {
  5077     046D  0026               	movlb	6	; select bank6
  5078     046E  01DB               	clrf	exec_ops@i^(0+768)
  5079     046F                     l911:	
  5080                           ;../../fw/pp/pp_ops/fw_pp_ops.c: 111:                     do { LATA4 = (d & 0x80) ? 1 : 
      +                          0; } while(0);
  5081                           
  5082     046F  1FD9               	btfss	exec_ops@d^(0+768),7
  5083     0470  2C74               	goto	u5980
  5084     0471  0022               	movlb	2	; select bank2
  5085     0472  160C               	bsf	12,4	;volatile
  5086     0473  2C76               	goto	l913
  5087     0474                     u5980:
  5088     0474  0022               	movlb	2	; select bank2
  5089     0475  120C               	bcf	12,4	;volatile
  5090     0476                     l913:	
  5091                           ;../../fw/pp/pp_ops/fw_pp_ops.c: 112:                     do { __nop(); } while(0);
  5092                           
  5093     0476  0000               	nop
  5094                           
  5095                           ;../../fw/pp/pp_ops/fw_pp_ops.c: 113:                     do { LATA5 = ((1) ? 1 : 0); } 
      +                          while(0);
  5096     0477  0022               	movlb	2	; select bank2
  5097     0478  168C               	bsf	12,5	;volatile
  5098                           
  5099                           ;../../fw/pp/pp_ops/fw_pp_ops.c: 114:                     do { __nop(); } while(0);
  5100     0479  0000               	nop
  5101                           
  5102                           ;../../fw/pp/pp_ops/fw_pp_ops.c: 115:                     d <<= 1;
  5103     047A  1003               	clrc
  5104     047B  0026               	movlb	6	; select bank6
  5105     047C  0DD9               	rlf	exec_ops@d^(0+768),f
  5106     047D  0022               	movlb	2	; select bank2
  5107     047E  128C               	bcf	12,5	;volatile
  5108     047F  120C               	bcf	12,4	;volatile
  5109                           
  5110                           ;../../fw/pp/pp_ops/fw_pp_ops.c: 118:                 }
  5111     0480  3001               	movlw	1
  5112     0481  0025               	movlb	5	; select bank5
  5113     0482  00D9               	movwf	??_exec_ops^(0+640)
  5114     0483  0859               	movf	??_exec_ops^(0+640),w
  5115     0484  0026               	movlb	6	; select bank6
  5116     0485  07DB               	addwf	exec_ops@i^(0+768),f
  5117     0486  3008               	movlw	8
  5118     0487  025B               	subwf	exec_ops@i^(0+768),w
  5119     0488  1803               	btfsc	3,0
  5120     0489  2C59               	goto	l5379
  5121     048A  2C6F               	goto	l911
  5122     048B                     l5381:
  5123     048B  3003               	movlw	3
  5124     048C  00CE               	movwf	exec_ops@count^(0+768)
  5125     048D                     l5383:
  5126     048D  3001               	movlw	1
  5127     048E  0026               	movlb	6	; select bank6
  5128     048F  02CE               	subwf	exec_ops@count^(0+768),f
  5129     0490  0A4E               	incf	exec_ops@count^(0+768),w
  5130     0491  1903               	btfsc	3,2
  5131     0492  2E8E               	goto	l5523
  5132     0493  0000               	nop
  5133     0494  0000               	nop
  5134     0495  0000               	nop
  5135     0496  2C8D               	goto	l5383
  5136     0497                     l931:
  5137     0497                     l5439:	
  5138                           ;../../fw/pp/pp_ops/fw_pp_ops.c: 124:             while (0 < n--) {
  5139                           
  5140                           
  5141                           ;../../fw/pp/pp_ops/fw_pp_ops.c: 124:             while (0 < n--) {
  5142     0497  3001               	movlw	1
  5143     0498  0026               	movlb	6	; select bank6
  5144     0499  02DA               	subwf	exec_ops@n^(0+768),f
  5145     049A  0A5A               	incf	exec_ops@n^(0+768),w
  5146     049B  1903               	btfsc	3,2
  5147     049C  2E8E               	goto	l5523
  5148                           
  5149                           ;../../fw/pp/pp_ops/fw_pp_ops.c: 126:                 send_bits(pp_params[PP_PARAM_CMD1]
      +                          , pp_params[PP_PARAM_CMD1_LEN]);
  5150     049D  0834               	movf	(_pp_params^(0+768)+2),w
  5151     049E  0025               	movlb	5	; select bank5
  5152     049F  00B6               	movwf	send_bits@len^(0+640)
  5153     04A0  0026               	movlb	6	; select bank6
  5154     04A1  0833               	movf	(_pp_params^(0+768)+1),w
  5155     04A2  3192  22A0  3183   	fcall	_send_bits
  5156     04A5  0026               	movlb	6	; select bank6
  5157     04A6  0835               	movf	(_pp_params^(0+768)+3),w
  5158     04A7  00CF               	movwf	exec_ops@count_1781^(0+768)
  5159     04A8                     l5389:
  5160     04A8  3001               	movlw	1
  5161     04A9  0026               	movlb	6	; select bank6
  5162     04AA  02CF               	subwf	exec_ops@count_1781^(0+768),f
  5163     04AB  0A4F               	incf	exec_ops@count_1781^(0+768),w
  5164     04AC  1903               	btfsc	3,2
  5165     04AD  2CB2               	goto	l939
  5166     04AE  0000               	nop
  5167     04AF  0000               	nop
  5168     04B0  0000               	nop
  5169     04B1  2CA8               	goto	l5389
  5170     04B2                     l939:	
  5171                           ;../../fw/pp/pp_ops/fw_pp_ops.c: 129:                 do { TRISA4 = 1; } while(0);
  5172                           
  5173     04B2  0021               	movlb	1	; select bank1
  5174     04B3  160C               	bsf	12,4	;volatile
  5175                           
  5176                           ;../../fw/pp/pp_ops/fw_pp_ops.c: 130:                 dummy_locks(pp_params[PP_PARAM_PRE
      +                          FIX_LEN]);
  5177     04B4  0026               	movlb	6	; select bank6
  5178     04B5  0839               	movf	(_pp_params^(0+768)+7),w
  5179     04B6  3191  2165  3183   	fcall	_dummy_locks
  5180                           
  5181                           ;../../fw/pp/pp_ops/fw_pp_ops.c: 131:                 d = 0;
  5182     04B9  0026               	movlb	6	; select bank6
  5183     04BA  01D9               	clrf	exec_ops@d^(0+768)
  5184                           
  5185                           ;../../fw/pp/pp_ops/fw_pp_ops.c: 132:                 txbuf_len = 0;
  5186     04BB  01D8               	clrf	exec_ops@txbuf_len^(0+768)
  5187                           
  5188                           ;../../fw/pp/pp_ops/fw_pp_ops.c: 133:                 for (i = 0; i < pp_params[PP_PARAM
      +                          _DATA_LEN]; i++) {
  5189     04BC  01DB               	clrf	exec_ops@i^(0+768)
  5190     04BD                     l5409:
  5191     04BD  083A               	movf	(_pp_params^(0+768)+8),w
  5192     04BE  025B               	subwf	exec_ops@i^(0+768),w
  5193     04BF  1803               	btfsc	3,0
  5194     04C0  2CEF               	goto	l5411
  5195                           
  5196                           ;../../fw/pp/pp_ops/fw_pp_ops.c: 135:                     do { LATA5 = ((1) ? 1 : 0); } 
      +                          while(0);
  5197     04C1  0022               	movlb	2	; select bank2
  5198     04C2  168C               	bsf	12,5	;volatile
  5199                           
  5200                           ;../../fw/pp/pp_ops/fw_pp_ops.c: 136:                     do { __nop(); } while(0);
  5201     04C3  0000               	nop
  5202                           
  5203                           ;../../fw/pp/pp_ops/fw_pp_ops.c: 137:                     do { LATA5 = ((0) ? 1 : 0); } 
      +                          while(0);
  5204     04C4  0022               	movlb	2	; select bank2
  5205     04C5  128C               	bcf	12,5	;volatile
  5206                           
  5207                           ;../../fw/pp/pp_ops/fw_pp_ops.c: 138:                     d = (uint8_t)(d << 1) | (((POR
      +                          TAbits.RA4)) ? 1 : 0);
  5208     04C6  0020               	movlb	0	; select bank0
  5209     04C7  0E0C               	swapf	12,w	;volatile
  5210     04C8  3901               	andlw	1
  5211     04C9  0025               	movlb	5	; select bank5
  5212     04CA  00D9               	movwf	??_exec_ops^(0+640)
  5213     04CB  0026               	movlb	6	; select bank6
  5214     04CC  3559               	lslf	exec_ops@d^(0+768),w
  5215     04CD  0025               	movlb	5	; select bank5
  5216     04CE  0459               	iorwf	??_exec_ops^(0+640),w
  5217     04CF  0026               	movlb	6	; select bank6
  5218     04D0  00D9               	movwf	exec_ops@d^(0+768)
  5219                           
  5220                           ;../../fw/pp/pp_ops/fw_pp_ops.c: 139:                     if ((i % 8) == 7) {
  5221     04D1  3007               	movlw	7
  5222     04D2  055B               	andwf	exec_ops@i^(0+768),w
  5223     04D3  0025               	movlb	5	; select bank5
  5224     04D4  00D9               	movwf	??_exec_ops^(0+640)
  5225     04D5  3007               	movlw	7
  5226     04D6  0659               	xorwf	??_exec_ops^(0+640),w
  5227     04D7  1D03               	btfss	3,2
  5228     04D8  2CE8               	goto	l5407
  5229                           
  5230                           ;../../fw/pp/pp_ops/fw_pp_ops.c: 140:                         txbuf[txbuf_len++] = d;
  5231     04D9  0026               	movlb	6	; select bank6
  5232     04DA  0858               	movf	exec_ops@txbuf_len^(0+768),w
  5233     04DB  3E46               	addlw	(low (exec_ops@txbuf| (0+768)))& (0+255)
  5234     04DC  0086               	movwf	6
  5235     04DD  3003               	movlw	3	; select bank6/7
  5236     04DE  0087               	movwf	7
  5237     04DF  0859               	movf	exec_ops@d^(0+768),w
  5238     04E0  0081               	movwf	1
  5239     04E1  3001               	movlw	1
  5240     04E2  0025               	movlb	5	; select bank5
  5241     04E3  00D9               	movwf	??_exec_ops^(0+640)
  5242     04E4  0859               	movf	??_exec_ops^(0+640),w
  5243     04E5  0026               	movlb	6	; select bank6
  5244     04E6  07D8               	addwf	exec_ops@txbuf_len^(0+768),f
  5245                           
  5246                           ;../../fw/pp/pp_ops/fw_pp_ops.c: 141:                         d = 0;
  5247     04E7  01D9               	clrf	exec_ops@d^(0+768)
  5248     04E8                     l5407:
  5249                           
  5250                           ;../../fw/pp/pp_ops/fw_pp_ops.c: 143:                 }
  5251     04E8  3001               	movlw	1
  5252     04E9  0025               	movlb	5	; select bank5
  5253     04EA  00D9               	movwf	??_exec_ops^(0+640)
  5254     04EB  0859               	movf	??_exec_ops^(0+640),w
  5255     04EC  0026               	movlb	6	; select bank6
  5256     04ED  07DB               	addwf	exec_ops@i^(0+768),f
  5257     04EE  2CBD               	goto	l5409
  5258     04EF                     l5411:
  5259                           
  5260                           ;../../fw/pp/pp_ops/fw_pp_ops.c: 144:                 if ((i % 8) != 0) {
  5261     04EF  085B               	movf	exec_ops@i^(0+768),w
  5262     04F0  3907               	andlw	7
  5263     04F1  1903               	btfsc	3,2
  5264     04F2  2D0A               	goto	l5419
  5265                           
  5266                           ;../../fw/pp/pp_ops/fw_pp_ops.c: 145:                     d <<= (8 - (i % 8));
  5267     04F3  085B               	movf	exec_ops@i^(0+768),w
  5268     04F4  3907               	andlw	7
  5269     04F5  3C08               	sublw	8
  5270     04F6  0A89               	incf	9,f
  5271     04F7  2CFA               	goto	u6070
  5272     04F8                     u6075:
  5273     04F8  1003               	clrc
  5274     04F9  0DD9               	rlf	exec_ops@d^(0+768),f
  5275     04FA                     u6070:
  5276     04FA  3EFF               	addlw	-1
  5277     04FB  1D03               	skipz
  5278     04FC  2CF8               	goto	u6075
  5279                           
  5280                           ;../../fw/pp/pp_ops/fw_pp_ops.c: 146:                     txbuf[txbuf_len++] = d;
  5281     04FD  0858               	movf	exec_ops@txbuf_len^(0+768),w
  5282     04FE  3E46               	addlw	(low (exec_ops@txbuf| (0+768)))& (0+255)
  5283     04FF  0086               	movwf	6
  5284     0500  3003               	movlw	3	; select bank6/7
  5285     0501  0087               	movwf	7
  5286     0502  0859               	movf	exec_ops@d^(0+768),w
  5287     0503  0081               	movwf	1
  5288     0504  3001               	movlw	1
  5289     0505  0025               	movlb	5	; select bank5
  5290     0506  00D9               	movwf	??_exec_ops^(0+640)
  5291     0507  0859               	movf	??_exec_ops^(0+640),w
  5292     0508  0026               	movlb	6	; select bank6
  5293     0509  07D8               	addwf	exec_ops@txbuf_len^(0+768),f
  5294     050A                     l5419:
  5295                           
  5296                           ;../../fw/pp/pp_ops/fw_pp_ops.c: 148:                 dummy_locks(pp_params[PP_PARAM_POS
      +                          TFIX_LEN]);
  5297     050A  083B               	movf	(_pp_params^(0+768)+9),w
  5298     050B  3191  2165  3183   	fcall	_dummy_locks
  5299     050E  0026               	movlb	6	; select bank6
  5300     050F  0838               	movf	(_pp_params^(0+768)+6),w
  5301     0510  00D0               	movwf	exec_ops@count_1783^(0+768)
  5302     0511                     l5423:
  5303     0511  3001               	movlw	1
  5304     0512  0026               	movlb	6	; select bank6
  5305     0513  02D0               	subwf	exec_ops@count_1783^(0+768),f
  5306     0514  0A50               	incf	exec_ops@count_1783^(0+768),w
  5307     0515  1903               	btfsc	3,2
  5308     0516  2D1B               	goto	l5425
  5309     0517  0000               	nop
  5310     0518  0000               	nop
  5311     0519  0000               	nop
  5312     051A  2D11               	goto	l5423
  5313     051B                     l5425:
  5314                           
  5315                           ;../../fw/pp/pp_ops/fw_pp_ops.c: 151:                 send_bits(pp_params[PP_PARAM_CMD2]
      +                          , pp_params[PP_PARAM_CMD2_LEN]);
  5316     051B  0837               	movf	(_pp_params^(0+768)+5),w
  5317     051C  0025               	movlb	5	; select bank5
  5318     051D  00B6               	movwf	send_bits@len^(0+640)
  5319     051E  0026               	movlb	6	; select bank6
  5320     051F  0836               	movf	(_pp_params^(0+768)+4),w
  5321     0520  3192  22A0  3183   	fcall	_send_bits
  5322     0523  0026               	movlb	6	; select bank6
  5323     0524  083C               	movf	(_pp_params^(0+768)+10),w
  5324     0525  00D1               	movwf	exec_ops@count_1784^(0+768)
  5325     0526                     l5429:
  5326     0526  3001               	movlw	1
  5327     0527  0026               	movlb	6	; select bank6
  5328     0528  02D1               	subwf	exec_ops@count_1784^(0+768),f
  5329     0529  0A51               	incf	exec_ops@count_1784^(0+768),w
  5330     052A  1903               	btfsc	3,2
  5331     052B  2D30               	goto	l5431
  5332     052C  0000               	nop
  5333     052D  0000               	nop
  5334     052E  0000               	nop
  5335     052F  2D26               	goto	l5429
  5336     0530                     l5431:
  5337                           
  5338                           ;../../fw/pp/pp_ops/fw_pp_ops.c: 154:                 for (i = 0; i < txbuf_len; i++) {
  5339     0530  01DB               	clrf	exec_ops@i^(0+768)
  5340     0531                     l5437:
  5341     0531  0858               	movf	exec_ops@txbuf_len^(0+768),w
  5342     0532  025B               	subwf	exec_ops@i^(0+768),w
  5343     0533  1803               	btfsc	3,0
  5344     0534  2C97               	goto	l5439
  5345     0535  085B               	movf	exec_ops@i^(0+768),w
  5346     0536  3E46               	addlw	(low (exec_ops@txbuf| (0+768)))& (0+255)
  5347     0537  0086               	movwf	6
  5348     0538  3003               	movlw	3	; select bank6/7
  5349     0539  0087               	movwf	7
  5350     053A  0801               	movf	1,w
  5351     053B  0025               	movlb	5	; select bank5
  5352     053C  00D2               	movwf	pp_send_res_byte@data^(0+640)
  5353     053D  0026               	movlb	6	; select bank6
  5354     053E  0825               	movf	(_sendback+1)^(0+768),w
  5355     053F  008A               	movwf	10
  5356     0540  0824               	movf	_sendback^(0+768),w
  5357     0541  000A               	callw
  5358     0542  3183               	pagesel	$
  5359                           
  5360                           ;../../fw/pp/pp_ops/fw_pp_ops.c: 157:                 }
  5361     0543  3001               	movlw	1
  5362     0544  0025               	movlb	5	; select bank5
  5363     0545  00D9               	movwf	??_exec_ops^(0+640)
  5364     0546  0859               	movf	??_exec_ops^(0+640),w
  5365     0547  0026               	movlb	6	; select bank6
  5366     0548  07DB               	addwf	exec_ops@i^(0+768),f
  5367     0549  2D31               	goto	l5437
  5368     054A                     l972:
  5369     054A                     l5489:	
  5370                           ;../../fw/pp/pp_ops/fw_pp_ops.c: 162:             while (0 < n--) {
  5371                           
  5372                           
  5373                           ;../../fw/pp/pp_ops/fw_pp_ops.c: 162:             while (0 < n--) {
  5374     054A  3001               	movlw	1
  5375     054B  0026               	movlb	6	; select bank6
  5376     054C  02DA               	subwf	exec_ops@n^(0+768),f
  5377     054D  0A5A               	incf	exec_ops@n^(0+768),w
  5378     054E  1903               	btfsc	3,2
  5379     054F  2E8E               	goto	l5523
  5380                           
  5381                           ;../../fw/pp/pp_ops/fw_pp_ops.c: 164:                 send_bits(pp_params[PP_PARAM_CMD1]
      +                          , pp_params[PP_PARAM_CMD1_LEN]);
  5382     0550  0834               	movf	(_pp_params^(0+768)+2),w
  5383     0551  0025               	movlb	5	; select bank5
  5384     0552  00B6               	movwf	send_bits@len^(0+640)
  5385     0553  0026               	movlb	6	; select bank6
  5386     0554  0833               	movf	(_pp_params^(0+768)+1),w
  5387     0555  3192  22A0  3183   	fcall	_send_bits
  5388     0558  0026               	movlb	6	; select bank6
  5389     0559  0835               	movf	(_pp_params^(0+768)+3),w
  5390     055A  00D2               	movwf	exec_ops@count_1785^(0+768)
  5391     055B                     l5445:
  5392     055B  3001               	movlw	1
  5393     055C  0026               	movlb	6	; select bank6
  5394     055D  02D2               	subwf	exec_ops@count_1785^(0+768),f
  5395     055E  0A52               	incf	exec_ops@count_1785^(0+768),w
  5396     055F  1903               	btfsc	3,2
  5397     0560  2D65               	goto	l980
  5398     0561  0000               	nop
  5399     0562  0000               	nop
  5400     0563  0000               	nop
  5401     0564  2D5B               	goto	l5445
  5402     0565                     l980:	
  5403                           ;../../fw/pp/pp_ops/fw_pp_ops.c: 167:                 do { LATA4 = (0) ? 1 : 0; } while(
      +                          0);
  5404                           
  5405     0565  0022               	movlb	2	; select bank2
  5406     0566  120C               	bcf	12,4	;volatile
  5407                           
  5408                           ;../../fw/pp/pp_ops/fw_pp_ops.c: 168:                 dummy_locks(pp_params[PP_PARAM_PRE
      +                          FIX_LEN]);
  5409     0567  0026               	movlb	6	; select bank6
  5410     0568  0839               	movf	(_pp_params^(0+768)+7),w
  5411     0569  3191  2165  3183   	fcall	_dummy_locks
  5412                           
  5413                           ;../../fw/pp/pp_ops/fw_pp_ops.c: 169:                 d = ops[2];
  5414     056C  0855               	movf	exec_ops@ops^(0+640),w
  5415     056D  0086               	movwf	6
  5416     056E  0856               	movf	(exec_ops@ops+1)^(0+640),w
  5417     056F  0087               	movwf	7
  5418     0570  3142               	addfsr 1,2
  5419     0571  0801               	movf	1,w
  5420     0572  0026               	movlb	6	; select bank6
  5421     0573  00D9               	movwf	exec_ops@d^(0+768)
  5422                           
  5423                           ;../../fw/pp/pp_ops/fw_pp_ops.c: 170:                 ops++;
  5424     0574  3001               	movlw	1
  5425     0575  0025               	movlb	5	; select bank5
  5426     0576  07D5               	addwf	exec_ops@ops^(0+640),f
  5427     0577  3000               	movlw	0
  5428     0578  3DD6               	addwfc	(exec_ops@ops+1)^(0+640),f
  5429                           
  5430                           ;../../fw/pp/pp_ops/fw_pp_ops.c: 171:                 for (i = 0; i < pp_params[PP_PARAM
      +                          _DATA_LEN]; i++) {
  5431     0579  0026               	movlb	6	; select bank6
  5432     057A  01DB               	clrf	exec_ops@i^(0+768)
  5433     057B                     l5469:
  5434     057B  083A               	movf	(_pp_params^(0+768)+8),w
  5435     057C  025B               	subwf	exec_ops@i^(0+768),w
  5436     057D  1803               	btfsc	3,0
  5437     057E  2DAA               	goto	l5471
  5438                           
  5439                           ;../../fw/pp/pp_ops/fw_pp_ops.c: 172:                     do { LATA4 = (d & 0x80) ? 1 : 
      +                          0; } while(0);
  5440     057F  1FD9               	btfss	exec_ops@d^(0+768),7
  5441     0580  2D84               	goto	u6130
  5442     0581  0022               	movlb	2	; select bank2
  5443     0582  160C               	bsf	12,4	;volatile
  5444     0583  2D86               	goto	l5455
  5445     0584                     u6130:
  5446     0584  0022               	movlb	2	; select bank2
  5447     0585  120C               	bcf	12,4	;volatile
  5448     0586                     l5455:
  5449                           
  5450                           ;../../fw/pp/pp_ops/fw_pp_ops.c: 173:                     d <<= 1;
  5451     0586  1003               	clrc
  5452     0587  0026               	movlb	6	; select bank6
  5453     0588  0DD9               	rlf	exec_ops@d^(0+768),f
  5454     0589  0022               	movlb	2	; select bank2
  5455     058A  168C               	bsf	12,5	;volatile
  5456                           
  5457                           ;../../fw/pp/pp_ops/fw_pp_ops.c: 176:                     if ((i % 8) == 7) {
  5458     058B  3007               	movlw	7
  5459     058C  0026               	movlb	6	; select bank6
  5460     058D  055B               	andwf	exec_ops@i^(0+768),w
  5461     058E  0025               	movlb	5	; select bank5
  5462     058F  00D9               	movwf	??_exec_ops^(0+640)
  5463     0590  3007               	movlw	7
  5464     0591  0659               	xorwf	??_exec_ops^(0+640),w
  5465     0592  1D03               	btfss	3,2
  5466     0593  2DA1               	goto	l5465
  5467                           
  5468                           ;../../fw/pp/pp_ops/fw_pp_ops.c: 177:                         d = ops[2];
  5469     0594  0855               	movf	exec_ops@ops^(0+640),w
  5470     0595  0086               	movwf	6
  5471     0596  0856               	movf	(exec_ops@ops+1)^(0+640),w
  5472     0597  0087               	movwf	7
  5473     0598  3142               	addfsr 1,2
  5474     0599  0801               	movf	1,w
  5475     059A  0026               	movlb	6	; select bank6
  5476     059B  00D9               	movwf	exec_ops@d^(0+768)
  5477                           
  5478                           ;../../fw/pp/pp_ops/fw_pp_ops.c: 179:                         ops++;
  5479     059C  3001               	movlw	1
  5480     059D  0025               	movlb	5	; select bank5
  5481     059E  07D5               	addwf	exec_ops@ops^(0+640),f
  5482     059F  3000               	movlw	0
  5483     05A0  3DD6               	addwfc	(exec_ops@ops+1)^(0+640),f
  5484     05A1                     l5465:
  5485     05A1  0022               	movlb	2	; select bank2
  5486     05A2  128C               	bcf	12,5	;volatile
  5487                           
  5488                           ;../../fw/pp/pp_ops/fw_pp_ops.c: 183:                 }
  5489     05A3  3001               	movlw	1
  5490     05A4  0025               	movlb	5	; select bank5
  5491     05A5  00D9               	movwf	??_exec_ops^(0+640)
  5492     05A6  0859               	movf	??_exec_ops^(0+640),w
  5493     05A7  0026               	movlb	6	; select bank6
  5494     05A8  07DB               	addwf	exec_ops@i^(0+768),f
  5495     05A9  2D7B               	goto	l5469
  5496     05AA                     l5471:
  5497                           
  5498                           ;../../fw/pp/pp_ops/fw_pp_ops.c: 184:                 if ((i % 8) == 0) {
  5499     05AA  085B               	movf	exec_ops@i^(0+768),w
  5500     05AB  3907               	andlw	7
  5501     05AC  1D03               	btfss	3,2
  5502     05AD  2DB3               	goto	l5475
  5503                           
  5504                           ;../../fw/pp/pp_ops/fw_pp_ops.c: 185:                     ops--;
  5505     05AE  3001               	movlw	1
  5506     05AF  0025               	movlb	5	; select bank5
  5507     05B0  02D5               	subwf	exec_ops@ops^(0+640),f
  5508     05B1  3000               	movlw	0
  5509     05B2  3BD6               	subwfb	(exec_ops@ops+1)^(0+640),f
  5510     05B3                     l5475:
  5511     05B3  0022               	movlb	2	; select bank2
  5512     05B4  120C               	bcf	12,4	;volatile
  5513                           
  5514                           ;../../fw/pp/pp_ops/fw_pp_ops.c: 188:                 dummy_locks(pp_params[PP_PARAM_POS
      +                          TFIX_LEN]);
  5515     05B5  0026               	movlb	6	; select bank6
  5516     05B6  083B               	movf	(_pp_params^(0+768)+9),w
  5517     05B7  3191  2165  3183   	fcall	_dummy_locks
  5518     05BA  0026               	movlb	6	; select bank6
  5519     05BB  0838               	movf	(_pp_params^(0+768)+6),w
  5520     05BC  00D3               	movwf	exec_ops@count_1786^(0+768)
  5521     05BD                     l5481:
  5522     05BD  3001               	movlw	1
  5523     05BE  0026               	movlb	6	; select bank6
  5524     05BF  02D3               	subwf	exec_ops@count_1786^(0+768),f
  5525     05C0  0A53               	incf	exec_ops@count_1786^(0+768),w
  5526     05C1  1903               	btfsc	3,2
  5527     05C2  2DC7               	goto	l5483
  5528     05C3  0000               	nop
  5529     05C4  0000               	nop
  5530     05C5  0000               	nop
  5531     05C6  2DBD               	goto	l5481
  5532     05C7                     l5483:
  5533                           
  5534                           ;../../fw/pp/pp_ops/fw_pp_ops.c: 191:                 send_bits(pp_params[PP_PARAM_CMD2]
      +                          , pp_params[PP_PARAM_CMD2_LEN]);
  5535     05C7  0837               	movf	(_pp_params^(0+768)+5),w
  5536     05C8  0025               	movlb	5	; select bank5
  5537     05C9  00B6               	movwf	send_bits@len^(0+640)
  5538     05CA  0026               	movlb	6	; select bank6
  5539     05CB  0836               	movf	(_pp_params^(0+768)+4),w
  5540     05CC  3192  22A0  3183   	fcall	_send_bits
  5541     05CF  0026               	movlb	6	; select bank6
  5542     05D0  083C               	movf	(_pp_params^(0+768)+10),w
  5543     05D1  00D4               	movwf	exec_ops@count_1787^(0+768)
  5544     05D2                     l5487:
  5545     05D2  3001               	movlw	1
  5546     05D3  0026               	movlb	6	; select bank6
  5547     05D4  02D4               	subwf	exec_ops@count_1787^(0+768),f
  5548     05D5  0A54               	incf	exec_ops@count_1787^(0+768),w
  5549     05D6  1903               	btfsc	3,2
  5550     05D7  2D4A               	goto	l5489
  5551     05D8  0000               	nop
  5552     05D9  0000               	nop
  5553     05DA  0000               	nop
  5554     05DB  2DD2               	goto	l5487
  5555     05DC                     l1010:
  5556     05DC  0026               	movlb	6	; select bank6
  5557     05DD  085A               	movf	exec_ops@n^(0+768),w
  5558     05DE  00D5               	movwf	exec_ops@count_1788^(0+768)
  5559     05DF                     l5493:
  5560     05DF  3001               	movlw	1
  5561     05E0  0026               	movlb	6	; select bank6
  5562     05E1  02D5               	subwf	exec_ops@count_1788^(0+768),f
  5563     05E2  0A55               	incf	exec_ops@count_1788^(0+768),w
  5564     05E3  1903               	btfsc	3,2
  5565     05E4  2E8E               	goto	l5523
  5566     05E5  0000               	nop
  5567     05E6  0000               	nop
  5568     05E7  0000               	nop
  5569     05E8  2DDF               	goto	l5493
  5570     05E9                     l1018:
  5571     05E9                     l5499:	
  5572                           ;../../fw/pp/pp_ops/fw_pp_ops.c: 201:             while (0 < n--)
  5573                           
  5574                           
  5575                           ;../../fw/pp/pp_ops/fw_pp_ops.c: 201:             while (0 < n--)
  5576     05E9  3001               	movlw	1
  5577     05EA  0026               	movlb	6	; select bank6
  5578     05EB  02DA               	subwf	exec_ops@n^(0+768),f
  5579     05EC  0A5A               	incf	exec_ops@n^(0+768),w
  5580     05ED  1903               	btfsc	3,2
  5581     05EE  2E8E               	goto	l5523
  5582     05EF  300A               	movlw	10
  5583     05F0  00D6               	movwf	exec_ops@count_1789^(0+768)
  5584     05F1                     l5497:
  5585     05F1  3001               	movlw	1
  5586     05F2  0026               	movlb	6	; select bank6
  5587     05F3  02D6               	subwf	exec_ops@count_1789^(0+768),f
  5588     05F4  0A56               	incf	exec_ops@count_1789^(0+768),w
  5589     05F5  1903               	btfsc	3,2
  5590     05F6  2DE9               	goto	l5499
  5591     05F7  0000               	nop
  5592     05F8  0000               	nop
  5593     05F9  0000               	nop
  5594     05FA  2DF1               	goto	l5497
  5595     05FB                     l5501:
  5596                           
  5597                           ;../../fw/pp/pp_ops/fw_pp_ops.c: 206:             n10 = n * 10;
  5598     05FB  0026               	movlb	6	; select bank6
  5599     05FC  085A               	movf	exec_ops@n^(0+768),w
  5600     05FD  0025               	movlb	5	; select bank5
  5601     05FE  00D9               	movwf	??_exec_ops^(0+640)
  5602     05FF  01DA               	clrf	(??_exec_ops^(0+640)+1)
  5603     0600  0859               	movf	??_exec_ops^(0+640),w
  5604     0601  00B6               	movwf	___wmul@multiplier^(0+640)
  5605     0602  085A               	movf	(??_exec_ops+1)^(0+640),w
  5606     0603  00B7               	movwf	(___wmul@multiplier+1)^(0+640)
  5607     0604  300A               	movlw	10
  5608     0605  00B8               	movwf	___wmul@multiplicand^(0+640)
  5609     0606  3000               	movlw	0
  5610     0607  00B9               	movwf	(___wmul@multiplicand^(0+640)+1)
  5611     0608  3192  2211  3183   	fcall	___wmul
  5612     060B  0837               	movf	(?___wmul+1)^(0+640),w
  5613     060C  0026               	movlb	6	; select bank6
  5614     060D  00CD               	movwf	(exec_ops@n10+1)^(0+768)
  5615     060E  0025               	movlb	5	; select bank5
  5616     060F  0836               	movf	?___wmul^(0+640),w
  5617     0610  0026               	movlb	6	; select bank6
  5618     0611  00CC               	movwf	exec_ops@n10^(0+768)
  5619     0612                     l5507:	
  5620                           ;../../fw/pp/pp_ops/fw_pp_ops.c: 207:             while (0 < n10--)
  5621                           
  5622                           
  5623                           ;../../fw/pp/pp_ops/fw_pp_ops.c: 207:             while (0 < n10--)
  5624     0612  3001               	movlw	1
  5625     0613  02CC               	subwf	exec_ops@n10^(0+768),f
  5626     0614  3000               	movlw	0
  5627     0615  3BCD               	subwfb	(exec_ops@n10+1)^(0+768),f
  5628     0616  0A4C               	incf	exec_ops@n10^(0+768),w
  5629     0617  1903               	btfsc	3,2
  5630     0618  0A4D               	incf	(exec_ops@n10+1)^(0+768),w
  5631     0619  1903               	btfsc	3,2
  5632     061A  2E8E               	goto	l5523
  5633     061B  3064               	movlw	100
  5634     061C  00D7               	movwf	exec_ops@count_1790^(0+768)
  5635     061D                     l5505:
  5636     061D  3001               	movlw	1
  5637     061E  0026               	movlb	6	; select bank6
  5638     061F  02D7               	subwf	exec_ops@count_1790^(0+768),f
  5639     0620  0A57               	incf	exec_ops@count_1790^(0+768),w
  5640     0621  1903               	btfsc	3,2
  5641     0622  2E12               	goto	l5507
  5642     0623  0000               	nop
  5643     0624  0000               	nop
  5644     0625  0000               	nop
  5645     0626  2E1D               	goto	l5505
  5646     0627                     l1040:
  5647     0627  0026               	movlb	6	; select bank6
  5648     0628  085A               	movf	exec_ops@n^(0+768),w
  5649     0629  0025               	movlb	5	; select bank5
  5650     062A  00D2               	movwf	pp_send_res_byte@data^(0+640)
  5651     062B  0026               	movlb	6	; select bank6
  5652     062C  0825               	movf	(_sendback+1)^(0+768),w
  5653     062D  008A               	movwf	10
  5654     062E  0824               	movf	_sendback^(0+768),w
  5655     062F  000A               	callw
  5656     0630  3183               	pagesel	$
  5657     0631  2E8E               	goto	l5523
  5658     0632                     l5511:
  5659                           
  5660                           ;../../fw/pp/pp_ops/fw_pp_ops.c: 216:             pp_params[n] = ops[2];
  5661     0632  0026               	movlb	6	; select bank6
  5662     0633  085A               	movf	exec_ops@n^(0+768),w
  5663     0634  3E32               	addlw	(low (_pp_params| (0+768)))& (0+255)
  5664     0635  0086               	movwf	6
  5665     0636  3003               	movlw	3	; select bank6/7
  5666     0637  0087               	movwf	7
  5667     0638  0025               	movlb	5	; select bank5
  5668     0639  0855               	movf	exec_ops@ops^(0+640),w
  5669     063A  0084               	movwf	4
  5670     063B  0856               	movf	(exec_ops@ops+1)^(0+640),w
  5671     063C  0085               	movwf	5
  5672     063D  3102               	addfsr 0,2
  5673     063E  0800               	movf	0,w
  5674     063F  0081               	movwf	1
  5675                           
  5676                           ;../../fw/pp/pp_ops/fw_pp_ops.c: 217:             ops++;
  5677     0640  3001               	movlw	1
  5678     0641  07D5               	addwf	exec_ops@ops^(0+640),f
  5679     0642  3000               	movlw	0
  5680     0643  3DD6               	addwfc	(exec_ops@ops+1)^(0+640),f
  5681                           
  5682                           ;../../fw/pp/pp_ops/fw_pp_ops.c: 218:             break;
  5683     0644  2E8E               	goto	l5523
  5684     0645                     l5515:
  5685                           
  5686                           ;../../fw/pp/pp_ops/fw_pp_ops.c: 221:             memset(pp_params, 0, sizeof(pp_params)
      +                          );
  5687     0645  3032               	movlw	low _pp_params
  5688     0646  00B6               	movwf	memset@dest^(0+640)
  5689     0647  3003               	movlw	high _pp_params
  5690     0648  00B7               	movwf	(memset@dest+1)^(0+640)
  5691     0649  3000               	movlw	0
  5692     064A  00B8               	movwf	memset@c^(0+640)
  5693     064B  00B9               	movwf	(memset@c+1)^(0+640)
  5694     064C  300B               	movlw	11
  5695     064D  00BA               	movwf	memset@n^(0+640)
  5696     064E  3000               	movlw	0
  5697     064F  00BB               	movwf	(memset@n^(0+640)+1)
  5698     0650  3191  2190  3183   	fcall	_memset
  5699                           
  5700                           ;../../fw/pp/pp_ops/fw_pp_ops.c: 222:             ops -= 1;
  5701     0653  3001               	movlw	1
  5702     0654  02D5               	subwf	exec_ops@ops^(0+640),f
  5703     0655  3000               	movlw	0
  5704     0656  3BD6               	subwfb	(exec_ops@ops+1)^(0+640),f
  5705                           
  5706                           ;../../fw/pp/pp_ops/fw_pp_ops.c: 223:             break;
  5707     0657  2E8E               	goto	l5523
  5708     0658                     l5521:
  5709     0658  0025               	movlb	5	; select bank5
  5710     0659  0855               	movf	exec_ops@ops^(0+640),w
  5711     065A  0086               	movwf	6
  5712     065B  0856               	movf	(exec_ops@ops+1)^(0+640),w
  5713     065C  0087               	movwf	7
  5714     065D  0801               	movf	1,w
  5715     065E  00D9               	movwf	??_exec_ops^(0+640)
  5716     065F  01DA               	clrf	(??_exec_ops^(0+640)+1)
  5717                           
  5718                           ; Switch on 2 bytes has been partitioned into a top level switch of size 1, and 1 sub-sw
      +                          itches
  5719                           ; Switch size 1, requested type "simple"
  5720                           ; Number of cases is 1, Range of values is 0 to 0
  5721                           ; switch strategies available:
  5722                           ; Name         Instructions Cycles
  5723                           ; simple_byte            4     3 (average)
  5724                           ; direct_byte            8     6 (fixed)
  5725                           ; jumptable            260     6 (fixed)
  5726                           ;	Chosen strategy is simple_byte
  5727     0660  085A               	movf	(??_exec_ops+1)^(0+640),w
  5728     0661  3A00               	xorlw	0	; case 0
  5729     0662  1903               	skipnz
  5730     0663  2E65               	goto	l6113
  5731     0664  2E8E               	goto	l5523
  5732     0665                     l6113:
  5733                           
  5734                           ; Switch size 1, requested type "simple"
  5735                           ; Number of cases is 13, Range of values is 1 to 13
  5736                           ; switch strategies available:
  5737                           ; Name         Instructions Cycles
  5738                           ; direct_byte           35     9 (fixed)
  5739                           ; simple_byte           40    21 (average)
  5740                           ; jumptable            263     9 (fixed)
  5741                           ;	Chosen strategy is simple_byte
  5742     0665  0859               	movf	??_exec_ops^(0+640),w
  5743     0666  3A01               	xorlw	1	; case 1
  5744     0667  1903               	skipnz
  5745     0668  2BFE               	goto	l857
  5746     0669  3A03               	xorlw	3	; case 2
  5747     066A  1903               	skipnz
  5748     066B  2C07               	goto	l862
  5749     066C  3A01               	xorlw	1	; case 3
  5750     066D  1903               	skipnz
  5751     066E  2C17               	goto	l873
  5752     066F  3A07               	xorlw	7	; case 4
  5753     0670  1903               	skipnz
  5754     0671  2C27               	goto	l5341
  5755     0672  3A01               	xorlw	1	; case 5
  5756     0673  1903               	skipnz
  5757     0674  2C57               	goto	l905
  5758     0675  3A03               	xorlw	3	; case 6
  5759     0676  1903               	skipnz
  5760     0677  2C97               	goto	l931
  5761     0678  3A01               	xorlw	1	; case 7
  5762     0679  1903               	skipnz
  5763     067A  2D4A               	goto	l972
  5764     067B  3A0F               	xorlw	15	; case 8
  5765     067C  1903               	skipnz
  5766     067D  2DDC               	goto	l1010
  5767     067E  3A01               	xorlw	1	; case 9
  5768     067F  1903               	skipnz
  5769     0680  2DE9               	goto	l1018
  5770     0681  3A03               	xorlw	3	; case 10
  5771     0682  1903               	skipnz
  5772     0683  2DFB               	goto	l5501
  5773     0684  3A01               	xorlw	1	; case 11
  5774     0685  1903               	skipnz
  5775     0686  2E27               	goto	l1040
  5776     0687  3A07               	xorlw	7	; case 12
  5777     0688  1903               	skipnz
  5778     0689  2E32               	goto	l5511
  5779     068A  3A01               	xorlw	1	; case 13
  5780     068B  1903               	skipnz
  5781     068C  2E45               	goto	l5515
  5782     068D  2E8E               	goto	l5523
  5783     068E                     l5523:
  5784                           
  5785                           ;../../fw/pp/pp_ops/fw_pp_ops.c: 228:         ops += 2;
  5786     068E  3002               	movlw	2
  5787     068F  0025               	movlb	5	; select bank5
  5788     0690  07D5               	addwf	exec_ops@ops^(0+640),f
  5789     0691  3000               	movlw	0
  5790     0692  3DD6               	addwfc	(exec_ops@ops+1)^(0+640),f
  5791     0693  2BE9               	goto	l851
  5792     0694                     __end_of_exec_ops:
  5793                           
  5794                           	psect	text14
  5795     12A0                     __ptext14:	
  5796 ;; *************** function _send_bits *****************
  5797 ;; Defined at:
  5798 ;;		line 28 in file "../../fw/pp/pp_ops/fw_pp_ops.c"
  5799 ;; Parameters:    Size  Location     Type
  5800 ;;  d               1    wreg     unsigned char 
  5801 ;;  len             1    0[BANK5 ] unsigned char 
  5802 ;; Auto vars:     Size  Location     Type
  5803 ;;  d               1    2[BANK5 ] unsigned char 
  5804 ;;  i               1    3[BANK5 ] unsigned char 
  5805 ;; Return value:  Size  Location     Type
  5806 ;;                  1    wreg      void 
  5807 ;; Registers used:
  5808 ;;		wreg, status,2, status,0
  5809 ;; Tracked objects:
  5810 ;;		On entry : 1F/6
  5811 ;;		On exit  : 1F/5
  5812 ;;		Unchanged: 0/0
  5813 ;; Data sizes:     COMMON   BANK0   BANK1   BANK2   BANK3   BANK4   BANK5   BANK6   BANK7   BANK8   BANK9  BANK10  BANK1
      +1  BANK12
  5814 ;;      Params:         0       0       0       0       0       0       1       0       0       0       0       0       
      +0       0
  5815 ;;      Locals:         0       0       0       0       0       0       2       0       0       0       0       0       
      +0       0
  5816 ;;      Temps:          0       0       0       0       0       0       1       0       0       0       0       0       
      +0       0
  5817 ;;      Totals:         0       0       0       0       0       0       4       0       0       0       0       0       
      +0       0
  5818 ;;Total ram usage:        4 bytes
  5819 ;; Hardware stack levels used: 1
  5820 ;; Hardware stack levels required when called: 10
  5821 ;; This function calls:
  5822 ;;		Nothing
  5823 ;; This function is called by:
  5824 ;;		_exec_ops
  5825 ;; This function uses a non-reentrant model
  5826 ;;
  5827                           
  5828     12A0                     _send_bits:	
  5829                           ;psect for function _send_bits
  5830                           
  5831                           
  5832                           ;incstack = 0
  5833                           ; Regs used in _send_bits: [wreg+status,2+status,0]
  5834                           ;send_bits@d stored from wreg
  5835     12A0  0025               	movlb	5	; select bank5
  5836     12A1  00B8               	movwf	send_bits@d^(0+640)
  5837                           
  5838                           ;../../fw/pp/pp_ops/fw_pp_ops.c: 32:     do { TRISA4 = 0; } while(0);
  5839     12A2  0021               	movlb	1	; select bank1
  5840     12A3  120C               	bcf	12,4	;volatile
  5841                           
  5842                           ;../../fw/pp/pp_ops/fw_pp_ops.c: 33:     for (uint8_t i = 0; i < len; i++) {
  5843     12A4  0025               	movlb	5	; select bank5
  5844     12A5  01B9               	clrf	send_bits@i^(0+640)
  5845     12A6                     l5275:
  5846     12A6  0836               	movf	send_bits@len^(0+640),w
  5847     12A7  0239               	subwf	send_bits@i^(0+640),w
  5848     12A8  1803               	btfsc	3,0
  5849     12A9  0008               	return
  5850                           
  5851                           ;../../fw/pp/pp_ops/fw_pp_ops.c: 34:         do { LATA4 = (d & 0x80) ? 1 : 0; } while(0)
      +                          ;
  5852     12AA  1FB8               	btfss	send_bits@d^(0+640),7
  5853     12AB  2AAF               	goto	u5760
  5854     12AC  0022               	movlb	2	; select bank2
  5855     12AD  160C               	bsf	12,4	;volatile
  5856     12AE  2AB1               	goto	l825
  5857     12AF                     u5760:
  5858     12AF  0022               	movlb	2	; select bank2
  5859     12B0  120C               	bcf	12,4	;volatile
  5860     12B1                     l825:	
  5861                           ;../../fw/pp/pp_ops/fw_pp_ops.c: 35:         do { __nop(); } while(0);
  5862                           
  5863     12B1  0000               	nop
  5864                           
  5865                           ;../../fw/pp/pp_ops/fw_pp_ops.c: 36:         do { LATA5 = ((1) ? 1 : 0); } while(0);
  5866     12B2  0022               	movlb	2	; select bank2
  5867     12B3  168C               	bsf	12,5	;volatile
  5868                           
  5869                           ;../../fw/pp/pp_ops/fw_pp_ops.c: 38:         d <<= 1;
  5870     12B4  1003               	clrc
  5871     12B5  0025               	movlb	5	; select bank5
  5872     12B6  0DB8               	rlf	send_bits@d^(0+640),f
  5873     12B7  0022               	movlb	2	; select bank2
  5874     12B8  128C               	bcf	12,5	;volatile
  5875     12B9  120C               	bcf	12,4	;volatile
  5876                           
  5877                           ;../../fw/pp/pp_ops/fw_pp_ops.c: 41:     }
  5878     12BA  3001               	movlw	1
  5879     12BB  0025               	movlb	5	; select bank5
  5880     12BC  00B7               	movwf	??_send_bits^(0+640)
  5881     12BD  0837               	movf	??_send_bits^(0+640),w
  5882     12BE  07B9               	addwf	send_bits@i^(0+640),f
  5883     12BF  2AA6               	goto	l5275
  5884     12C0                     __end_of_send_bits:
  5885                           
  5886                           	psect	text15
  5887     13EB                     __ptext15:	
  5888 ;; *************** function _pp_send_res_byte *****************
  5889 ;; Defined at:
  5890 ;;		line 209 in file "../main.c"
  5891 ;; Parameters:    Size  Location     Type
  5892 ;;  data            1   28[BANK5 ] unsigned char 
  5893 ;; Auto vars:     Size  Location     Type
  5894 ;;		None
  5895 ;; Return value:  Size  Location     Type
  5896 ;;                  1    wreg      void 
  5897 ;; Registers used:
  5898 ;;		wreg, fsr0l, fsr0h, fsr1l, fsr1h, status,2, status,0, pclath, cstack
  5899 ;; Tracked objects:
  5900 ;;		On entry : 1F/6
  5901 ;;		On exit  : 1F/0
  5902 ;;		Unchanged: 0/0
  5903 ;; Data sizes:     COMMON   BANK0   BANK1   BANK2   BANK3   BANK4   BANK5   BANK6   BANK7   BANK8   BANK9  BANK10  BANK1
      +1  BANK12
  5904 ;;      Params:         0       0       0       0       0       0       1       0       0       0       0       0       
      +0       0
  5905 ;;      Locals:         0       0       0       0       0       0       0       0       0       0       0       0       
      +0       0
  5906 ;;      Temps:          0       0       0       0       0       0       2       0       0       0       0       0       
      +0       0
  5907 ;;      Totals:         0       0       0       0       0       0       3       0       0       0       0       0       
      +0       0
  5908 ;;Total ram usage:        3 bytes
  5909 ;; Hardware stack levels used: 1
  5910 ;; Hardware stack levels required when called: 14
  5911 ;; This function calls:
  5912 ;;		_usb_in_endpoint_halted
  5913 ;;		_usb_send_data
  5914 ;; This function is called by:
  5915 ;;		_main
  5916 ;;		_exec_ops
  5917 ;;		_pp_process
  5918 ;; This function uses a non-reentrant model
  5919 ;;
  5920                           
  5921     13EB                     _pp_send_res_byte:	
  5922                           ;psect for function _pp_send_res_byte
  5923                           
  5924                           
  5925                           ;../main.c: 209: void pp_send_res_byte(uint8_t data);../main.c: 210: {;../main.c: 211:  
      +                             pp_res_buf[pp_res_buf_len++] = data;
  5926                           
  5927                           ;incstack = 0
  5928                           ; Regs used in _pp_send_res_byte: [wreg-fsr1h+status,2+status,0+pclath+cstack]
  5929     13EB  0020               	movlb	0	; select bank0
  5930     13EC  086F               	movf	_pp_res_buf_len,w
  5931     13ED  3E20               	addlw	(low (_pp_res_buf| (0+1024)))& (0+255)
  5932     13EE  0086               	movwf	6
  5933     13EF  3004               	movlw	4	; select bank8/9
  5934     13F0  0087               	movwf	7
  5935     13F1  0025               	movlb	5	; select bank5
  5936     13F2  0852               	movf	pp_send_res_byte@data^(0+640),w
  5937     13F3  0081               	movwf	1
  5938     13F4  3001               	movlw	1
  5939     13F5  00D3               	movwf	??_pp_send_res_byte^(0+640)
  5940     13F6  0853               	movf	??_pp_send_res_byte^(0+640),w
  5941     13F7  0020               	movlb	0	; select bank0
  5942     13F8  07EF               	addwf	_pp_res_buf_len,f
  5943                           
  5944                           ;../main.c: 212:     if (sizeof(pp_res_buf) <= pp_res_buf_len) {
  5945     13F9  3020               	movlw	32
  5946     13FA  026F               	subwf	_pp_res_buf_len,w
  5947     13FB  1C03               	skipc
  5948     13FC  0008               	return
  5949                           
  5950                           ;../main.c: 213:         if (!usb_in_endpoint_halted(4)) {
  5951     13FD  3004               	movlw	4
  5952     13FE  3192  222C  3193   	fcall	_usb_in_endpoint_halted
  5953     1401  3A00               	xorlw	0
  5954     1402  1D03               	skipz
  5955     1403  2C14               	goto	l5261
  5956                           
  5957                           ;../main.c: 214:             usb_send_data(2, pp_res_buf, pp_res_buf_len);
  5958     1404  3020               	movlw	low _pp_res_buf
  5959     1405  00CB               	movwf	usb_send_data@data^(0+640)
  5960     1406  3004               	movlw	high _pp_res_buf
  5961     1407  00CC               	movwf	(usb_send_data@data+1)^(0+640)
  5962     1408  0020               	movlb	0	; select bank0
  5963     1409  086F               	movf	_pp_res_buf_len,w
  5964     140A  0025               	movlb	5	; select bank5
  5965     140B  00D3               	movwf	??_pp_send_res_byte^(0+640)
  5966     140C  01D4               	clrf	(??_pp_send_res_byte^(0+640)+1)
  5967     140D  0853               	movf	??_pp_send_res_byte^(0+640),w
  5968     140E  00CD               	movwf	usb_send_data@len^(0+640)
  5969     140F  0854               	movf	(??_pp_send_res_byte+1)^(0+640),w
  5970     1410  00CE               	movwf	(usb_send_data@len+1)^(0+640)
  5971     1411  3002               	movlw	2
  5972     1412  3193  239C         	fcall	_usb_send_data
  5973     1414                     l5261:
  5974                           
  5975                           ;../main.c: 216:         pp_res_buf_len = 0;
  5976     1414  0020               	movlb	0	; select bank0
  5977     1415  01EF               	clrf	_pp_res_buf_len
  5978     1416  0008               	return
  5979     1417                     __end_of_pp_send_res_byte:
  5980                           
  5981                           	psect	text16
  5982     1190                     __ptext16:	
  5983 ;; *************** function _memset *****************
  5984 ;; Defined at:
  5985 ;;		line 3 in file "/opt/microchip/xc8/v2.45/pic/sources/c99/common/memset.c"
  5986 ;; Parameters:    Size  Location     Type
  5987 ;;  dest            2    0[BANK5 ] PTR void 
  5988 ;;		 -> pp_params(11), UEP0(1), bds(40), 
  5989 ;;  c               2    2[BANK5 ] int 
  5990 ;;  n               2    4[BANK5 ] unsigned int 
  5991 ;; Auto vars:     Size  Location     Type
  5992 ;;  p               2    6[BANK5 ] PTR unsigned char 
  5993 ;;		 -> pp_params(11), UEP0(1), bds(40), 
  5994 ;; Return value:  Size  Location     Type
  5995 ;;                  2    0[BANK5 ] PTR void 
  5996 ;; Registers used:
  5997 ;;		wreg, fsr1l, fsr1h, status,2, status,0
  5998 ;; Tracked objects:
  5999 ;;		On entry : 1F/5
  6000 ;;		On exit  : 1F/5
  6001 ;;		Unchanged: 0/0
  6002 ;; Data sizes:     COMMON   BANK0   BANK1   BANK2   BANK3   BANK4   BANK5   BANK6   BANK7   BANK8   BANK9  BANK10  BANK1
      +1  BANK12
  6003 ;;      Params:         0       0       0       0       0       0       6       0       0       0       0       0       
      +0       0
  6004 ;;      Locals:         0       0       0       0       0       0       2       0       0       0       0       0       
      +0       0
  6005 ;;      Temps:          0       0       0       0       0       0       0       0       0       0       0       0       
      +0       0
  6006 ;;      Totals:         0       0       0       0       0       0       8       0       0       0       0       0       
      +0       0
  6007 ;;Total ram usage:        8 bytes
  6008 ;; Hardware stack levels used: 1
  6009 ;; Hardware stack levels required when called: 10
  6010 ;; This function calls:
  6011 ;;		Nothing
  6012 ;; This function is called by:
  6013 ;;		_init_endpoints
  6014 ;;		_usb_init
  6015 ;;		_exec_ops
  6016 ;; This function uses a non-reentrant model
  6017 ;;
  6018                           
  6019     1190                     _memset:	
  6020                           ;psect for function _memset
  6021                           
  6022                           
  6023                           ;incstack = 0
  6024                           ; Regs used in _memset: [wreg+fsr1l+fsr1h+status,2+status,0]
  6025     1190  0837               	movf	(memset@dest+1)^(0+640),w
  6026     1191  00BD               	movwf	(memset@p+1)^(0+640)
  6027     1192  0836               	movf	memset@dest^(0+640),w
  6028     1193  00BC               	movwf	memset@p^(0+640)
  6029     1194                     l5249:
  6030     1194  3001               	movlw	1
  6031     1195  02BA               	subwf	memset@n^(0+640),f
  6032     1196  3000               	movlw	0
  6033     1197  3BBB               	subwfb	(memset@n+1)^(0+640),f
  6034     1198  0A3A               	incf	memset@n^(0+640),w
  6035     1199  1903               	btfsc	3,2
  6036     119A  0A3B               	incf	(memset@n+1)^(0+640),w
  6037     119B  1903               	btfsc	3,2
  6038     119C  0008               	return
  6039     119D  083C               	movf	memset@p^(0+640),w
  6040     119E  0086               	movwf	6
  6041     119F  083D               	movf	(memset@p+1)^(0+640),w
  6042     11A0  0087               	movwf	7
  6043     11A1  0838               	movf	memset@c^(0+640),w
  6044     11A2  0081               	movwf	1
  6045     11A3  3001               	movlw	1
  6046     11A4  07BC               	addwf	memset@p^(0+640),f
  6047     11A5  3000               	movlw	0
  6048     11A6  3DBD               	addwfc	(memset@p+1)^(0+640),f
  6049     11A7  2994               	goto	l5249
  6050     11A8                     __end_of_memset:
  6051                           
  6052                           	psect	text17
  6053     1165                     __ptext17:	
  6054 ;; *************** function _dummy_locks *****************
  6055 ;; Defined at:
  6056 ;;		line 44 in file "../../fw/pp/pp_ops/fw_pp_ops.c"
  6057 ;; Parameters:    Size  Location     Type
  6058 ;;  n               1    wreg     unsigned char 
  6059 ;; Auto vars:     Size  Location     Type
  6060 ;;  n               1    1[BANK5 ] unsigned char 
  6061 ;;  i               1    2[BANK5 ] unsigned char 
  6062 ;; Return value:  Size  Location     Type
  6063 ;;                  1    wreg      void 
  6064 ;; Registers used:
  6065 ;;		wreg, status,2, status,0
  6066 ;; Tracked objects:
  6067 ;;		On entry : 1F/6
  6068 ;;		On exit  : 1F/5
  6069 ;;		Unchanged: 0/0
  6070 ;; Data sizes:     COMMON   BANK0   BANK1   BANK2   BANK3   BANK4   BANK5   BANK6   BANK7   BANK8   BANK9  BANK10  BANK1
      +1  BANK12
  6071 ;;      Params:         0       0       0       0       0       0       0       0       0       0       0       0       
      +0       0
  6072 ;;      Locals:         0       0       0       0       0       0       2       0       0       0       0       0       
      +0       0
  6073 ;;      Temps:          0       0       0       0       0       0       1       0       0       0       0       0       
      +0       0
  6074 ;;      Totals:         0       0       0       0       0       0       3       0       0       0       0       0       
      +0       0
  6075 ;;Total ram usage:        3 bytes
  6076 ;; Hardware stack levels used: 1
  6077 ;; Hardware stack levels required when called: 10
  6078 ;; This function calls:
  6079 ;;		Nothing
  6080 ;; This function is called by:
  6081 ;;		_exec_ops
  6082 ;; This function uses a non-reentrant model
  6083 ;;
  6084                           
  6085     1165                     _dummy_locks:	
  6086                           ;psect for function _dummy_locks
  6087                           
  6088                           
  6089                           ;incstack = 0
  6090                           ; Regs used in _dummy_locks: [wreg+status,2+status,0]
  6091                           ;dummy_locks@n stored from wreg
  6092     1165  0025               	movlb	5	; select bank5
  6093     1166  00B7               	movwf	dummy_locks@n^(0+640)
  6094                           
  6095                           ;../../fw/pp/pp_ops/fw_pp_ops.c: 44: void dummy_locks(uint8_t n);../../fw/pp/pp_ops/fw_p
      +                          p_ops.c: 45: {;../../fw/pp/pp_ops/fw_pp_ops.c: 46:     for (uint8_t i = 0; i < n; i++) {
  6096     1167  01B8               	clrf	dummy_locks@i^(0+640)
  6097     1168                     l5281:
  6098     1168  0837               	movf	dummy_locks@n^(0+640),w
  6099     1169  0238               	subwf	dummy_locks@i^(0+640),w
  6100     116A  1803               	btfsc	3,0
  6101     116B  0008               	return
  6102                           
  6103                           ;../../fw/pp/pp_ops/fw_pp_ops.c: 47:         do { __nop(); } while(0);
  6104     116C  0000               	nop
  6105                           
  6106                           ;../../fw/pp/pp_ops/fw_pp_ops.c: 48:         do { LATA5 = ((1) ? 1 : 0); } while(0);
  6107     116D  0022               	movlb	2	; select bank2
  6108     116E  168C               	bsf	12,5	;volatile
  6109                           
  6110                           ;../../fw/pp/pp_ops/fw_pp_ops.c: 49:         do { __nop(); } while(0);
  6111     116F  0000               	nop
  6112                           
  6113                           ;../../fw/pp/pp_ops/fw_pp_ops.c: 50:         do { LATA5 = ((0) ? 1 : 0); } while(0);
  6114     1170  0022               	movlb	2	; select bank2
  6115     1171  128C               	bcf	12,5	;volatile
  6116                           
  6117                           ;../../fw/pp/pp_ops/fw_pp_ops.c: 51:     }
  6118     1172  3001               	movlw	1
  6119     1173  0025               	movlb	5	; select bank5
  6120     1174  00B6               	movwf	??_dummy_locks^(0+640)
  6121     1175  0836               	movf	??_dummy_locks^(0+640),w
  6122     1176  07B8               	addwf	dummy_locks@i^(0+640),f
  6123     1177  2968               	goto	l5281
  6124     1178                     __end_of_dummy_locks:
  6125                           
  6126                           	psect	text18
  6127     10F0                     __ptext18:	
  6128 ;; *************** function _pp_init *****************
  6129 ;; Defined at:
  6130 ;;		line 63 in file "../pp.c"
  6131 ;; Parameters:    Size  Location     Type
  6132 ;;  sendbackp       2    0[BANK5 ] PTR FTN(unsigned char ,)
  6133 ;;		 -> pp_send_res_byte(1), 
  6134 ;; Auto vars:     Size  Location     Type
  6135 ;;		None
  6136 ;; Return value:  Size  Location     Type
  6137 ;;                  1    wreg      void 
  6138 ;; Registers used:
  6139 ;;		wreg
  6140 ;; Tracked objects:
  6141 ;;		On entry : 1F/5
  6142 ;;		On exit  : 1F/2
  6143 ;;		Unchanged: 0/0
  6144 ;; Data sizes:     COMMON   BANK0   BANK1   BANK2   BANK3   BANK4   BANK5   BANK6   BANK7   BANK8   BANK9  BANK10  BANK1
      +1  BANK12
  6145 ;;      Params:         0       0       0       0       0       0       2       0       0       0       0       0       
      +0       0
  6146 ;;      Locals:         0       0       0       0       0       0       0       0       0       0       0       0       
      +0       0
  6147 ;;      Temps:          0       0       0       0       0       0       0       0       0       0       0       0       
      +0       0
  6148 ;;      Totals:         0       0       0       0       0       0       2       0       0       0       0       0       
      +0       0
  6149 ;;Total ram usage:        2 bytes
  6150 ;; Hardware stack levels used: 1
  6151 ;; Hardware stack levels required when called: 10
  6152 ;; This function calls:
  6153 ;;		Nothing
  6154 ;; This function is called by:
  6155 ;;		_main
  6156 ;; This function uses a non-reentrant model
  6157 ;;
  6158                           
  6159     10F0                     _pp_init:	
  6160                           ;psect for function _pp_init
  6161                           
  6162                           
  6163                           ;../pp.c: 63: void pp_init(void (*sendbackp)(uint8_t data));../pp.c: 64: {;../pp.c: 65: 
      +                              sendback = sendbackp;
  6164                           
  6165                           ;incstack = 0
  6166                           ; Regs used in _pp_init: [wreg]
  6167     10F0  0837               	movf	(pp_init@sendbackp+1)^(0+640),w
  6168     10F1  0026               	movlb	6	; select bank6
  6169     10F2  00A5               	movwf	(_sendback+1)^(0+768)
  6170     10F3  0025               	movlb	5	; select bank5
  6171     10F4  0836               	movf	pp_init@sendbackp^(0+640),w
  6172     10F5  0026               	movlb	6	; select bank6
  6173     10F6  00A4               	movwf	_sendback^(0+768)
  6174     10F7  0021               	movlb	1	; select bank1
  6175     10F8  168C               	bsf	12,5	;volatile
  6176     10F9  160C               	bsf	12,4	;volatile
  6177     10FA  118E               	bcf	14,3	;volatile
  6178     10FB  0022               	movlb	2	; select bank2
  6179     10FC  158E               	bsf	14,3	;volatile
  6180     10FD  0008               	return
  6181     10FE                     __end_of_pp_init:
  6182                           
  6183                           	psect	text19
  6184     0800                     __ptext19:	
  6185 ;; *************** function _pp_flush_res_byte *****************
  6186 ;; Defined at:
  6187 ;;		line 220 in file "../main.c"
  6188 ;; Parameters:    Size  Location     Type
  6189 ;;		None
  6190 ;; Auto vars:     Size  Location     Type
  6191 ;;		None
  6192 ;; Return value:  Size  Location     Type
  6193 ;;                  1    wreg      void 
  6194 ;; Registers used:
  6195 ;;		wreg, fsr0l, fsr0h, fsr1l, fsr1h, status,2, status,0, pclath, cstack
  6196 ;; Tracked objects:
  6197 ;;		On entry : 1F/6
  6198 ;;		On exit  : 1F/0
  6199 ;;		Unchanged: 0/0
  6200 ;; Data sizes:     COMMON   BANK0   BANK1   BANK2   BANK3   BANK4   BANK5   BANK6   BANK7   BANK8   BANK9  BANK10  BANK1
      +1  BANK12
  6201 ;;      Params:         0       0       0       0       0       0       0       0       0       0       0       0       
      +0       0
  6202 ;;      Locals:         0       0       0       0       0       0       0       0       0       0       0       0       
      +0       0
  6203 ;;      Temps:          0       0       0       0       0       0       2       0       0       0       0       0       
      +0       0
  6204 ;;      Totals:         0       0       0       0       0       0       2       0       0       0       0       0       
      +0       0
  6205 ;;Total ram usage:        2 bytes
  6206 ;; Hardware stack levels used: 1
  6207 ;; Hardware stack levels required when called: 14
  6208 ;; This function calls:
  6209 ;;		_usb_send_data
  6210 ;; This function is called by:
  6211 ;;		_main
  6212 ;; This function uses a non-reentrant model
  6213 ;;
  6214                           
  6215     0800                     _pp_flush_res_byte:	
  6216                           ;psect for function _pp_flush_res_byte
  6217                           
  6218                           
  6219                           ;../main.c: 222:     usb_send_data(2, pp_res_buf, pp_res_buf_len);
  6220                           
  6221                           ;incstack = 0
  6222                           ; Regs used in _pp_flush_res_byte: [wreg-fsr1h+status,2+status,0+pclath+cstack]
  6223     0800  3020               	movlw	low _pp_res_buf
  6224     0801  0025               	movlb	5	; select bank5
  6225     0802  00CB               	movwf	usb_send_data@data^(0+640)
  6226     0803  3004               	movlw	high _pp_res_buf
  6227     0804  00CC               	movwf	(usb_send_data@data+1)^(0+640)
  6228     0805  0020               	movlb	0	; select bank0
  6229     0806  086F               	movf	_pp_res_buf_len,w
  6230     0807  0025               	movlb	5	; select bank5
  6231     0808  00D2               	movwf	??_pp_flush_res_byte^(0+640)
  6232     0809  01D3               	clrf	(??_pp_flush_res_byte^(0+640)+1)
  6233     080A  0852               	movf	??_pp_flush_res_byte^(0+640),w
  6234     080B  00CD               	movwf	usb_send_data@len^(0+640)
  6235     080C  0853               	movf	(??_pp_flush_res_byte+1)^(0+640),w
  6236     080D  00CE               	movwf	(usb_send_data@len+1)^(0+640)
  6237     080E  3002               	movlw	2
  6238     080F  3193  239C         	fcall	_usb_send_data
  6239                           
  6240                           ;../main.c: 223:     pp_res_buf_len = 0;
  6241     0811  0020               	movlb	0	; select bank0
  6242     0812  01EF               	clrf	_pp_res_buf_len
  6243     0813  0008               	return
  6244     0814                     __end_of_pp_flush_res_byte:
  6245                           
  6246                           	psect	text20
  6247     139C                     __ptext20:	
  6248 ;; *************** function _usb_send_data *****************
  6249 ;; Defined at:
  6250 ;;		line 194 in file "../main.c"
  6251 ;; Parameters:    Size  Location     Type
  6252 ;;  ep              1    wreg     unsigned char 
  6253 ;;  data            2   21[BANK5 ] PTR unsigned char 
  6254 ;;		 -> usb_send_debug_hex@buf(8), pp_res_buf(32), uart_rx_buf(32), 
  6255 ;;  len             2   23[BANK5 ] unsigned int 
  6256 ;; Auto vars:     Size  Location     Type
  6257 ;;  ep              1   27[BANK5 ] unsigned char 
  6258 ;;  buf             2   25[BANK5 ] PTR unsigned char 
  6259 ;;		 -> NULL(0), ep_buffers(294), 
  6260 ;; Return value:  Size  Location     Type
  6261 ;;                  1    wreg      void 
  6262 ;; Registers used:
  6263 ;;		wreg, fsr0l, fsr0h, fsr1l, fsr1h, status,2, status,0, pclath, cstack
  6264 ;; Tracked objects:
  6265 ;;		On entry : 1F/5
  6266 ;;		On exit  : 1B/1
  6267 ;;		Unchanged: 0/0
  6268 ;; Data sizes:     COMMON   BANK0   BANK1   BANK2   BANK3   BANK4   BANK5   BANK6   BANK7   BANK8   BANK9  BANK10  BANK1
      +1  BANK12
  6269 ;;      Params:         0       0       0       0       0       0       4       0       0       0       0       0       
      +0       0
  6270 ;;      Locals:         0       0       0       0       0       0       3       0       0       0       0       0       
      +0       0
  6271 ;;      Temps:          0       0       0       0       0       0       0       0       0       0       0       0       
      +0       0
  6272 ;;      Totals:         0       0       0       0       0       0       7       0       0       0       0       0       
      +0       0
  6273 ;;Total ram usage:        7 bytes
  6274 ;; Hardware stack levels used: 1
  6275 ;; Hardware stack levels required when called: 13
  6276 ;; This function calls:
  6277 ;;		_memcpy
  6278 ;;		_usb_get_in_buffer
  6279 ;;		_usb_in_endpoint_busy
  6280 ;;		_usb_send_in_buffer
  6281 ;; This function is called by:
  6282 ;;		_main
  6283 ;;		_pp_send_res_byte
  6284 ;;		_pp_flush_res_byte
  6285 ;; This function uses a non-reentrant model
  6286 ;;
  6287                           
  6288     139C                     _usb_send_data:	
  6289                           ;psect for function _usb_send_data
  6290                           
  6291                           
  6292                           ;incstack = 0
  6293                           ; Regs used in _usb_send_data: [wreg-fsr1h+status,2+status,0+pclath+cstack]
  6294                           ;usb_send_data@ep stored from wreg
  6295     139C  00D1               	movwf	usb_send_data@ep^(0+640)
  6296     139D                     l5223:	
  6297                           ;../main.c: 194: void usb_send_data(uint8_t ep, uint8_t *data, size_t len);../main.c: 19
      +                          5: {;../main.c: 196:     unsigned char *buf;;../main.c: 198:     while (usb_in_endpoint_
      +                          busy(ep))
  6298                           
  6299                           
  6300                           ;../main.c: 198:     while (usb_in_endpoint_busy(ep))
  6301     139D  0851               	movf	usb_send_data@ep^(0+640),w
  6302     139E  3191  211E  3193   	fcall	_usb_in_endpoint_busy
  6303     13A1  3A00               	xorlw	0
  6304     13A2  1D03               	skipz
  6305     13A3  2B9D               	goto	l5223
  6306                           
  6307                           ;../main.c: 200:     buf = usb_get_in_buffer(ep);
  6308     13A4  0851               	movf	usb_send_data@ep^(0+640),w
  6309     13A5  3192  2264  3193   	fcall	_usb_get_in_buffer
  6310     13A8  083D               	movf	(?_usb_get_in_buffer+1)^(0+640),w
  6311     13A9  00D0               	movwf	(usb_send_data@buf+1)^(0+640)
  6312     13AA  083C               	movf	?_usb_get_in_buffer^(0+640),w
  6313     13AB  00CF               	movwf	usb_send_data@buf^(0+640)
  6314                           
  6315                           ;../main.c: 201:     memcpy(buf, data, len);
  6316     13AC  0850               	movf	(usb_send_data@buf+1)^(0+640),w
  6317     13AD  00B7               	movwf	(memcpy@d1+1)^(0+640)
  6318     13AE  084F               	movf	usb_send_data@buf^(0+640),w
  6319     13AF  00B6               	movwf	memcpy@d1^(0+640)
  6320     13B0  084C               	movf	(usb_send_data@data+1)^(0+640),w
  6321     13B1  00B9               	movwf	(memcpy@s1+1)^(0+640)
  6322     13B2  084B               	movf	usb_send_data@data^(0+640),w
  6323     13B3  00B8               	movwf	memcpy@s1^(0+640)
  6324     13B4  084E               	movf	(usb_send_data@len+1)^(0+640),w
  6325     13B5  00BB               	movwf	(memcpy@n+1)^(0+640)
  6326     13B6  084D               	movf	usb_send_data@len^(0+640),w
  6327     13B7  00BA               	movwf	memcpy@n^(0+640)
  6328     13B8  3193  234F  3193   	fcall	_memcpy
  6329                           
  6330                           ;../main.c: 202:     usb_send_in_buffer(ep, len);
  6331     13BB  084E               	movf	(usb_send_data@len+1)^(0+640),w
  6332     13BC  00C2               	movwf	(usb_send_in_buffer@len+1)^(0+640)
  6333     13BD  084D               	movf	usb_send_data@len^(0+640),w
  6334     13BE  00C1               	movwf	usb_send_in_buffer@len^(0+640)
  6335     13BF  0851               	movf	usb_send_data@ep^(0+640),w
  6336     13C0  3195  25F0         	fcall	_usb_send_in_buffer
  6337     13C2  0008               	return
  6338     13C3                     __end_of_usb_send_data:
  6339                           
  6340                           	psect	text21
  6341     15F0                     __ptext21:	
  6342 ;; *************** function _usb_send_in_buffer *****************
  6343 ;; Defined at:
  6344 ;;		line 1531 in file "../m-stack/usb/src/usb.c"
  6345 ;; Parameters:    Size  Location     Type
  6346 ;;  endpoint        1    wreg     unsigned char 
  6347 ;;  len             2   11[BANK5 ] unsigned int 
  6348 ;; Auto vars:     Size  Location     Type
  6349 ;;  endpoint        1   19[BANK5 ] unsigned char 
  6350 ;;  bd              1   20[BANK5 ] PTR struct buffer_descri
  6351 ;;		 -> bds(40), 
  6352 ;;  pid             1   18[BANK5 ] unsigned char 
  6353 ;; Return value:  Size  Location     Type
  6354 ;;                  1    wreg      void 
  6355 ;; Registers used:
  6356 ;;		wreg, fsr1l, fsr1h, status,2, status,0, pclath, cstack
  6357 ;; Tracked objects:
  6358 ;;		On entry : 1F/5
  6359 ;;		On exit  : 1B/1
  6360 ;;		Unchanged: 0/0
  6361 ;; Data sizes:     COMMON   BANK0   BANK1   BANK2   BANK3   BANK4   BANK5   BANK6   BANK7   BANK8   BANK9  BANK10  BANK1
      +1  BANK12
  6362 ;;      Params:         0       0       0       0       0       0       2       0       0       0       0       0       
      +0       0
  6363 ;;      Locals:         0       0       0       0       0       0       3       0       0       0       0       0       
      +0       0
  6364 ;;      Temps:          0       0       0       0       0       0       5       0       0       0       0       0       
      +0       0
  6365 ;;      Totals:         0       0       0       0       0       0      10       0       0       0       0       0       
      +0       0
  6366 ;;Total ram usage:       10 bytes
  6367 ;; Hardware stack levels used: 1
  6368 ;; Hardware stack levels required when called: 12
  6369 ;; This function calls:
  6370 ;;		___wmul
  6371 ;;		_usb_in_endpoint_halted
  6372 ;; This function is called by:
  6373 ;;		_usb_send_data
  6374 ;; This function uses a non-reentrant model
  6375 ;;
  6376                           
  6377     15F0                     _usb_send_in_buffer:	
  6378                           ;psect for function _usb_send_in_buffer
  6379                           
  6380                           
  6381                           ;incstack = 0
  6382                           ; Regs used in _usb_send_in_buffer: [wreg+fsr1l+fsr1h+status,2+status,0+pclath+cstack]
  6383                           ;usb_send_in_buffer@endpoint stored from wreg
  6384     15F0  00C9               	movwf	usb_send_in_buffer@endpoint^(0+640)
  6385                           
  6386                           ;../m-stack/usb/src/usb.c: 1531: void usb_send_in_buffer(uint8_t endpoint, size_t len);.
      +                          ./m-stack/usb/src/usb.c: 1532: {;../m-stack/usb/src/usb.c: 1537:  if (g_configuration > 
      +                          0 && !usb_in_endpoint_halted(endpoint)) {
  6387     15F1  0021               	movlb	1	; select bank1
  6388     15F2  084A               	movf	_g_configuration^(0+128),w
  6389     15F3  1903               	btfsc	3,2
  6390     15F4  0008               	return
  6391     15F5  0025               	movlb	5	; select bank5
  6392     15F6  0849               	movf	usb_send_in_buffer@endpoint^(0+640),w
  6393     15F7  3192  222C  3195   	fcall	_usb_in_endpoint_halted
  6394     15FA  3A00               	xorlw	0
  6395     15FB  1D03               	skipz
  6396     15FC  0008               	return
  6397                           
  6398                           ;../m-stack/usb/src/usb.c: 1538:   uint8_t pid;;../m-stack/usb/src/usb.c: 1539:   struct
      +                           buffer_descriptor *bd;;../m-stack/usb/src/usb.c: 1557:   bd = &bds[(endpoint) * 2 + 1];
  6399     15FD  0849               	movf	usb_send_in_buffer@endpoint^(0+640),w
  6400     15FE  00C3               	movwf	??_usb_send_in_buffer^(0+640)
  6401     15FF  3002               	movlw	2
  6402     1600                     u5645:
  6403     1600  35C3               	lslf	??_usb_send_in_buffer^(0+640),f
  6404     1601  3EFF               	addlw	-1
  6405     1602  1D03               	skipz
  6406     1603  2E00               	goto	u5645
  6407     1604  3543               	lslf	??_usb_send_in_buffer^(0+640),w
  6408     1605  3E24               	addlw	36
  6409     1606  00CA               	movwf	usb_send_in_buffer@bd^(0+640)
  6410                           
  6411                           ;../m-stack/usb/src/usb.c: 1558:   pid = (ep_buf[endpoint].flags & 0x8)? 1 : 0;
  6412     1607  0849               	movf	usb_send_in_buffer@endpoint^(0+640),w
  6413     1608  00C3               	movwf	??_usb_send_in_buffer^(0+640)
  6414     1609  01C4               	clrf	(??_usb_send_in_buffer^(0+640)+1)
  6415     160A  0843               	movf	??_usb_send_in_buffer^(0+640),w
  6416     160B  00B6               	movwf	___wmul@multiplier^(0+640)
  6417     160C  0844               	movf	(??_usb_send_in_buffer+1)^(0+640),w
  6418     160D  00B7               	movwf	(___wmul@multiplier+1)^(0+640)
  6419     160E  3007               	movlw	7
  6420     160F  00B8               	movwf	___wmul@multiplicand^(0+640)
  6421     1610  3000               	movlw	0
  6422     1611  00B9               	movwf	(___wmul@multiplicand^(0+640)+1)
  6423     1612  3192  2211  3195   	fcall	___wmul
  6424     1615  30A6               	movlw	low (_ep_buf+6)
  6425     1616  00C5               	movwf	(??_usb_send_in_buffer+2)^(0+640)
  6426     1617  3003               	movlw	high (_ep_buf+6)
  6427     1618  00C6               	movwf	((??_usb_send_in_buffer+2)^(0+640)+1)
  6428     1619  0836               	movf	?___wmul^(0+640),w
  6429     161A  0745               	addwf	(??_usb_send_in_buffer+2)^(0+640),w
  6430     161B  0086               	movwf	6
  6431     161C  0837               	movf	(?___wmul+1)^(0+640),w
  6432     161D  3D46               	addwfc	(??_usb_send_in_buffer+3)^(0+640),w
  6433     161E  0087               	movwf	7
  6434     161F  1D81               	btfss	1,3
  6435     1620  2E23               	goto	u5650
  6436     1621  3001               	movlw	1
  6437     1622  2E24               	goto	u5660
  6438     1623                     u5650:
  6439     1623  3000               	movlw	0
  6440     1624                     u5660:
  6441     1624  00C8               	movwf	usb_send_in_buffer@pid^(0+640)
  6442                           
  6443                           ;../m-stack/usb/src/usb.c: 1559:   bd->STAT.BDnSTAT = 0;
  6444     1625  084A               	movf	usb_send_in_buffer@bd^(0+640),w
  6445     1626  0086               	movwf	6
  6446     1627  0187               	clrf	7
  6447     1628  0181               	clrf	1
  6448                           
  6449                           ;../m-stack/usb/src/usb.c: 1561:   if (pid)
  6450     1629  0848               	movf	usb_send_in_buffer@pid^(0+640),w
  6451     162A  1903               	btfsc	3,2
  6452     162B  2E36               	goto	l5213
  6453     162C  0A4A               	incf	usb_send_in_buffer@bd^(0+640),w
  6454     162D  0086               	movwf	6
  6455     162E  0187               	clrf	7
  6456     162F  0841               	movf	usb_send_in_buffer@len^(0+640),w
  6457     1630  0081               	movwf	1
  6458     1631  084A               	movf	usb_send_in_buffer@bd^(0+640),w
  6459     1632  0086               	movwf	6
  6460     1633  0187               	clrf	7
  6461     1634  30C8               	movlw	200
  6462     1635  2E3F               	goto	L5
  6463     1636                     l5213:
  6464     1636  0A4A               	incf	usb_send_in_buffer@bd^(0+640),w
  6465     1637  0086               	movwf	6
  6466     1638  0187               	clrf	7
  6467     1639  0841               	movf	usb_send_in_buffer@len^(0+640),w
  6468     163A  0081               	movwf	1
  6469     163B  084A               	movf	usb_send_in_buffer@bd^(0+640),w
  6470     163C  0086               	movwf	6
  6471     163D  0187               	clrf	7
  6472     163E  3088               	movlw	136
  6473     163F                     L5:
  6474     163F  0081               	movwf	1
  6475                           
  6476                           ;../m-stack/usb/src/usb.c: 1568:   ep_buf[endpoint].flags ^= 0x8;
  6477     1640  3008               	movlw	8
  6478     1641  00C3               	movwf	??_usb_send_in_buffer^(0+640)
  6479     1642  0849               	movf	usb_send_in_buffer@endpoint^(0+640),w
  6480     1643  00C4               	movwf	(??_usb_send_in_buffer+1)^(0+640)
  6481     1644  01C5               	clrf	((??_usb_send_in_buffer+1)^(0+640)+1)
  6482     1645  0844               	movf	(??_usb_send_in_buffer+1)^(0+640),w
  6483     1646  00B6               	movwf	___wmul@multiplier^(0+640)
  6484     1647  0845               	movf	(??_usb_send_in_buffer+2)^(0+640),w
  6485     1648  00B7               	movwf	(___wmul@multiplier+1)^(0+640)
  6486     1649  3007               	movlw	7
  6487     164A  00B8               	movwf	___wmul@multiplicand^(0+640)
  6488     164B  3000               	movlw	0
  6489     164C  00B9               	movwf	(___wmul@multiplicand^(0+640)+1)
  6490     164D  3192  2211         	fcall	___wmul
  6491     164F  30A6               	movlw	low (_ep_buf+6)
  6492     1650  00C6               	movwf	(??_usb_send_in_buffer+3)^(0+640)
  6493     1651  3003               	movlw	high (_ep_buf+6)
  6494     1652  00C7               	movwf	((??_usb_send_in_buffer+3)^(0+640)+1)
  6495     1653  0836               	movf	?___wmul^(0+640),w
  6496     1654  0746               	addwf	(??_usb_send_in_buffer+3)^(0+640),w
  6497     1655  0086               	movwf	6
  6498     1656  0837               	movf	(?___wmul+1)^(0+640),w
  6499     1657  3D47               	addwfc	(??_usb_send_in_buffer+4)^(0+640),w
  6500     1658  0087               	movwf	7
  6501     1659  0843               	movf	??_usb_send_in_buffer^(0+640),w
  6502     165A  0681               	xorwf	1,f
  6503     165B  0008               	return
  6504     165C                     __end_of_usb_send_in_buffer:
  6505                           
  6506                           	psect	text22
  6507     122C                     __ptext22:	
  6508 ;; *************** function _usb_in_endpoint_halted *****************
  6509 ;; Defined at:
  6510 ;;		line 1594 in file "../m-stack/usb/src/usb.c"
  6511 ;; Parameters:    Size  Location     Type
  6512 ;;  endpoint        1    wreg     unsigned char 
  6513 ;; Auto vars:     Size  Location     Type
  6514 ;;  endpoint        1   10[BANK5 ] unsigned char 
  6515 ;; Return value:  Size  Location     Type
  6516 ;;                  1    wreg      _Bool 
  6517 ;; Registers used:
  6518 ;;		wreg, fsr1l, fsr1h, status,2, status,0, pclath, cstack
  6519 ;; Tracked objects:
  6520 ;;		On entry : 18/6
  6521 ;;		On exit  : 1F/5
  6522 ;;		Unchanged: 0/0
  6523 ;; Data sizes:     COMMON   BANK0   BANK1   BANK2   BANK3   BANK4   BANK5   BANK6   BANK7   BANK8   BANK9  BANK10  BANK1
      +1  BANK12
  6524 ;;      Params:         0       0       0       0       0       0       0       0       0       0       0       0       
      +0       0
  6525 ;;      Locals:         0       0       0       0       0       0       1       0       0       0       0       0       
      +0       0
  6526 ;;      Temps:          0       0       0       0       0       0       4       0       0       0       0       0       
      +0       0
  6527 ;;      Totals:         0       0       0       0       0       0       5       0       0       0       0       0       
      +0       0
  6528 ;;Total ram usage:        5 bytes
  6529 ;; Hardware stack levels used: 1
  6530 ;; Hardware stack levels required when called: 11
  6531 ;; This function calls:
  6532 ;;		___wmul
  6533 ;; This function is called by:
  6534 ;;		_usb_send_in_buffer
  6535 ;;		_main
  6536 ;;		_pp_send_res_byte
  6537 ;; This function uses a non-reentrant model
  6538 ;;
  6539                           
  6540     122C                     _usb_in_endpoint_halted:	
  6541                           ;psect for function _usb_in_endpoint_halted
  6542                           
  6543                           
  6544                           ;incstack = 0
  6545                           ; Regs used in _usb_in_endpoint_halted: [wreg+fsr1l+fsr1h+status,2+status,0+pclath+cstac
      +                          k]
  6546                           ;usb_in_endpoint_halted@endpoint stored from wreg
  6547     122C  0025               	movlb	5	; select bank5
  6548     122D  00C0               	movwf	usb_in_endpoint_halted@endpoint^(0+640)
  6549                           
  6550                           ;../m-stack/usb/src/usb.c: 1594: _Bool usb_in_endpoint_halted(uint8_t endpoint);../m-sta
      +                          ck/usb/src/usb.c: 1595: {;../m-stack/usb/src/usb.c: 1596:  return ep_buf[endpoint].flags
      +                           & 0x2;
  6551     122E  0840               	movf	usb_in_endpoint_halted@endpoint^(0+640),w
  6552     122F  00BC               	movwf	??_usb_in_endpoint_halted^(0+640)
  6553     1230  01BD               	clrf	(??_usb_in_endpoint_halted^(0+640)+1)
  6554     1231  083C               	movf	??_usb_in_endpoint_halted^(0+640),w
  6555     1232  00B6               	movwf	___wmul@multiplier^(0+640)
  6556     1233  083D               	movf	(??_usb_in_endpoint_halted+1)^(0+640),w
  6557     1234  00B7               	movwf	(___wmul@multiplier+1)^(0+640)
  6558     1235  3007               	movlw	7
  6559     1236  00B8               	movwf	___wmul@multiplicand^(0+640)
  6560     1237  3000               	movlw	0
  6561     1238  00B9               	movwf	(___wmul@multiplicand^(0+640)+1)
  6562     1239  3192  2211         	fcall	___wmul
  6563     123B  30A6               	movlw	low (_ep_buf+6)
  6564     123C  00BE               	movwf	(??_usb_in_endpoint_halted+2)^(0+640)
  6565     123D  3003               	movlw	high (_ep_buf+6)
  6566     123E  00BF               	movwf	((??_usb_in_endpoint_halted+2)^(0+640)+1)
  6567     123F  0836               	movf	?___wmul^(0+640),w
  6568     1240  073E               	addwf	(??_usb_in_endpoint_halted+2)^(0+640),w
  6569     1241  0086               	movwf	6
  6570     1242  0837               	movf	(?___wmul+1)^(0+640),w
  6571     1243  3D3F               	addwfc	(??_usb_in_endpoint_halted+3)^(0+640),w
  6572     1244  0087               	movwf	7
  6573     1245  0801               	movf	1,w
  6574     1246  3902               	andlw	2
  6575     1247  0008               	return
  6576     1248                     __end_of_usb_in_endpoint_halted:
  6577                           
  6578                           	psect	text23
  6579     111E                     __ptext23:	
  6580 ;; *************** function _usb_in_endpoint_busy *****************
  6581 ;; Defined at:
  6582 ;;		line 1573 in file "../m-stack/usb/src/usb.c"
  6583 ;; Parameters:    Size  Location     Type
  6584 ;;  endpoint        1    wreg     unsigned char 
  6585 ;; Auto vars:     Size  Location     Type
  6586 ;;  endpoint        1    1[BANK5 ] unsigned char 
  6587 ;; Return value:  Size  Location     Type
  6588 ;;                  1    wreg      _Bool 
  6589 ;; Registers used:
  6590 ;;		wreg, fsr1l, fsr1h, status,2, status,0
  6591 ;; Tracked objects:
  6592 ;;		On entry : 1F/5
  6593 ;;		On exit  : 1F/5
  6594 ;;		Unchanged: 0/0
  6595 ;; Data sizes:     COMMON   BANK0   BANK1   BANK2   BANK3   BANK4   BANK5   BANK6   BANK7   BANK8   BANK9  BANK10  BANK1
      +1  BANK12
  6596 ;;      Params:         0       0       0       0       0       0       0       0       0       0       0       0       
      +0       0
  6597 ;;      Locals:         0       0       0       0       0       0       1       0       0       0       0       0       
      +0       0
  6598 ;;      Temps:          0       0       0       0       0       0       1       0       0       0       0       0       
      +0       0
  6599 ;;      Totals:         0       0       0       0       0       0       2       0       0       0       0       0       
      +0       0
  6600 ;;Total ram usage:        2 bytes
  6601 ;; Hardware stack levels used: 1
  6602 ;; Hardware stack levels required when called: 10
  6603 ;; This function calls:
  6604 ;;		Nothing
  6605 ;; This function is called by:
  6606 ;;		_usb_send_data
  6607 ;; This function uses a non-reentrant model
  6608 ;;
  6609                           
  6610     111E                     _usb_in_endpoint_busy:	
  6611                           ;psect for function _usb_in_endpoint_busy
  6612                           
  6613                           
  6614                           ;incstack = 0
  6615                           ; Regs used in _usb_in_endpoint_busy: [wreg+fsr1l+fsr1h+status,2+status,0]
  6616                           ;usb_in_endpoint_busy@endpoint stored from wreg
  6617     111E  00B7               	movwf	usb_in_endpoint_busy@endpoint^(0+640)
  6618                           
  6619                           ;../m-stack/usb/src/usb.c: 1573: _Bool usb_in_endpoint_busy(uint8_t endpoint);../m-stack
      +                          /usb/src/usb.c: 1574: {;../m-stack/usb/src/usb.c: 1579:  return bds[(endpoint) * 2 + 1].
      +                          STAT.UOWN;
  6620     111F  0837               	movf	usb_in_endpoint_busy@endpoint^(0+640),w
  6621     1120  00B6               	movwf	??_usb_in_endpoint_busy^(0+640)
  6622     1121  3002               	movlw	2
  6623     1122                     u5685:
  6624     1122  35B6               	lslf	??_usb_in_endpoint_busy^(0+640),f
  6625     1123  3EFF               	addlw	-1
  6626     1124  1D03               	skipz
  6627     1125  2922               	goto	u5685
  6628     1126  3536               	lslf	??_usb_in_endpoint_busy^(0+640),w
  6629     1127  3E24               	addlw	36
  6630     1128  0086               	movwf	6
  6631     1129  0187               	clrf	7
  6632     112A  0D01               	rlf	1,w
  6633     112B  0D01               	rlf	1,w
  6634     112C  3901               	andlw	1
  6635     112D  0008               	return
  6636     112E                     __end_of_usb_in_endpoint_busy:
  6637                           
  6638                           	psect	text24
  6639     1264                     __ptext24:	
  6640 ;; *************** function _usb_get_in_buffer *****************
  6641 ;; Defined at:
  6642 ;;		line 1519 in file "../m-stack/usb/src/usb.c"
  6643 ;; Parameters:    Size  Location     Type
  6644 ;;  endpoint        1    wreg     unsigned char 
  6645 ;; Auto vars:     Size  Location     Type
  6646 ;;  endpoint        1   12[BANK5 ] unsigned char 
  6647 ;; Return value:  Size  Location     Type
  6648 ;;                  2    6[BANK5 ] PTR unsigned char 
  6649 ;; Registers used:
  6650 ;;		wreg, fsr1l, fsr1h, status,2, status,0, pclath, cstack
  6651 ;; Tracked objects:
  6652 ;;		On entry : 1F/5
  6653 ;;		On exit  : 1F/5
  6654 ;;		Unchanged: 0/0
  6655 ;; Data sizes:     COMMON   BANK0   BANK1   BANK2   BANK3   BANK4   BANK5   BANK6   BANK7   BANK8   BANK9  BANK10  BANK1
      +1  BANK12
  6656 ;;      Params:         0       0       0       0       0       0       2       0       0       0       0       0       
      +0       0
  6657 ;;      Locals:         0       0       0       0       0       0       1       0       0       0       0       0       
      +0       0
  6658 ;;      Temps:          0       0       0       0       0       0       4       0       0       0       0       0       
      +0       0
  6659 ;;      Totals:         0       0       0       0       0       0       7       0       0       0       0       0       
      +0       0
  6660 ;;Total ram usage:        7 bytes
  6661 ;; Hardware stack levels used: 1
  6662 ;; Hardware stack levels required when called: 11
  6663 ;; This function calls:
  6664 ;;		___wmul
  6665 ;; This function is called by:
  6666 ;;		_usb_send_data
  6667 ;; This function uses a non-reentrant model
  6668 ;;
  6669                           
  6670     1264                     _usb_get_in_buffer:	
  6671                           ;psect for function _usb_get_in_buffer
  6672                           
  6673                           
  6674                           ;incstack = 0
  6675                           ; Regs used in _usb_get_in_buffer: [wreg+fsr1l+fsr1h+status,2+status,0+pclath+cstack]
  6676                           ;usb_get_in_buffer@endpoint stored from wreg
  6677     1264  00C2               	movwf	usb_get_in_buffer@endpoint^(0+640)
  6678                           
  6679                           ;../m-stack/usb/src/usb.c: 1519: unsigned char *usb_get_in_buffer(uint8_t endpoint);../m
      +                          -stack/usb/src/usb.c: 1520: {;../m-stack/usb/src/usb.c: 1527:  return ep_buf[endpoint].i
      +                          n;
  6680     1265  0842               	movf	usb_get_in_buffer@endpoint^(0+640),w
  6681     1266  00BE               	movwf	??_usb_get_in_buffer^(0+640)
  6682     1267  01BF               	clrf	(??_usb_get_in_buffer^(0+640)+1)
  6683     1268  083E               	movf	??_usb_get_in_buffer^(0+640),w
  6684     1269  00B6               	movwf	___wmul@multiplier^(0+640)
  6685     126A  083F               	movf	(??_usb_get_in_buffer+1)^(0+640),w
  6686     126B  00B7               	movwf	(___wmul@multiplier+1)^(0+640)
  6687     126C  3007               	movlw	7
  6688     126D  00B8               	movwf	___wmul@multiplicand^(0+640)
  6689     126E  3000               	movlw	0
  6690     126F  00B9               	movwf	(___wmul@multiplicand^(0+640)+1)
  6691     1270  3192  2211         	fcall	___wmul
  6692     1272  30A2               	movlw	low (_ep_buf+2)
  6693     1273  00C0               	movwf	(??_usb_get_in_buffer+2)^(0+640)
  6694     1274  3003               	movlw	high (_ep_buf+2)
  6695     1275  00C1               	movwf	((??_usb_get_in_buffer+2)^(0+640)+1)
  6696     1276  0836               	movf	?___wmul^(0+640),w
  6697     1277  0740               	addwf	(??_usb_get_in_buffer+2)^(0+640),w
  6698     1278  0086               	movwf	6
  6699     1279  0837               	movf	(?___wmul+1)^(0+640),w
  6700     127A  3D41               	addwfc	(??_usb_get_in_buffer+3)^(0+640),w
  6701     127B  0087               	movwf	7
  6702     127C  3F40               	moviw [0]fsr1
  6703     127D  00BC               	movwf	?_usb_get_in_buffer^(0+640)
  6704     127E  3F41               	moviw [1]fsr1
  6705     127F  00BD               	movwf	(?_usb_get_in_buffer+1)^(0+640)
  6706     1280  0008               	return
  6707     1281                     __end_of_usb_get_in_buffer:
  6708                           
  6709                           	psect	text25
  6710     1211                     __ptext25:	
  6711 ;; *************** function ___wmul *****************
  6712 ;; Defined at:
  6713 ;;		line 15 in file "/opt/microchip/xc8/v2.45/pic/sources/c99/common/Umul16.c"
  6714 ;; Parameters:    Size  Location     Type
  6715 ;;  multiplier      2    0[BANK5 ] unsigned int 
  6716 ;;  multiplicand    2    2[BANK5 ] unsigned int 
  6717 ;; Auto vars:     Size  Location     Type
  6718 ;;  product         2    4[BANK5 ] unsigned int 
  6719 ;; Return value:  Size  Location     Type
  6720 ;;                  2    0[BANK5 ] unsigned int 
  6721 ;; Registers used:
  6722 ;;		wreg, status,2, status,0
  6723 ;; Tracked objects:
  6724 ;;		On entry : 1F/5
  6725 ;;		On exit  : 1F/5
  6726 ;;		Unchanged: 0/0
  6727 ;; Data sizes:     COMMON   BANK0   BANK1   BANK2   BANK3   BANK4   BANK5   BANK6   BANK7   BANK8   BANK9  BANK10  BANK1
      +1  BANK12
  6728 ;;      Params:         0       0       0       0       0       0       4       0       0       0       0       0       
      +0       0
  6729 ;;      Locals:         0       0       0       0       0       0       2       0       0       0       0       0       
      +0       0
  6730 ;;      Temps:          0       0       0       0       0       0       0       0       0       0       0       0       
      +0       0
  6731 ;;      Totals:         0       0       0       0       0       0       6       0       0       0       0       0       
      +0       0
  6732 ;;Total ram usage:        6 bytes
  6733 ;; Hardware stack levels used: 1
  6734 ;; Hardware stack levels required when called: 10
  6735 ;; This function calls:
  6736 ;;		Nothing
  6737 ;; This function is called by:
  6738 ;;		_pic16_linear_addr
  6739 ;;		_init_endpoints
  6740 ;;		_usb_get_in_buffer
  6741 ;;		_usb_send_in_buffer
  6742 ;;		_usb_in_endpoint_halted
  6743 ;;		_usb_get_out_buffer
  6744 ;;		_usb_arm_out_endpoint
  6745 ;;		_usb_out_endpoint_halted
  6746 ;;		_exec_ops
  6747 ;; This function uses a non-reentrant model
  6748 ;;
  6749                           
  6750     1211                     ___wmul:	
  6751                           ;psect for function ___wmul
  6752                           
  6753                           
  6754                           ;incstack = 0
  6755                           ; Regs used in ___wmul: [wreg+status,2+status,0]
  6756     1211  01BA               	clrf	___wmul@product^(0+640)
  6757     1212  01BB               	clrf	(___wmul@product+1)^(0+640)
  6758     1213                     l5167:
  6759     1213  1C36               	btfss	___wmul@multiplier^(0+640),0
  6760     1214  2A19               	goto	l1121
  6761     1215  0838               	movf	___wmul@multiplicand^(0+640),w
  6762     1216  07BA               	addwf	___wmul@product^(0+640),f
  6763     1217  0839               	movf	(___wmul@multiplicand+1)^(0+640),w
  6764     1218  3DBB               	addwfc	(___wmul@product+1)^(0+640),f
  6765     1219                     l1121:
  6766     1219  3001               	movlw	1
  6767     121A                     u5585:
  6768     121A  35B8               	lslf	___wmul@multiplicand^(0+640),f
  6769     121B  0DB9               	rlf	(___wmul@multiplicand+1)^(0+640),f
  6770     121C  0B89               	decfsz	9,f
  6771     121D  2A1A               	goto	u5585
  6772     121E  3001               	movlw	1
  6773     121F                     u5595:
  6774     121F  36B7               	lsrf	(___wmul@multiplier+1)^(0+640),f
  6775     1220  0CB6               	rrf	___wmul@multiplier^(0+640),f
  6776     1221  0B89               	decfsz	9,f
  6777     1222  2A1F               	goto	u5595
  6778     1223  0836               	movf	___wmul@multiplier^(0+640),w
  6779     1224  0437               	iorwf	(___wmul@multiplier+1)^(0+640),w
  6780     1225  1D03               	btfss	3,2
  6781     1226  2A13               	goto	l5167
  6782     1227  083B               	movf	(___wmul@product+1)^(0+640),w
  6783     1228  00B7               	movwf	(?___wmul+1)^(0+640)
  6784     1229  083A               	movf	___wmul@product^(0+640),w
  6785     122A  00B6               	movwf	?___wmul^(0+640)
  6786     122B  0008               	return
  6787     122C                     __end_of___wmul:
  6788                           
  6789                           	psect	text26
  6790     134F                     __ptext26:	
  6791 ;; *************** function _memcpy *****************
  6792 ;; Defined at:
  6793 ;;		line 4 in file "/opt/microchip/xc8/v2.45/pic/sources/c99/common/memcpy.c"
  6794 ;; Parameters:    Size  Location     Type
  6795 ;;  d1              2    0[BANK5 ] PTR void 
  6796 ;;		 -> transfer_data(7), NULL(0), ep_buffers(294), 
  6797 ;;  s1              2    2[BANK5 ] PTR const void 
  6798 ;;		 -> usb_send_debug_hex@buf(8), pp_res_buf(32), uart_rx_buf(32), func_serial_string(14), 
  6799 ;;		 -> func_prog_string(30), serial_num_string(22), cdc_data_string(38), cdc_interface_string(28), 
  6800 ;;		 -> product_string(24), vendor_string(20), str00(4), configuration_1(131), 
  6801 ;;		 -> transfer_data(7), handle_standard_control_request@ret_617(1), handle_standard_control_request@ret_614(2), handle
      +_standard_control_request@ret(2), 
  6802 ;;		 -> this_device_descriptor(18), g_configuration(1), NULL(0), ep_buffers(294), 
  6803 ;;  n               2    4[BANK5 ] unsigned int 
  6804 ;; Auto vars:     Size  Location     Type
  6805 ;;  s               2    9[BANK5 ] PTR const unsigned char 
  6806 ;;		 -> usb_send_debug_hex@buf(8), pp_res_buf(32), uart_rx_buf(32), func_serial_string(14), 
  6807 ;;		 -> func_prog_string(30), serial_num_string(22), cdc_data_string(38), cdc_interface_string(28), 
  6808 ;;		 -> product_string(24), vendor_string(20), str00(4), configuration_1(131), 
  6809 ;;		 -> transfer_data(7), handle_standard_control_request@ret_617(1), handle_standard_control_request@ret_614(2), handle
      +_standard_control_request@ret(2), 
  6810 ;;		 -> this_device_descriptor(18), g_configuration(1), NULL(0), ep_buffers(294), 
  6811 ;;  d               2    7[BANK5 ] PTR unsigned char 
  6812 ;;		 -> transfer_data(7), NULL(0), ep_buffers(294), 
  6813 ;;  tmp             1    6[BANK5 ] unsigned char 
  6814 ;; Return value:  Size  Location     Type
  6815 ;;                  2    0[BANK5 ] PTR void 
  6816 ;; Registers used:
  6817 ;;		wreg, fsr0l, fsr0h, fsr1l, fsr1h, status,2, status,0, pclath
  6818 ;; Tracked objects:
  6819 ;;		On entry : 1F/5
  6820 ;;		On exit  : 1F/5
  6821 ;;		Unchanged: 0/0
  6822 ;; Data sizes:     COMMON   BANK0   BANK1   BANK2   BANK3   BANK4   BANK5   BANK6   BANK7   BANK8   BANK9  BANK10  BANK1
      +1  BANK12
  6823 ;;      Params:         0       0       0       0       0       0       6       0       0       0       0       0       
      +0       0
  6824 ;;      Locals:         0       0       0       0       0       0       5       0       0       0       0       0       
      +0       0
  6825 ;;      Temps:          0       0       0       0       0       0       0       0       0       0       0       0       
      +0       0
  6826 ;;      Totals:         0       0       0       0       0       0      11       0       0       0       0       0       
      +0       0
  6827 ;;Total ram usage:       11 bytes
  6828 ;; Hardware stack levels used: 1
  6829 ;; Hardware stack levels required when called: 10
  6830 ;; This function calls:
  6831 ;;		Nothing
  6832 ;; This function is called by:
  6833 ;;		_usb_send_data
  6834 ;; This function uses a non-reentrant model
  6835 ;;
  6836                           
  6837     134F                     _memcpy:	
  6838                           ;psect for function _memcpy
  6839                           
  6840                           
  6841                           ;incstack = 0
  6842                           ; Regs used in _memcpy: [wreg-fsr1h+status,2+status,0+pclath]
  6843     134F  0839               	movf	(memcpy@s1+1)^(0+640),w
  6844     1350  00C0               	movwf	(memcpy@s+1)^(0+640)
  6845     1351  0838               	movf	memcpy@s1^(0+640),w
  6846     1352  00BF               	movwf	memcpy@s^(0+640)
  6847     1353  0837               	movf	(memcpy@d1+1)^(0+640),w
  6848     1354  00BE               	movwf	(memcpy@d+1)^(0+640)
  6849     1355  0836               	movf	memcpy@d1^(0+640),w
  6850     1356  00BD               	movwf	memcpy@d^(0+640)
  6851     1357                     l5193:
  6852     1357  3001               	movlw	1
  6853     1358  02BA               	subwf	memcpy@n^(0+640),f
  6854     1359  3000               	movlw	0
  6855     135A  3BBB               	subwfb	(memcpy@n+1)^(0+640),f
  6856     135B  0A3A               	incf	memcpy@n^(0+640),w
  6857     135C  1903               	btfsc	3,2
  6858     135D  0A3B               	incf	(memcpy@n+1)^(0+640),w
  6859     135E  1903               	btfsc	3,2
  6860     135F  0008               	return
  6861     1360  083F               	movf	memcpy@s^(0+640),w
  6862     1361  0084               	movwf	4
  6863     1362  0840               	movf	(memcpy@s+1)^(0+640),w
  6864     1363  0085               	movwf	5
  6865     1364  0800               	movf	0,w	;code access
  6866     1365  00BC               	movwf	memcpy@tmp^(0+640)
  6867     1366  3001               	movlw	1
  6868     1367  07BF               	addwf	memcpy@s^(0+640),f
  6869     1368  3000               	movlw	0
  6870     1369  3DC0               	addwfc	(memcpy@s+1)^(0+640),f
  6871     136A  083D               	movf	memcpy@d^(0+640),w
  6872     136B  0086               	movwf	6
  6873     136C  083E               	movf	(memcpy@d+1)^(0+640),w
  6874     136D  0087               	movwf	7
  6875     136E  083C               	movf	memcpy@tmp^(0+640),w
  6876     136F  0081               	movwf	1
  6877     1370  3001               	movlw	1
  6878     1371  07BD               	addwf	memcpy@d^(0+640),f
  6879     1372  3000               	movlw	0
  6880     1373  3DBE               	addwfc	(memcpy@d+1)^(0+640),f
  6881     1374  2B57               	goto	l5193
  6882     1375                     __end_of_memcpy:
  6883                           
  6884                           	psect	text27
  6885     1074                     __ptext27:	
  6886 ;; *************** function _led_init *****************
  6887 ;; Defined at:
  6888 ;;		line 89 in file "../main.c"
  6889 ;; Parameters:    Size  Location     Type
  6890 ;;		None
  6891 ;; Auto vars:     Size  Location     Type
  6892 ;;		None
  6893 ;; Return value:  Size  Location     Type
  6894 ;;                  1    wreg      void 
  6895 ;; Registers used:
  6896 ;;		None
  6897 ;; Tracked objects:
  6898 ;;		On entry : 1F/1
  6899 ;;		On exit  : 1F/1
  6900 ;;		Unchanged: 0/0
  6901 ;; Data sizes:     COMMON   BANK0   BANK1   BANK2   BANK3   BANK4   BANK5   BANK6   BANK7   BANK8   BANK9  BANK10  BANK1
      +1  BANK12
  6902 ;;      Params:         0       0       0       0       0       0       0       0       0       0       0       0       
      +0       0
  6903 ;;      Locals:         0       0       0       0       0       0       0       0       0       0       0       0       
      +0       0
  6904 ;;      Temps:          0       0       0       0       0       0       0       0       0       0       0       0       
      +0       0
  6905 ;;      Totals:         0       0       0       0       0       0       0       0       0       0       0       0       
      +0       0
  6906 ;;Total ram usage:        0 bytes
  6907 ;; Hardware stack levels used: 1
  6908 ;; Hardware stack levels required when called: 10
  6909 ;; This function calls:
  6910 ;;		Nothing
  6911 ;; This function is called by:
  6912 ;;		_main
  6913 ;; This function uses a non-reentrant model
  6914 ;;
  6915                           
  6916     1074                     _led_init:	
  6917                           ;psect for function _led_init
  6918                           
  6919                           
  6920                           ;../main.c: 92:     LATC2 = 1;
  6921                           
  6922                           ;incstack = 0
  6923                           ; Regs used in _led_init: []
  6924     1074  0022               	movlb	2	; select bank2
  6925     1075  150E               	bsf	14,2	;volatile
  6926                           
  6927                           ;../main.c: 93:     TRISC2 = 0;
  6928     1076  0021               	movlb	1	; select bank1
  6929     1077  110E               	bcf	14,2	;volatile
  6930     1078  0008               	return
  6931     1079                     __end_of_led_init:
  6932                           
  6933                           	psect	text28
  6934     1097                     __ptext28:	
  6935 ;; *************** function _hardware_init *****************
  6936 ;; Defined at:
  6937 ;;		line 202 in file "../hardware.c"
  6938 ;; Parameters:    Size  Location     Type
  6939 ;;		None
  6940 ;; Auto vars:     Size  Location     Type
  6941 ;;		None
  6942 ;; Return value:  Size  Location     Type
  6943 ;;                  1    wreg      void 
  6944 ;; Registers used:
  6945 ;;		wreg, status,2, status,0
  6946 ;; Tracked objects:
  6947 ;;		On entry : B1F/3
  6948 ;;		On exit  : B1F/7
  6949 ;;		Unchanged: B00/0
  6950 ;; Data sizes:     COMMON   BANK0   BANK1   BANK2   BANK3   BANK4   BANK5   BANK6   BANK7   BANK8   BANK9  BANK10  BANK1
      +1  BANK12
  6951 ;;      Params:         0       0       0       0       0       0       0       0       0       0       0       0       
      +0       0
  6952 ;;      Locals:         0       0       0       0       0       0       0       0       0       0       0       0       
      +0       0
  6953 ;;      Temps:          0       0       0       0       0       0       0       0       0       0       0       0       
      +0       0
  6954 ;;      Totals:         0       0       0       0       0       0       0       0       0       0       0       0       
      +0       0
  6955 ;;Total ram usage:        0 bytes
  6956 ;; Hardware stack levels used: 1
  6957 ;; Hardware stack levels required when called: 10
  6958 ;; This function calls:
  6959 ;;		Nothing
  6960 ;; This function is called by:
  6961 ;;		_main
  6962 ;; This function uses a non-reentrant model
  6963 ;;
  6964                           
  6965     1097                     _hardware_init:	
  6966                           ;psect for function _hardware_init
  6967                           
  6968                           
  6969                           ;../hardware.c: 214:  OSCCONbits.IRCF = 0b1111;
  6970                           
  6971                           ;incstack = 0
  6972                           ; Regs used in _hardware_init: [wreg+status,2+status,0]
  6973     1097  303C               	movlw	60
  6974     1098  0021               	movlb	1	; select bank1
  6975     1099  0499               	iorwf	25,f	;volatile
  6976                           
  6977                           ;../hardware.c: 217:  ACTCONbits.ACTSRC = 1;
  6978     109A  0027               	movlb	7	; select bank7
  6979     109B  161B               	bsf	27,4	;volatile
  6980                           
  6981                           ;../hardware.c: 218:  ACTCONbits.ACTEN = 1;
  6982     109C  179B               	bsf	27,7	;volatile
  6983                           
  6984                           ;../hardware.c: 231:   INTCONbits.PEIE = 1;
  6985     109D  170B               	bsf	11,6	;volatile
  6986                           
  6987                           ;../hardware.c: 232:   INTCONbits.GIE = 1;
  6988     109E  178B               	bsf	11,7	;volatile
  6989     109F  0008               	return
  6990     10A0                     __end_of_hardware_init:
  6991                           
  6992                           	psect	intentry
  6993     0004                     __pintentry:	
  6994 ;; *************** function _isr *****************
  6995 ;; Defined at:
  6996 ;;		line 397 in file "../main.c"
  6997 ;; Parameters:    Size  Location     Type
  6998 ;;		None
  6999 ;; Auto vars:     Size  Location     Type
  7000 ;;		None
  7001 ;; Return value:  Size  Location     Type
  7002 ;;                  1    wreg      void 
  7003 ;; Registers used:
  7004 ;;		wreg, fsr0l, fsr0h, fsr1l, fsr1h, status,2, status,0, pclath, cstack
  7005 ;; Tracked objects:
  7006 ;;		On entry : 0/0
  7007 ;;		On exit  : 1F/0
  7008 ;;		Unchanged: 0/0
  7009 ;; Data sizes:     COMMON   BANK0   BANK1   BANK2   BANK3   BANK4   BANK5   BANK6   BANK7   BANK8   BANK9  BANK10  BANK1
      +1  BANK12
  7010 ;;      Params:         0       0       0       0       0       0       0       0       0       0       0       0       
      +0       0
  7011 ;;      Locals:         0       0       0       0       0       0       0       0       0       0       0       0       
      +0       0
  7012 ;;      Temps:          0       0       0       0       0       0       0       0       0       0       0       0       
      +0       0
  7013 ;;      Totals:         0       0       0       0       0       0       0       0       0       0       0       0       
      +0       0
  7014 ;;Total ram usage:        0 bytes
  7015 ;; Hardware stack levels used: 1
  7016 ;; Hardware stack levels required when called: 9
  7017 ;; This function calls:
  7018 ;;		_usb_service
  7019 ;; This function is called by:
  7020 ;;		Interrupt level 1
  7021 ;; This function uses a non-reentrant model
  7022 ;;
  7023                           
  7024     0004                     _isr:
  7025                           
  7026                           ;incstack = 0
  7027 ;; hardware stack exceeded
  7028     0004  147E               	bsf	126,0	;set compiler interrupt flag (level 1)
  7029                           
  7030                           ; Regs used in _isr: [wreg-fsr1h+status,2+status,0+pclath+cstack]
  7031     0005  3180               	pagesel	$
  7032                           
  7033                           ;../main.c: 400:     if (TMR1IF) {
  7034     0006  0020               	movlb	0	; select bank0
  7035     0007  1C11               	btfss	17,0	;volatile
  7036     0008  2816               	goto	i1l5083
  7037                           
  7038                           ;../main.c: 401:         if (0 < turn_on_led)
  7039     0009  0026               	movlb	6	; select bank6
  7040     000A  0829               	movf	_turn_on_led^(0+768),w
  7041     000B  1903               	btfsc	3,2
  7042     000C  280F               	goto	i1l736
  7043                           
  7044                           ;../main.c: 402:             turn_on_led--;
  7045     000D  3001               	movlw	1
  7046     000E  02A9               	subwf	_turn_on_led^(0+768),f
  7047     000F                     i1l736:
  7048                           
  7049                           ;../main.c: 403:         if (0 < uart_rx_flush_timer)
  7050     000F  082C               	movf	_uart_rx_flush_timer^(0+768),w
  7051     0010  1903               	btfsc	3,2
  7052     0011  2814               	goto	i1l5081
  7053                           
  7054                           ;../main.c: 404:             uart_rx_flush_timer--;
  7055     0012  3001               	movlw	1
  7056     0013  02AC               	subwf	_uart_rx_flush_timer^(0+768),f
  7057     0014                     i1l5081:
  7058                           
  7059                           ;../main.c: 405:         TMR1IF = 0;
  7060     0014  0020               	movlb	0	; select bank0
  7061     0015  1011               	bcf	17,0	;volatile
  7062     0016                     i1l5083:
  7063                           
  7064                           ;../main.c: 408:     usb_service();
  7065     0016  318B  234F         	fcall	_usb_service
  7066     0018  107E               	bcf	126,0	;clear compiler interrupt flag (level 1)
  7067     0019  0009               	retfie
  7068     001A                     __end_of_isr:
  7069                           
  7070                           	psect	text30
  7071     0B4F                     __ptext30:	
  7072 ;; *************** function _usb_service *****************
  7073 ;; Defined at:
  7074 ;;		line 1397 in file "../m-stack/usb/src/usb.c"
  7075 ;; Parameters:    Size  Location     Type
  7076 ;;		None
  7077 ;; Auto vars:     Size  Location     Type
  7078 ;;  ep              2   29[BANK1 ] PTR volatile struct .
  7079 ;;		 -> UEP0(1), 
  7080 ;;  pid             1   33[BANK1 ] unsigned char 
  7081 ;;  i               2   31[BANK1 ] int 
  7082 ;; Return value:  Size  Location     Type
  7083 ;;                  1    wreg      void 
  7084 ;; Registers used:
  7085 ;;		wreg, fsr0l, fsr0h, fsr1l, fsr1h, status,2, status,0, pclath, cstack
  7086 ;; Tracked objects:
  7087 ;;		On entry : 1F/0
  7088 ;;		On exit  : 1F/0
  7089 ;;		Unchanged: 0/0
  7090 ;; Data sizes:     COMMON   BANK0   BANK1   BANK2   BANK3   BANK4   BANK5   BANK6   BANK7   BANK8   BANK9  BANK10  BANK1
      +1  BANK12
  7091 ;;      Params:         0       0       0       0       0       0       0       0       0       0       0       0       
      +0       0
  7092 ;;      Locals:         0       0       5       0       0       0       0       0       0       0       0       0       
      +0       0
  7093 ;;      Temps:          0       5       0       0       0       0       0       0       0       0       0       0       
      +0       0
  7094 ;;      Totals:         0       5       5       0       0       0       0       0       0       0       0       0       
      +0       0
  7095 ;;Total ram usage:       10 bytes
  7096 ;; Hardware stack levels used: 1
  7097 ;; Hardware stack levels required when called: 8
  7098 ;; This function calls:
  7099 ;;		_app_in_transaction_complete_callback
  7100 ;;		_app_out_transaction_callback
  7101 ;;		_app_start_of_frame_callback
  7102 ;;		_app_usb_reset_callback
  7103 ;;		_handle_ep0_in
  7104 ;;		_handle_ep0_out
  7105 ;;		_handle_ep0_setup
  7106 ;;		_reset_bd0_out
  7107 ;;		_stall_ep0
  7108 ;;		_stall_ep_in
  7109 ;;		_stall_ep_out
  7110 ;;		i1___wmul
  7111 ;;		i1_usb_init
  7112 ;; This function is called by:
  7113 ;;		_isr
  7114 ;; This function uses a non-reentrant model
  7115 ;;
  7116                           
  7117     0B4F                     _usb_service:	
  7118                           ;psect for function _usb_service
  7119                           
  7120                           
  7121                           ;../m-stack/usb/src/usb.c: 1399:  if (UIRbits.URSTIF) {
  7122                           
  7123                           ;incstack = 0
  7124 ;; hardware stack exceeded
  7125                           ; Regs used in _usb_service: [wreg-fsr1h+status,2+status,0+pclath+cstack]
  7126     0B4F  003D               	movlb	29	; select bank29
  7127     0B50  1C10               	btfss	16,0	;volatile
  7128     0B51  2B5A               	goto	i1l4777
  7129                           
  7130                           ;../m-stack/usb/src/usb.c: 1402:   app_usb_reset_callback();
  7131     0B52  3190  2054  318B   	fcall	_app_usb_reset_callback
  7132                           
  7133                           ;../m-stack/usb/src/usb.c: 1404:   usb_init();
  7134     0B55  3195  252E  318B   	fcall	i1_usb_init
  7135                           
  7136                           ;../m-stack/usb/src/usb.c: 1405:   UIRbits.URSTIF = 0;
  7137     0B58  003D               	movlb	29	; select bank29
  7138     0B59  1010               	bcf	16,0	;volatile
  7139     0B5A                     i1l4777:
  7140                           
  7141                           ;../m-stack/usb/src/usb.c: 1409:  if (UIRbits.STALLIF) {
  7142     0B5A  1E90               	btfss	16,5	;volatile
  7143     0B5B  2B8F               	goto	i1l295
  7144                           
  7145                           ;../m-stack/usb/src/usb.c: 1415:   int i;;../m-stack/usb/src/usb.c: 1416:   for (i = 1; 
      +                          i <= 4; i++) {
  7146     0B5C  3001               	movlw	1
  7147     0B5D  0021               	movlb	1	; select bank1
  7148     0B5E  00BF               	movwf	usb_service@i^(0+128)
  7149     0B5F  3000               	movlw	0
  7150     0B60  00C0               	movwf	(usb_service@i^(0+128)+1)
  7151     0B61                     i1l4783:
  7152                           
  7153                           ;../m-stack/usb/src/usb.c: 1417:    volatile UEP1bits_t *ep = ((UEP1bits_t*) (&UEP0 + 1 
      +                          * (i)));
  7154     0B61  3098               	movlw	152
  7155     0B62  0020               	movlb	0	; select bank0
  7156     0B63  00E8               	movwf	??_usb_service
  7157     0B64  300E               	movlw	14
  7158     0B65  00E9               	movwf	??_usb_service+1
  7159     0B66  0021               	movlb	1	; select bank1
  7160     0B67  083F               	movf	usb_service@i^(0+128),w
  7161     0B68  0020               	movlb	0	; select bank0
  7162     0B69  0768               	addwf	??_usb_service,w
  7163     0B6A  00EA               	movwf	??_usb_service+2
  7164     0B6B  0021               	movlb	1	; select bank1
  7165     0B6C  0840               	movf	(usb_service@i+1)^(0+128),w
  7166     0B6D  0020               	movlb	0	; select bank0
  7167     0B6E  3D69               	addwfc	??_usb_service+1,w
  7168     0B6F  00EB               	movwf	??_usb_service+3
  7169     0B70  086A               	movf	??_usb_service+2,w
  7170     0B71  0021               	movlb	1	; select bank1
  7171     0B72  00BD               	movwf	usb_service@ep^(0+128)
  7172     0B73  0020               	movlb	0	; select bank0
  7173     0B74  086B               	movf	??_usb_service+3,w
  7174     0B75  0021               	movlb	1	; select bank1
  7175     0B76  00BE               	movwf	(usb_service@ep+1)^(0+128)
  7176                           
  7177                           ;../m-stack/usb/src/usb.c: 1418:    ep->EPSTALL = 0;
  7178     0B77  083D               	movf	usb_service@ep^(0+128),w
  7179     0B78  0086               	movwf	6
  7180     0B79  083E               	movf	(usb_service@ep+1)^(0+128),w
  7181     0B7A  0087               	movwf	7
  7182     0B7B  1001               	bcf	1,0
  7183                           
  7184                           ;../m-stack/usb/src/usb.c: 1419:   }
  7185     0B7C  3001               	movlw	1
  7186     0B7D  07BF               	addwf	usb_service@i^(0+128),f
  7187     0B7E  3000               	movlw	0
  7188     0B7F  3DC0               	addwfc	(usb_service@i+1)^(0+128),f
  7189     0B80  0840               	movf	(usb_service@i+1)^(0+128),w
  7190     0B81  3A80               	xorlw	128
  7191     0B82  0020               	movlb	0	; select bank0
  7192     0B83  00E8               	movwf	??_usb_service
  7193     0B84  3080               	movlw	128
  7194     0B85  0268               	subwf	??_usb_service,w
  7195     0B86  1D03               	skipz
  7196     0B87  2B8B               	goto	u507_25
  7197     0B88  3005               	movlw	5
  7198     0B89  0021               	movlb	1	; select bank1
  7199     0B8A  023F               	subwf	usb_service@i^(0+128),w
  7200     0B8B                     u507_25:
  7201     0B8B  1C03               	skipc
  7202     0B8C  2B61               	goto	i1l4783
  7203                           
  7204                           ;../m-stack/usb/src/usb.c: 1421:   UIRbits.STALLIF = 0;
  7205     0B8D  003D               	movlb	29	; select bank29
  7206     0B8E  1290               	bcf	16,5	;volatile
  7207     0B8F                     i1l295:	
  7208                           ;../m-stack/usb/src/usb.c: 1422:  }
  7209                           
  7210                           
  7211                           ;../m-stack/usb/src/usb.c: 1426:  if (UIRbits.TRNIF && UIEbits.TRNIE) {
  7212     0B8F  1990               	btfsc	16,3	;volatile
  7213     0B90  1D92               	btfss	18,3	;volatile
  7214     0B91  2C55               	goto	i1l298
  7215                           
  7216                           ;../m-stack/usb/src/usb.c: 1433:   if (USTATbits.ENDP == 0 && USTATbits.DIR == 0 ) {
  7217     0B92  0C0F               	rrf	15,w	;volatile
  7218     0B93  0020               	movlb	0	; select bank0
  7219     0B94  00E8               	movwf	??_usb_service
  7220     0B95  0CE8               	rrf	??_usb_service,f
  7221     0B96  0C68               	rrf	??_usb_service,w
  7222     0B97  390F               	andlw	15
  7223     0B98  3A00               	xorlw	0
  7224     0B99  1D03               	skipz
  7225     0B9A  2BBE               	goto	i1l4811
  7226     0B9B  003D               	movlb	29	; select bank29
  7227     0B9C  190F               	btfsc	15,2	;volatile
  7228     0B9D  2BBE               	goto	i1l4811
  7229                           
  7230                           ;../m-stack/usb/src/usb.c: 1440:    uint8_t pid = bds[0].STAT.PID;
  7231     0B9E  0020               	movlb	0	; select bank0
  7232     0B9F  0C20               	rrf	32,w
  7233     0BA0  0C89               	rrf	9,f
  7234     0BA1  390F               	andlw	15
  7235     0BA2  0021               	movlb	1	; select bank1
  7236     0BA3  00C1               	movwf	usb_service@pid^(0+128)
  7237                           
  7238                           ;../m-stack/usb/src/usb.c: 1442:    if (pid == PID_SETUP) {
  7239     0BA4  300D               	movlw	13
  7240     0BA5  0641               	xorwf	usb_service@pid^(0+128),w
  7241     0BA6  1D03               	btfss	3,2
  7242     0BA7  2BAC               	goto	i1l4801
  7243                           
  7244                           ;../m-stack/usb/src/usb.c: 1443:     handle_ep0_setup();
  7245     0BA8  3194  24DB  318B   	fcall	_handle_ep0_setup
  7246                           
  7247                           ;../m-stack/usb/src/usb.c: 1444:    }
  7248     0BAB  2BBA               	goto	i1l301
  7249     0BAC                     i1l4801:
  7250     0BAC  3009               	movlw	9
  7251     0BAD  0641               	xorwf	usb_service@pid^(0+128),w
  7252     0BAE  1903               	btfsc	3,2
  7253     0BAF  2BBA               	goto	i1l301
  7254     0BB0  0341               	decf	usb_service@pid^(0+128),w
  7255     0BB1  1D03               	btfss	3,2
  7256     0BB2  2BB7               	goto	i1l4809
  7257                           
  7258                           ;../m-stack/usb/src/usb.c: 1450:     handle_ep0_out();
  7259     0BB3  3188  20B7  318B   	fcall	_handle_ep0_out
  7260                           
  7261                           ;../m-stack/usb/src/usb.c: 1451:    }
  7262     0BB6  2BBA               	goto	i1l301
  7263     0BB7                     i1l4809:
  7264                           
  7265                           ;../m-stack/usb/src/usb.c: 1455:     stall_ep0();
  7266     0BB7  3190  2084  318B   	fcall	_stall_ep0
  7267     0BBA                     i1l301:
  7268                           
  7269                           ;../m-stack/usb/src/usb.c: 1458:    reset_bd0_out();
  7270     0BBA  3190  208A  318B   	fcall	_reset_bd0_out
  7271                           
  7272                           ;../m-stack/usb/src/usb.c: 1459:   }
  7273     0BBD  2C53               	goto	i1l306
  7274     0BBE                     i1l4811:
  7275     0BBE  003D               	movlb	29	; select bank29
  7276     0BBF  0C0F               	rrf	15,w	;volatile
  7277     0BC0  0020               	movlb	0	; select bank0
  7278     0BC1  00E8               	movwf	??_usb_service
  7279     0BC2  0CE8               	rrf	??_usb_service,f
  7280     0BC3  0C68               	rrf	??_usb_service,w
  7281     0BC4  390F               	andlw	15
  7282     0BC5  3A00               	xorlw	0
  7283     0BC6  1D03               	skipz
  7284     0BC7  2BCF               	goto	i1l4817
  7285     0BC8  003D               	movlb	29	; select bank29
  7286     0BC9  1D0F               	btfss	15,2	;volatile
  7287     0BCA  2BCF               	goto	i1l4817
  7288                           
  7289                           ;../m-stack/usb/src/usb.c: 1465:    handle_ep0_in();
  7290     0BCB  3196  26E0  318B   	fcall	_handle_ep0_in
  7291                           
  7292                           ;../m-stack/usb/src/usb.c: 1466:   }
  7293     0BCE  2C53               	goto	i1l306
  7294     0BCF                     i1l4817:
  7295     0BCF  003D               	movlb	29	; select bank29
  7296     0BD0  0C0F               	rrf	15,w	;volatile
  7297     0BD1  0020               	movlb	0	; select bank0
  7298     0BD2  00E8               	movwf	??_usb_service
  7299     0BD3  0CE8               	rrf	??_usb_service,f
  7300     0BD4  0C68               	rrf	??_usb_service,w
  7301     0BD5  390F               	andlw	15
  7302     0BD6  3A00               	xorlw	0
  7303     0BD7  1903               	skipnz
  7304     0BD8  2C53               	goto	i1l306
  7305     0BD9  003D               	movlb	29	; select bank29
  7306     0BDA  0C0F               	rrf	15,w	;volatile
  7307     0BDB  0020               	movlb	0	; select bank0
  7308     0BDC  00E8               	movwf	??_usb_service
  7309     0BDD  0CE8               	rrf	??_usb_service,f
  7310     0BDE  0C68               	rrf	??_usb_service,w
  7311     0BDF  390F               	andlw	15
  7312     0BE0  00E9               	movwf	??_usb_service+1
  7313     0BE1  3005               	movlw	5
  7314     0BE2  0269               	subwf	??_usb_service+1,w
  7315     0BE3  1803               	skipnc
  7316     0BE4  2C53               	goto	i1l306
  7317                           
  7318                           ;../m-stack/usb/src/usb.c: 1468:    if (USTATbits.DIR == 1 ) {
  7319     0BE5  003D               	movlb	29	; select bank29
  7320     0BE6  1D0F               	btfss	15,2	;volatile
  7321     0BE7  2C1E               	goto	i1l4829
  7322                           
  7323                           ;../m-stack/usb/src/usb.c: 1471:     if (ep_buf[USTATbits.ENDP].flags & 0x2)
  7324     0BE8  0C0F               	rrf	15,w	;volatile
  7325     0BE9  0020               	movlb	0	; select bank0
  7326     0BEA  00E8               	movwf	??_usb_service
  7327     0BEB  0CE8               	rrf	??_usb_service,f
  7328     0BEC  0C68               	rrf	??_usb_service,w
  7329     0BED  390F               	andlw	15
  7330     0BEE  00E9               	movwf	??_usb_service+1
  7331     0BEF  01EA               	clrf	??_usb_service+2
  7332     0BF0  0869               	movf	??_usb_service+1,w
  7333     0BF1  00F0               	movwf	i1___wmul@multiplier
  7334     0BF2  086A               	movf	??_usb_service+2,w
  7335     0BF3  00F1               	movwf	i1___wmul@multiplier+1
  7336     0BF4  3007               	movlw	7
  7337     0BF5  00F2               	movwf	i1___wmul@multiplicand
  7338     0BF6  3000               	movlw	0
  7339     0BF7  00F3               	movwf	i1___wmul@multiplicand+1
  7340     0BF8  3191  21C0  318B   	fcall	i1___wmul
  7341     0BFB  30A6               	movlw	low (_ep_buf+6)
  7342     0BFC  0020               	movlb	0	; select bank0
  7343     0BFD  00EB               	movwf	??_usb_service+3
  7344     0BFE  3003               	movlw	high (_ep_buf+6)
  7345     0BFF  00EC               	movwf	??_usb_service+4
  7346     0C00  0870               	movf	?i1___wmul,w
  7347     0C01  076B               	addwf	??_usb_service+3,w
  7348     0C02  0086               	movwf	6
  7349     0C03  0871               	movf	?i1___wmul+1,w
  7350     0C04  3D6C               	addwfc	??_usb_service+4,w
  7351     0C05  0087               	movwf	7
  7352     0C06  1C81               	btfss	1,1
  7353     0C07  2C13               	goto	i1l4827
  7354                           
  7355                           ;../m-stack/usb/src/usb.c: 1472:      stall_ep_in(USTATbits.ENDP);
  7356     0C08  003D               	movlb	29	; select bank29
  7357     0C09  0C0F               	rrf	15,w	;volatile
  7358     0C0A  0020               	movlb	0	; select bank0
  7359     0C0B  00E8               	movwf	??_usb_service
  7360     0C0C  0CE8               	rrf	??_usb_service,f
  7361     0C0D  0C68               	rrf	??_usb_service,w
  7362     0C0E  390F               	andlw	15
  7363     0C0F  3194  2417  318B   	fcall	_stall_ep_in
  7364     0C12  2C53               	goto	i1l306
  7365     0C13                     i1l4827:
  7366                           
  7367                           ;../m-stack/usb/src/usb.c: 1475:      app_in_transaction_complete_callback(USTATbits.END
      +                          P);
  7368     0C13  003D               	movlb	29	; select bank29
  7369     0C14  0C0F               	rrf	15,w	;volatile
  7370     0C15  0020               	movlb	0	; select bank0
  7371     0C16  00E8               	movwf	??_usb_service
  7372     0C17  0CE8               	rrf	??_usb_service,f
  7373     0C18  0C68               	rrf	??_usb_service,w
  7374     0C19  390F               	andlw	15
  7375     0C1A  3190  2051  318B   	fcall	_app_in_transaction_complete_callback
  7376     0C1D  2C53               	goto	i1l306
  7377     0C1E                     i1l4829:
  7378                           
  7379                           ;../m-stack/usb/src/usb.c: 1482:     if (ep_buf[USTATbits.ENDP].flags & 0x1)
  7380     0C1E  0C0F               	rrf	15,w	;volatile
  7381     0C1F  0020               	movlb	0	; select bank0
  7382     0C20  00E8               	movwf	??_usb_service
  7383     0C21  0CE8               	rrf	??_usb_service,f
  7384     0C22  0C68               	rrf	??_usb_service,w
  7385     0C23  390F               	andlw	15
  7386     0C24  00E9               	movwf	??_usb_service+1
  7387     0C25  01EA               	clrf	??_usb_service+2
  7388     0C26  0869               	movf	??_usb_service+1,w
  7389     0C27  00F0               	movwf	i1___wmul@multiplier
  7390     0C28  086A               	movf	??_usb_service+2,w
  7391     0C29  00F1               	movwf	i1___wmul@multiplier+1
  7392     0C2A  3007               	movlw	7
  7393     0C2B  00F2               	movwf	i1___wmul@multiplicand
  7394     0C2C  3000               	movlw	0
  7395     0C2D  00F3               	movwf	i1___wmul@multiplicand+1
  7396     0C2E  3191  21C0  318B   	fcall	i1___wmul
  7397     0C31  30A6               	movlw	low (_ep_buf+6)
  7398     0C32  0020               	movlb	0	; select bank0
  7399     0C33  00EB               	movwf	??_usb_service+3
  7400     0C34  3003               	movlw	high (_ep_buf+6)
  7401     0C35  00EC               	movwf	??_usb_service+4
  7402     0C36  0870               	movf	?i1___wmul,w
  7403     0C37  076B               	addwf	??_usb_service+3,w
  7404     0C38  0086               	movwf	6
  7405     0C39  0871               	movf	?i1___wmul+1,w
  7406     0C3A  3D6C               	addwfc	??_usb_service+4,w
  7407     0C3B  0087               	movwf	7
  7408     0C3C  1C01               	btfss	1,0
  7409     0C3D  2C49               	goto	i1l4833
  7410                           
  7411                           ;../m-stack/usb/src/usb.c: 1483:      stall_ep_out(USTATbits.ENDP);
  7412     0C3E  003D               	movlb	29	; select bank29
  7413     0C3F  0C0F               	rrf	15,w	;volatile
  7414     0C40  0020               	movlb	0	; select bank0
  7415     0C41  00E8               	movwf	??_usb_service
  7416     0C42  0CE8               	rrf	??_usb_service,f
  7417     0C43  0C68               	rrf	??_usb_service,w
  7418     0C44  390F               	andlw	15
  7419     0C45  3191  21F6  318B   	fcall	_stall_ep_out
  7420     0C48  2C53               	goto	i1l306
  7421     0C49                     i1l4833:
  7422                           
  7423                           ;../m-stack/usb/src/usb.c: 1486:      app_out_transaction_callback(USTATbits.ENDP);
  7424     0C49  003D               	movlb	29	; select bank29
  7425     0C4A  0C0F               	rrf	15,w	;volatile
  7426     0C4B  0020               	movlb	0	; select bank0
  7427     0C4C  00E8               	movwf	??_usb_service
  7428     0C4D  0CE8               	rrf	??_usb_service,f
  7429     0C4E  0C68               	rrf	??_usb_service,w
  7430     0C4F  390F               	andlw	15
  7431     0C50  3190  2052  318B   	fcall	_app_out_transaction_callback
  7432     0C53                     i1l306:
  7433                           
  7434                           ;../m-stack/usb/src/usb.c: 1497:   UIRbits.TRNIF = 0;
  7435     0C53  003D               	movlb	29	; select bank29
  7436     0C54  1190               	bcf	16,3	;volatile
  7437     0C55                     i1l298:	
  7438                           ;../m-stack/usb/src/usb.c: 1498:  }
  7439                           
  7440                           
  7441                           ;../m-stack/usb/src/usb.c: 1501:  if (UIRbits.SOFIF) {
  7442     0C55  1F10               	btfss	16,6	;volatile
  7443     0C56  2C5B               	goto	i1l4839
  7444                           
  7445                           ;../m-stack/usb/src/usb.c: 1503:   app_start_of_frame_callback();
  7446     0C57  3190  2053  318B   	fcall	_app_start_of_frame_callback
  7447                           
  7448                           ;../m-stack/usb/src/usb.c: 1505:   UIRbits.SOFIF = 0;
  7449     0C5A  1310               	bcf	16,6	;volatile
  7450     0C5B                     i1l4839:
  7451                           
  7452                           ;../m-stack/usb/src/usb.c: 1509:  if (PIR2bits.USBIF) {
  7453     0C5B  0020               	movlb	0	; select bank0
  7454     0C5C  1D12               	btfss	18,2	;volatile
  7455     0C5D  0008               	return
  7456                           
  7457                           ;../m-stack/usb/src/usb.c: 1510:   PIR2bits.USBIF = 0;
  7458     0C5E  1112               	bcf	18,2	;volatile
  7459     0C5F  0008               	return
  7460     0C60                     __end_of_usb_service:
  7461                           
  7462                           	psect	text31
  7463     152E                     __ptext31:	
  7464 ;; *************** function i1_usb_init *****************
  7465 ;; Defined at:
  7466 ;;		line 561 in file "../m-stack/usb/src/usb.c"
  7467 ;; Parameters:    Size  Location     Type
  7468 ;;		None
  7469 ;; Auto vars:     Size  Location     Type
  7470 ;;  ep              2   22[BANK0 ] PTR volatile struct .
  7471 ;;		 -> UEP0(1), 
  7472 ;;  i               1   21[BANK0 ] unsigned char 
  7473 ;; Return value:  Size  Location     Type
  7474 ;;                  1    wreg      void 
  7475 ;; Registers used:
  7476 ;;		wreg, fsr0l, fsr0h, fsr1l, fsr1h, status,2, status,0, pclath, cstack
  7477 ;; Tracked objects:
  7478 ;;		On entry : 1F/1D
  7479 ;;		On exit  : 1F/1
  7480 ;;		Unchanged: 0/0
  7481 ;; Data sizes:     COMMON   BANK0   BANK1   BANK2   BANK3   BANK4   BANK5   BANK6   BANK7   BANK8   BANK9  BANK10  BANK1
      +1  BANK12
  7482 ;;      Params:         0       0       0       0       0       0       0       0       0       0       0       0       
      +0       0
  7483 ;;      Locals:         0       3       0       0       0       0       0       0       0       0       0       0       
      +0       0
  7484 ;;      Temps:          2       0       0       0       0       0       0       0       0       0       0       0       
      +0       0
  7485 ;;      Totals:         2       3       0       0       0       0       0       0       0       0       0       0       
      +0       0
  7486 ;;Total ram usage:        5 bytes
  7487 ;; Hardware stack levels used: 1
  7488 ;; Hardware stack levels required when called: 3
  7489 ;; This function calls:
  7490 ;;		i1_init_endpoints
  7491 ;;		i1_memset
  7492 ;;		i1_reset_ep0_data_stage
  7493 ;; This function is called by:
  7494 ;;		_usb_service
  7495 ;; This function uses a non-reentrant model
  7496 ;;
  7497                           
  7498     152E                     i1_usb_init:	
  7499                           ;psect for function i1_usb_init
  7500                           
  7501                           
  7502                           ;incstack = 0
  7503                           ; Regs used in i1_usb_init: [wreg-fsr1h+status,2+status,0+pclath+cstack]
  7504                           ;../m-stack/usb/src/usb.c: 563:  uint8_t i;;../m-stack/usb/src/usb.c: 567:  do { UCFGbit
      +                          s.PPB0 = 0 & 1; UCFGbits.PPB1 = (0 & 2)? 1: 0; } while (0);
  7505     152E  1011               	bcf	17,0	;volatile
  7506     152F  1091               	bcf	17,1	;volatile
  7507                           
  7508                           ;../m-stack/usb/src/usb.c: 573:  UIE = 0x0;
  7509     1530  0192               	clrf	18	;volatile
  7510                           
  7511                           ;../m-stack/usb/src/usb.c: 574:  UEIE = 0x0;
  7512     1531  0197               	clrf	23	;volatile
  7513                           
  7514                           ;../m-stack/usb/src/usb.c: 576:  UCONbits.USBEN = 1;
  7515     1532  158E               	bsf	14,3	;volatile
  7516                           
  7517                           ;../m-stack/usb/src/usb.c: 584:  UCFGbits.UPUEN = 1;
  7518     1533  1611               	bsf	17,4	;volatile
  7519                           
  7520                           ;../m-stack/usb/src/usb.c: 592:  UCFGbits.FSEN = 1;
  7521     1534  1511               	bsf	17,2	;volatile
  7522                           
  7523                           ;../m-stack/usb/src/usb.c: 595:  UIRbits.TRNIF = 0;
  7524     1535  1190               	bcf	16,3	;volatile
  7525                           
  7526                           ;../m-stack/usb/src/usb.c: 596:  UIRbits.TRNIF = 0;
  7527     1536  1190               	bcf	16,3	;volatile
  7528                           
  7529                           ;../m-stack/usb/src/usb.c: 597:  UIRbits.TRNIF = 0;
  7530     1537  1190               	bcf	16,3	;volatile
  7531                           
  7532                           ;../m-stack/usb/src/usb.c: 598:  UIRbits.TRNIF = 0;
  7533     1538  1190               	bcf	16,3	;volatile
  7534                           
  7535                           ;../m-stack/usb/src/usb.c: 600:  UIR = 0;
  7536     1539  0190               	clrf	16	;volatile
  7537                           
  7538                           ;../m-stack/usb/src/usb.c: 603:  UIEbits.TRNIE = 1;
  7539     153A  1592               	bsf	18,3	;volatile
  7540                           
  7541                           ;../m-stack/usb/src/usb.c: 604:  UIEbits.STALLIE = 1;
  7542     153B  1692               	bsf	18,5	;volatile
  7543                           
  7544                           ;../m-stack/usb/src/usb.c: 605:  UIEbits.URSTIE = 1;
  7545     153C  1412               	bsf	18,0	;volatile
  7546                           
  7547                           ;../m-stack/usb/src/usb.c: 607:  UIEbits.SOFIE = 1;
  7548     153D  1712               	bsf	18,6	;volatile
  7549                           
  7550                           ;../m-stack/usb/src/usb.c: 650:  memset(((UEP1bits_t*) (&UEP0 + 1 * (0))), 0x0, sizeof(*
      +                          ((UEP1bits_t*) (&UEP0 + 1 * (0)))) * 16);
  7551     153E  3098               	movlw	152
  7552     153F  00F0               	movwf	i1memset@dest
  7553     1540  300E               	movlw	14
  7554     1541  00F1               	movwf	i1memset@dest+1
  7555     1542  3000               	movlw	0
  7556     1543  00F2               	movwf	i1memset@c
  7557     1544  00F3               	movwf	i1memset@c+1
  7558     1545  3010               	movlw	16
  7559     1546  00F4               	movwf	i1memset@n
  7560     1547  3000               	movlw	0
  7561     1548  00F5               	movwf	i1memset@n+1
  7562     1549  3191  2178  3195   	fcall	i1_memset
  7563                           
  7564                           ;../m-stack/usb/src/usb.c: 653:  ((UEP1bits_t*) (&UEP0 + 1 * (0)))->EPHSHK = 1;
  7565     154C  003D               	movlb	29	; select bank29
  7566     154D  1618               	bsf	24,4
  7567                           
  7568                           ;../m-stack/usb/src/usb.c: 654:  ((UEP1bits_t*) (&UEP0 + 1 * (0)))->EPCONDIS = 0;
  7569     154E  1198               	bcf	24,3
  7570                           
  7571                           ;../m-stack/usb/src/usb.c: 655:  ((UEP1bits_t*) (&UEP0 + 1 * (0)))->EPOUTEN = 1;
  7572     154F  1518               	bsf	24,2
  7573                           
  7574                           ;../m-stack/usb/src/usb.c: 656:  ((UEP1bits_t*) (&UEP0 + 1 * (0)))->EPINEN = 1;
  7575     1550  1498               	bsf	24,1
  7576                           
  7577                           ;../m-stack/usb/src/usb.c: 657:  ((UEP1bits_t*) (&UEP0 + 1 * (0)))->EPSTALL = 0;
  7578     1551  1018               	bcf	24,0
  7579                           
  7580                           ;../m-stack/usb/src/usb.c: 659:  for (i = 1; i <= 4; i++) {
  7581     1552  0020               	movlb	0	; select bank0
  7582     1553  01DD               	clrf	i1usb_init@i
  7583     1554  0ADD               	incf	i1usb_init@i,f
  7584     1555                     i1l4679:
  7585                           
  7586                           ;../m-stack/usb/src/usb.c: 660:   volatile UEP1bits_t *ep = ((UEP1bits_t*) (&UEP0 + 1 * 
      +                          (i)));
  7587     1555  085D               	movf	i1usb_init@i,w
  7588     1556  3E98               	addlw	152
  7589     1557  00FC               	movwf	??i1_usb_init
  7590     1558  01FD               	clrf	??i1_usb_init+1
  7591     1559  300E               	movlw	14
  7592     155A  3DFD               	addwfc	??i1_usb_init+1,f
  7593     155B  087C               	movf	??i1_usb_init,w
  7594     155C  00DE               	movwf	i1usb_init@ep
  7595     155D  087D               	movf	??i1_usb_init+1,w
  7596     155E  00DF               	movwf	i1usb_init@ep+1
  7597                           
  7598                           ;../m-stack/usb/src/usb.c: 661:   ep->EPHSHK = 1;
  7599     155F  085E               	movf	i1usb_init@ep,w
  7600     1560  0086               	movwf	6
  7601     1561  085F               	movf	i1usb_init@ep+1,w
  7602     1562  0087               	movwf	7
  7603     1563  1601               	bsf	1,4
  7604                           
  7605                           ;../m-stack/usb/src/usb.c: 662:   ep->EPCONDIS = 1;
  7606     1564  085E               	movf	i1usb_init@ep,w
  7607     1565  0086               	movwf	6
  7608     1566  085F               	movf	i1usb_init@ep+1,w
  7609     1567  0087               	movwf	7
  7610     1568  1581               	bsf	1,3
  7611                           
  7612                           ;../m-stack/usb/src/usb.c: 663:   ep->EPOUTEN = 1;
  7613     1569  085E               	movf	i1usb_init@ep,w
  7614     156A  0086               	movwf	6
  7615     156B  085F               	movf	i1usb_init@ep+1,w
  7616     156C  0087               	movwf	7
  7617     156D  1501               	bsf	1,2
  7618                           
  7619                           ;../m-stack/usb/src/usb.c: 664:   ep->EPINEN = 1;
  7620     156E  085E               	movf	i1usb_init@ep,w
  7621     156F  0086               	movwf	6
  7622     1570  085F               	movf	i1usb_init@ep+1,w
  7623     1571  0087               	movwf	7
  7624     1572  1481               	bsf	1,1
  7625                           
  7626                           ;../m-stack/usb/src/usb.c: 665:   ep->EPSTALL = 0;
  7627     1573  085E               	movf	i1usb_init@ep,w
  7628     1574  0086               	movwf	6
  7629     1575  085F               	movf	i1usb_init@ep+1,w
  7630     1576  0087               	movwf	7
  7631     1577  1001               	bcf	1,0
  7632                           
  7633                           ;../m-stack/usb/src/usb.c: 666:  }
  7634     1578  3001               	movlw	1
  7635     1579  00FC               	movwf	??i1_usb_init
  7636     157A  087C               	movf	??i1_usb_init,w
  7637     157B  07DD               	addwf	i1usb_init@i,f
  7638     157C  3005               	movlw	5
  7639     157D  025D               	subwf	i1usb_init@i,w
  7640     157E  1C03               	skipc
  7641     157F  2D55               	goto	i1l4679
  7642                           
  7643                           ;../m-stack/usb/src/usb.c: 669:  UADDR = 0x0;
  7644     1580  003D               	movlb	29	; select bank29
  7645     1581  0196               	clrf	22	;volatile
  7646                           
  7647                           ;../m-stack/usb/src/usb.c: 670:  addr_pending = 0;
  7648     1582  0026               	movlb	6	; select bank6
  7649     1583  01B1               	clrf	_addr_pending^(0+768)
  7650                           
  7651                           ;../m-stack/usb/src/usb.c: 671:  g_configuration = 0;
  7652     1584  0021               	movlb	1	; select bank1
  7653     1585  01CA               	clrf	_g_configuration^(0+128)
  7654                           
  7655                           ;../m-stack/usb/src/usb.c: 673:  init_endpoints();
  7656     1586  318C  2460  3195   	fcall	i1_init_endpoints
  7657                           
  7658                           ;../m-stack/usb/src/usb.c: 683:  reset_ep0_data_stage();
  7659     1589  3190  20A0         	fcall	i1_reset_ep0_data_stage
  7660                           
  7661                           ;../m-stack/usb/src/usb.c: 686:  PIE2bits.USBIE = 1;
  7662     158B  0021               	movlb	1	; select bank1
  7663     158C  1512               	bsf	18,2	;volatile
  7664     158D  0008               	return
  7665     158E                     __end_ofi1_usb_init:
  7666                           
  7667                           	psect	text32
  7668     108A                     __ptext32:	
  7669 ;; *************** function _reset_bd0_out *****************
  7670 ;; Defined at:
  7671 ;;		line 692 in file "../m-stack/usb/src/usb.c"
  7672 ;; Parameters:    Size  Location     Type
  7673 ;;		None
  7674 ;; Auto vars:     Size  Location     Type
  7675 ;;		None
  7676 ;; Return value:  Size  Location     Type
  7677 ;;                  1    wreg      void 
  7678 ;; Registers used:
  7679 ;;		wreg
  7680 ;; Tracked objects:
  7681 ;;		On entry : 2/1D
  7682 ;;		On exit  : 1F/0
  7683 ;;		Unchanged: 0/0
  7684 ;; Data sizes:     COMMON   BANK0   BANK1   BANK2   BANK3   BANK4   BANK5   BANK6   BANK7   BANK8   BANK9  BANK10  BANK1
      +1  BANK12
  7685 ;;      Params:         0       0       0       0       0       0       0       0       0       0       0       0       
      +0       0
  7686 ;;      Locals:         0       0       0       0       0       0       0       0       0       0       0       0       
      +0       0
  7687 ;;      Temps:          0       0       0       0       0       0       0       0       0       0       0       0       
      +0       0
  7688 ;;      Totals:         0       0       0       0       0       0       0       0       0       0       0       0       
      +0       0
  7689 ;;Total ram usage:        0 bytes
  7690 ;; Hardware stack levels used: 1
  7691 ;; This function calls:
  7692 ;;		Nothing
  7693 ;; This function is called by:
  7694 ;;		_usb_service
  7695 ;; This function uses a non-reentrant model
  7696 ;;
  7697                           
  7698     108A                     _reset_bd0_out:	
  7699                           ;psect for function _reset_bd0_out
  7700                           
  7701                           
  7702                           ;incstack = 0
  7703                           ; Regs used in _reset_bd0_out: [wreg]
  7704                           ;../m-stack/usb/src/usb.c: 700:  do { (bds[0]).BDnCNT = (8); (bds[0]).STAT.BDnSTAT = (0x
      +                          80); } while(0);
  7705     108A  3008               	movlw	8
  7706     108B  0020               	movlb	0	; select bank0
  7707     108C  00A1               	movwf	33
  7708     108D  3080               	movlw	128
  7709     108E  00A0               	movwf	32
  7710     108F  0008               	return
  7711     1090                     __end_of_reset_bd0_out:
  7712                           
  7713                           	psect	text33
  7714     14DB                     __ptext33:	
  7715 ;; *************** function _handle_ep0_setup *****************
  7716 ;; Defined at:
  7717 ;;		line 1155 in file "../m-stack/usb/src/usb.c"
  7718 ;; Parameters:    Size  Location     Type
  7719 ;;		None
  7720 ;; Auto vars:     Size  Location     Type
  7721 ;;  setup           2   30[BANK0 ] PTR struct setup_packet
  7722 ;;		 -> ep_buffers(294), 
  7723 ;;  res             1   29[BANK0 ] char 
  7724 ;; Return value:  Size  Location     Type
  7725 ;;                  1    wreg      void 
  7726 ;; Registers used:
  7727 ;;		wreg, fsr0l, fsr0h, fsr1l, fsr1h, status,2, status,0, pclath, cstack
  7728 ;; Tracked objects:
  7729 ;;		On entry : 1F/1
  7730 ;;		On exit  : 1F/1D
  7731 ;;		Unchanged: 0/0
  7732 ;; Data sizes:     COMMON   BANK0   BANK1   BANK2   BANK3   BANK4   BANK5   BANK6   BANK7   BANK8   BANK9  BANK10  BANK1
      +1  BANK12
  7733 ;;      Params:         0       0       0       0       0       0       0       0       0       0       0       0       
      +0       0
  7734 ;;      Locals:         0       3       0       0       0       0       0       0       0       0       0       0       
      +0       0
  7735 ;;      Temps:          0       0       0       0       0       0       0       0       0       0       0       0       
      +0       0
  7736 ;;      Totals:         0       3       0       0       0       0       0       0       0       0       0       0       
      +0       0
  7737 ;;Total ram usage:        3 bytes
  7738 ;; Hardware stack levels used: 1
  7739 ;; Hardware stack levels required when called: 7
  7740 ;; This function calls:
  7741 ;;		NULL
  7742 ;;		_app_unknown_setup_request_callback
  7743 ;;		_clear_ep0_stall
  7744 ;;		_handle_standard_control_request
  7745 ;;		_set_line_coding
  7746 ;;		_set_or_clear_comm_feature_callback
  7747 ;;		_stall_ep0
  7748 ;;		i1_reset_ep0_data_stage
  7749 ;; This function is called by:
  7750 ;;		_usb_service
  7751 ;; This function uses a non-reentrant model
  7752 ;;
  7753                           
  7754     14DB                     _handle_ep0_setup:	
  7755                           ;psect for function _handle_ep0_setup
  7756                           
  7757                           
  7758                           ;../m-stack/usb/src/usb.c: 1157:      struct setup_packet *setup;;../m-stack/usb/src/usb
      +                          .c: 1164:  setup = (struct setup_packet*) ep0_buf.out;
  7759                           
  7760                           ;incstack = 0
  7761 ;; hardware stack exceeded
  7762                           ; Regs used in _handle_ep0_setup: [wreg-fsr1h+status,2+status,0+pclath+cstack]
  7763     14DB  084C               	movf	(_ep0_buf+1)^(0+128),w
  7764     14DC  0020               	movlb	0	; select bank0
  7765     14DD  00E7               	movwf	handle_ep0_setup@setup+1
  7766     14DE  0021               	movlb	1	; select bank1
  7767     14DF  084B               	movf	_ep0_buf^(0+128),w
  7768     14E0  0020               	movlb	0	; select bank0
  7769     14E1  00E6               	movwf	handle_ep0_setup@setup
  7770                           
  7771                           ;../m-stack/usb/src/usb.c: 1167:  ep0_data_stage_direc = setup->REQUEST.direction;
  7772     14E2  0866               	movf	handle_ep0_setup@setup,w
  7773     14E3  0086               	movwf	6
  7774     14E4  0867               	movf	handle_ep0_setup@setup+1,w
  7775     14E5  0087               	movwf	7
  7776     14E6  3000               	movlw	0
  7777     14E7  1B81               	btfsc	1,7
  7778     14E8  3001               	movlw	1
  7779     14E9  0021               	movlb	1	; select bank1
  7780     14EA  00C7               	movwf	_ep0_data_stage_direc^(0+128)
  7781                           
  7782                           ;../m-stack/usb/src/usb.c: 1168:  int8_t res;;../m-stack/usb/src/usb.c: 1174:  clear_ep0
      +                          _stall();
  7783     14EB  3190  206A  3194   	fcall	_clear_ep0_stall
  7784                           
  7785                           ;../m-stack/usb/src/usb.c: 1195:  if (bds[1].STAT.UOWN) {
  7786     14EE  1FA4               	btfss	36,7
  7787     14EF  2CF3               	goto	i1l4325
  7788     14F0  3008               	movlw	8
  7789     14F1  00A5               	movwf	37
  7790     14F2  01A4               	clrf	36
  7791     14F3                     i1l4325:
  7792                           
  7793                           ;../m-stack/usb/src/usb.c: 1200:  if (ep0_data_stage_buf_remaining) {
  7794     14F3  0021               	movlb	1	; select bank1
  7795     14F4  0844               	movf	_ep0_data_stage_buf_remaining^(0+128),w
  7796     14F5  0445               	iorwf	(_ep0_data_stage_buf_remaining+1)^(0+128),w
  7797     14F6  1903               	btfsc	3,2
  7798     14F7  2D0C               	goto	i1l4333
  7799                           
  7800                           ;../m-stack/usb/src/usb.c: 1205:   if (ep0_data_stage_callback)
  7801     14F8  0020               	movlb	0	; select bank0
  7802     14F9  086D               	movf	_ep0_data_stage_callback,w
  7803     14FA  046E               	iorwf	_ep0_data_stage_callback+1,w
  7804     14FB  1903               	btfsc	3,2
  7805     14FC  2D09               	goto	i1l4331
  7806                           
  7807                           ;../m-stack/usb/src/usb.c: 1206:    ep0_data_stage_callback(0 , ep0_data_stage_context);
  7808     14FD  01F2               	clrf	set_line_coding@transfer_ok
  7809     14FE  0021               	movlb	1	; select bank1
  7810     14FF  0843               	movf	(_ep0_data_stage_context+1)^(0+128),w
  7811     1500  00F4               	movwf	set_line_coding@context+1
  7812     1501  0842               	movf	_ep0_data_stage_context^(0+128),w
  7813     1502  00F3               	movwf	set_line_coding@context
  7814     1503  0020               	movlb	0	; select bank0
  7815     1504  086E               	movf	_ep0_data_stage_callback+1,w
  7816     1505  008A               	movwf	10
  7817     1506  086D               	movf	_ep0_data_stage_callback,w
  7818     1507  000A               	callw
  7819     1508  3194               	pagesel	$
  7820     1509                     i1l4331:
  7821                           
  7822                           ;../m-stack/usb/src/usb.c: 1208:   reset_ep0_data_stage();
  7823     1509  3190  20A0  3194   	fcall	i1_reset_ep0_data_stage
  7824     150C                     i1l4333:
  7825                           
  7826                           ;../m-stack/usb/src/usb.c: 1211:  if (setup->REQUEST.type == REQUEST_TYPE_STANDARD) {
  7827     150C  0020               	movlb	0	; select bank0
  7828     150D  0866               	movf	handle_ep0_setup@setup,w
  7829     150E  0086               	movwf	6
  7830     150F  0867               	movf	handle_ep0_setup@setup+1,w
  7831     1510  0087               	movwf	7
  7832     1511  0E01               	swapf	1,w
  7833     1512  0C89               	rrf	9,f
  7834     1513  3903               	andlw	3
  7835     1514  3A00               	xorlw	0
  7836     1515  1D03               	skipz
  7837     1516  2D1E               	goto	i1l4341
  7838                           
  7839                           ;../m-stack/usb/src/usb.c: 1212:   res = handle_standard_control_request();
  7840     1517  3180  2082  3194   	fcall	_handle_standard_control_request
  7841     151A  0020               	movlb	0	; select bank0
  7842     151B  00E5               	movwf	handle_ep0_setup@res
  7843                           
  7844                           ;../m-stack/usb/src/usb.c: 1213:   if (res < 0)
  7845     151C  1FE5               	btfss	handle_ep0_setup@res,7
  7846     151D  2D2B               	goto	i1l253
  7847     151E                     i1l4341:
  7848                           
  7849                           ;../m-stack/usb/src/usb.c: 1248:  res = app_unknown_setup_request_callback(setup);
  7850     151E  0867               	movf	handle_ep0_setup@setup+1,w
  7851     151F  00E4               	movwf	app_unknown_setup_request_callback@setup+1
  7852     1520  0866               	movf	handle_ep0_setup@setup,w
  7853     1521  00E3               	movwf	app_unknown_setup_request_callback@setup
  7854     1522  3190  2090  3194   	fcall	_app_unknown_setup_request_callback
  7855     1525  0020               	movlb	0	; select bank0
  7856     1526  00E5               	movwf	handle_ep0_setup@res
  7857                           
  7858                           ;../m-stack/usb/src/usb.c: 1249:  if (res < 0)
  7859     1527  1FE5               	btfss	handle_ep0_setup@res,7
  7860     1528  2D2B               	goto	i1l253
  7861                           
  7862                           ;../m-stack/usb/src/usb.c: 1250:   stall_ep0();
  7863     1529  3190  2084         	fcall	_stall_ep0
  7864     152B                     i1l253:	
  7865                           ;../m-stack/usb/src/usb.c: 1261: out:
  7866                           
  7867                           
  7868                           ;../m-stack/usb/src/usb.c: 1266:  UCONbits.PKTDIS = 0;
  7869     152B  003D               	movlb	29	; select bank29
  7870     152C  120E               	bcf	14,4	;volatile
  7871     152D  0008               	return
  7872     152E                     __end_of_handle_ep0_setup:
  7873                           
  7874                           	psect	text34
  7875     0082                     __ptext34:	
  7876 ;; *************** function _handle_standard_control_request *****************
  7877 ;; Defined at:
  7878 ;;		line 858 in file "../m-stack/usb/src/usb.c"
  7879 ;; Parameters:    Size  Location     Type
  7880 ;;		None
  7881 ;; Auto vars:     Size  Location     Type
  7882 ;;  ep_num          1   26[BANK1 ] unsigned char 
  7883 ;;  ep_dir          1   20[BANK1 ] unsigned char 
  7884 ;;  ret             2    3[BANK1 ] unsigned char [2]
  7885 ;;  flags           1   19[BANK1 ] unsigned char 
  7886 ;;  desc            2   24[BANK1 ] PTR const void 
  7887 ;;		 -> func_serial_string(14), func_prog_string(30), serial_num_string(22), cdc_data_string(38), 
  7888 ;;		 -> cdc_interface_string(28), product_string(24), vendor_string(20), str00(4), 
  7889 ;;  len             2   13[BANK1 ] short 
  7890 ;;  ep_num          1   18[BANK1 ] unsigned char 
  7891 ;;  ret             2    7[BANK1 ] unsigned short 
  7892 ;;  len             2   15[BANK1 ] short 
  7893 ;;  desc            2    9[BANK1 ] PTR const void 
  7894 ;;  desc            2   11[BANK1 ] PTR const struct configu
  7895 ;;		 -> configuration_1(131), 
  7896 ;;  stall           1    6[BANK1 ] unsigned char 
  7897 ;;  ret             1   21[BANK1 ] char 
  7898 ;;  res             1    2[BANK1 ] char 
  7899 ;;  req             1   17[BANK1 ] unsigned char 
  7900 ;;  descriptor_i    1   23[BANK1 ] unsigned char 
  7901 ;;  descriptor      1   22[BANK1 ] unsigned char 
  7902 ;;  setup           2   27[BANK1 ] PTR struct setup_packet
  7903 ;;		 -> ep_buffers(294), 
  7904 ;;  res             1    5[BANK1 ] char 
  7905 ;; Return value:  Size  Location     Type
  7906 ;;                  1    wreg      char 
  7907 ;; Registers used:
  7908 ;;		wreg, fsr0l, fsr0h, fsr1l, fsr1h, status,2, status,0, pclath, cstack
  7909 ;; Tracked objects:
  7910 ;;		On entry : 1F/0
  7911 ;;		On exit  : 1F/1
  7912 ;;		Unchanged: 0/0
  7913 ;; Data sizes:     COMMON   BANK0   BANK1   BANK2   BANK3   BANK4   BANK5   BANK6   BANK7   BANK8   BANK9  BANK10  BANK1
      +1  BANK12
  7914 ;;      Params:         0       0       0       0       0       0       0       0       0       0       0       0       
      +0       0
  7915 ;;      Locals:         0       0      29       0       0       0       0       0       0       0       0       0       
      +0       0
  7916 ;;      Temps:          0       5       0       0       0       0       0       0       0       0       0       0       
      +0       0
  7917 ;;      Totals:         0       5      29       0       0       0       0       0       0       0       0       0       
      +0       0
  7918 ;;Total ram usage:       34 bytes
  7919 ;; Hardware stack levels used: 1
  7920 ;; Hardware stack levels required when called: 4
  7921 ;; This function calls:
  7922 ;;		_app_endpoint_halt_callback
  7923 ;;		_app_get_device_status_callback
  7924 ;;		_app_get_interface_callback
  7925 ;;		_app_set_configuration_callback
  7926 ;;		_app_set_interface_callback
  7927 ;;		_app_unknown_get_descriptor_callback
  7928 ;;		_send_zero_length_packet_ep0
  7929 ;;		_stall_ep0
  7930 ;;		_start_control_return
  7931 ;;		_usb_application_get_string
  7932 ;;		_usb_halt_ep_in
  7933 ;;		_usb_halt_ep_out
  7934 ;;		i1___wmul
  7935 ;;		i1_init_endpoints
  7936 ;; This function is called by:
  7937 ;;		_handle_ep0_setup
  7938 ;; This function uses a non-reentrant model
  7939 ;;
  7940                           
  7941     0082                     _handle_standard_control_request:	
  7942                           ;psect for function _handle_standard_control_request
  7943                           
  7944                           
  7945                           ;../m-stack/usb/src/usb.c: 860:      struct setup_packet *setup;;../m-stack/usb/src/usb.
      +                          c: 861:  int8_t res = 0;
  7946                           
  7947                           ;incstack = 0
  7948                           ; Regs used in _handle_standard_control_request: [wreg-fsr1h+status,2+status,0+pclath+cs
      +                          tack]
  7949     0082  0021               	movlb	1	; select bank1
  7950     0083  01A5               	clrf	handle_standard_control_request@res^(0+128)
  7951                           
  7952                           ;../m-stack/usb/src/usb.c: 869:  setup = (struct setup_packet*) ep0_buf.out;
  7953     0084  084C               	movf	(_ep0_buf+1)^(0+128),w
  7954     0085  00BC               	movwf	(handle_standard_control_request@setup+1)^(0+128)
  7955     0086  084B               	movf	_ep0_buf^(0+128),w
  7956     0087  00BB               	movwf	handle_standard_control_request@setup^(0+128)
  7957                           
  7958                           ;../m-stack/usb/src/usb.c: 872:  if (setup->bRequest == GET_DESCRIPTOR &&
  7959     0088  083B               	movf	handle_standard_control_request@setup^(0+128),w
  7960     0089  0086               	movwf	6
  7961     008A  083C               	movf	(handle_standard_control_request@setup+1)^(0+128),w
  7962     008B  0087               	movwf	7
  7963     008C  3141               	addfsr 1,1
  7964     008D  3006               	movlw	6
  7965     008E  0601               	xorwf	1,w
  7966     008F  1D03               	btfss	3,2
  7967     0090  2967               	goto	i1l4057
  7968     0091  083B               	movf	handle_standard_control_request@setup^(0+128),w
  7969     0092  0086               	movwf	6
  7970     0093  083C               	movf	(handle_standard_control_request@setup+1)^(0+128),w
  7971     0094  0087               	movwf	7
  7972     0095  3080               	movlw	128
  7973     0096  0601               	xorwf	1,w
  7974     0097  1D03               	btfss	3,2
  7975     0098  2967               	goto	i1l4057
  7976                           
  7977                           ;../m-stack/usb/src/usb.c: 873:      setup->REQUEST.bmRequestType == 0x80 ) {;../m-stack
      +                          /usb/src/usb.c: 874:   char descriptor = ((setup->wValue >> 8) & 0x00ff);
  7978     0099  083B               	movf	handle_standard_control_request@setup^(0+128),w
  7979     009A  0086               	movwf	6
  7980     009B  083C               	movf	(handle_standard_control_request@setup+1)^(0+128),w
  7981     009C  0087               	movwf	7
  7982     009D  3142               	addfsr 1,2
  7983     009E  3F40               	moviw [0]fsr1
  7984     009F  0020               	movlb	0	; select bank0
  7985     00A0  00DD               	movwf	??_handle_standard_control_request
  7986     00A1  3F41               	moviw [1]fsr1
  7987     00A2  00DE               	movwf	??_handle_standard_control_request+1
  7988     00A3  085E               	movf	??_handle_standard_control_request+1,w
  7989     00A4  0021               	movlb	1	; select bank1
  7990     00A5  00B6               	movwf	handle_standard_control_request@descriptor^(0+128)
  7991                           
  7992                           ;../m-stack/usb/src/usb.c: 875:   uint8_t descriptor_index = setup->wValue & 0x00ff;
  7993     00A6  083B               	movf	handle_standard_control_request@setup^(0+128),w
  7994     00A7  0086               	movwf	6
  7995     00A8  083C               	movf	(handle_standard_control_request@setup+1)^(0+128),w
  7996     00A9  0087               	movwf	7
  7997     00AA  3142               	addfsr 1,2
  7998     00AB  0801               	movf	1,w
  7999     00AC  00B7               	movwf	handle_standard_control_request@descriptor_index^(0+128)
  8000                           
  8001                           ;../m-stack/usb/src/usb.c: 877:   if (descriptor == DESC_DEVICE) {
  8002     00AD  0336               	decf	handle_standard_control_request@descriptor^(0+128),w
  8003     00AE  1D03               	btfss	3,2
  8004     00AF  28CF               	goto	i1l4029
  8005                           
  8006                           ;../m-stack/usb/src/usb.c: 881:    start_control_return(&this_device_descriptor, this_de
      +                          vice_descriptor.bLength, setup->wLength);
  8007     00B0  303A               	movlw	low (_this_device_descriptor| (0+32768))
  8008     00B1  0020               	movlb	0	; select bank0
  8009     00B2  00C9               	movwf	start_control_return@ptr
  8010     00B3  3099               	movlw	high (_this_device_descriptor| (0+32768))
  8011     00B4  00CA               	movwf	start_control_return@ptr+1
  8012     00B5  303A               	movlw	low (_this_device_descriptor| (0+32768))
  8013     00B6  0084               	movwf	4
  8014     00B7  3099               	movlw	high (_this_device_descriptor| (0+32768))
  8015     00B8  0085               	movwf	5
  8016     00B9  0800               	movf	0,w	;code access
  8017     00BA  00DD               	movwf	??_handle_standard_control_request
  8018     00BB  01DE               	clrf	??_handle_standard_control_request+1
  8019     00BC  085D               	movf	??_handle_standard_control_request,w
  8020     00BD  00CB               	movwf	start_control_return@len
  8021     00BE  085E               	movf	??_handle_standard_control_request+1,w
  8022     00BF  00CC               	movwf	start_control_return@len+1
  8023     00C0  0021               	movlb	1	; select bank1
  8024     00C1  083B               	movf	handle_standard_control_request@setup^(0+128),w
  8025     00C2  0086               	movwf	6
  8026     00C3  083C               	movf	(handle_standard_control_request@setup+1)^(0+128),w
  8027     00C4  0087               	movwf	7
  8028     00C5  3146               	addfsr 1,6
  8029     00C6  3F40               	moviw [0]fsr1
  8030     00C7  0020               	movlb	0	; select bank0
  8031     00C8  00CD               	movwf	start_control_return@bytes_asked_for
  8032     00C9  3F41               	moviw [1]fsr1
  8033     00CA  00CE               	movwf	start_control_return@bytes_asked_for+1
  8034     00CB  3197  2770  3180   	fcall	_start_control_return
  8035                           
  8036                           ;../m-stack/usb/src/usb.c: 882:   }
  8037     00CE  2BDD               	goto	i1l4183
  8038     00CF                     i1l4029:
  8039     00CF  3002               	movlw	2
  8040     00D0  0636               	xorwf	handle_standard_control_request@descriptor^(0+128),w
  8041     00D1  1D03               	btfss	3,2
  8042     00D2  290C               	goto	i1l4039
  8043                           
  8044                           ;../m-stack/usb/src/usb.c: 884:    const struct configuration_descriptor *desc;;../m-sta
      +                          ck/usb/src/usb.c: 885:    if (descriptor_index >= 1)
  8045     00D3  0837               	movf	handle_standard_control_request@descriptor_index^(0+128),w
  8046     00D4  1903               	btfsc	3,2
  8047     00D5  28DA               	goto	i1l4035
  8048     00D6                     i1l4033:
  8049                           
  8050                           ;../m-stack/usb/src/usb.c: 886:     stall_ep0();
  8051     00D6  3190  2084  3180   	fcall	_stall_ep0
  8052     00D9  2BDD               	goto	i1l4183
  8053     00DA                     i1l4035:
  8054                           
  8055                           ;../m-stack/usb/src/usb.c: 888:     desc = usb_application_config_descs[descriptor_index
      +                          ];
  8056     00DA  3537               	lslf	handle_standard_control_request@descriptor_index^(0+128),w
  8057     00DB  3E69               	addlw	(low (_usb_application_config_descs| (0+768)))& (0+255)
  8058     00DC  0086               	movwf	6
  8059     00DD  3003               	movlw	3	; select bank6/7
  8060     00DE  0087               	movwf	7
  8061     00DF  3F40               	moviw [0]fsr1
  8062     00E0  00AB               	movwf	handle_standard_control_request@desc^(0+128)
  8063     00E1  3F41               	moviw [1]fsr1
  8064     00E2  00AC               	movwf	(handle_standard_control_request@desc+1)^(0+128)
  8065                           
  8066                           ;../m-stack/usb/src/usb.c: 889:     start_control_return(desc, desc->wTotalLength, setup
      +                          ->wLength);
  8067     00E3  082C               	movf	(handle_standard_control_request@desc+1)^(0+128),w
  8068     00E4  0020               	movlb	0	; select bank0
  8069     00E5  00CA               	movwf	start_control_return@ptr+1
  8070     00E6  0021               	movlb	1	; select bank1
  8071     00E7  082B               	movf	handle_standard_control_request@desc^(0+128),w
  8072     00E8  0020               	movlb	0	; select bank0
  8073     00E9  00C9               	movwf	start_control_return@ptr
  8074     00EA  0021               	movlb	1	; select bank1
  8075     00EB  082C               	movf	(handle_standard_control_request@desc+1)^(0+128),w
  8076     00EC  0020               	movlb	0	; select bank0
  8077     00ED  00DE               	movwf	??_handle_standard_control_request+1
  8078     00EE  0021               	movlb	1	; select bank1
  8079     00EF  082B               	movf	handle_standard_control_request@desc^(0+128),w
  8080     00F0  0020               	movlb	0	; select bank0
  8081     00F1  00DD               	movwf	??_handle_standard_control_request
  8082     00F2  3002               	movlw	2
  8083     00F3  075D               	addwf	??_handle_standard_control_request,w
  8084     00F4  0084               	movwf	4
  8085     00F5  085E               	movf	??_handle_standard_control_request+1,w
  8086     00F6  1803               	skipnc
  8087     00F7  0A5E               	incf	??_handle_standard_control_request+1,w
  8088     00F8  0085               	movwf	5
  8089     00F9  3F00               	moviw [0]fsr0
  8090     00FA  00CB               	movwf	start_control_return@len
  8091     00FB  3F01               	moviw [1]fsr0
  8092     00FC  00CC               	movwf	start_control_return@len+1
  8093     00FD  0021               	movlb	1	; select bank1
  8094     00FE  083B               	movf	handle_standard_control_request@setup^(0+128),w
  8095     00FF  0086               	movwf	6
  8096     0100  083C               	movf	(handle_standard_control_request@setup+1)^(0+128),w
  8097     0101  0087               	movwf	7
  8098     0102  3146               	addfsr 1,6
  8099     0103  3F40               	moviw [0]fsr1
  8100     0104  0020               	movlb	0	; select bank0
  8101     0105  00CD               	movwf	start_control_return@bytes_asked_for
  8102     0106  3F41               	moviw [1]fsr1
  8103     0107  00CE               	movwf	start_control_return@bytes_asked_for+1
  8104     0108  3197  2770  3180   	fcall	_start_control_return
  8105     010B  2BDD               	goto	i1l4183
  8106     010C                     i1l4039:
  8107     010C  3003               	movlw	3
  8108     010D  0636               	xorwf	handle_standard_control_request@descriptor^(0+128),w
  8109     010E  1D03               	btfss	3,2
  8110     010F  293A               	goto	i1l4049
  8111                           
  8112                           ;../m-stack/usb/src/usb.c: 914:    {;../m-stack/usb/src/usb.c: 916:     const void *desc
      +                          ;;../m-stack/usb/src/usb.c: 917:     int16_t len;;../m-stack/usb/src/usb.c: 918:     {;.
      +                          ./m-stack/usb/src/usb.c: 919:      len = usb_application_get_string(descriptor_index, &d
      +                          esc);
  8113     0110  30B8               	movlw	(low (handle_standard_control_request@desc_602| 0))& (0+255)
  8114     0111  00F0               	movwf	usb_application_get_string@ptr
  8115     0112  0837               	movf	handle_standard_control_request@descriptor_index^(0+128),w
  8116     0113  3196  265C  3180   	fcall	_usb_application_get_string
  8117     0116  0871               	movf	?_usb_application_get_string+1,w
  8118     0117  00AE               	movwf	(handle_standard_control_request@len+1)^(0+128)
  8119     0118  0870               	movf	?_usb_application_get_string,w
  8120     0119  00AD               	movwf	handle_standard_control_request@len^(0+128)
  8121                           
  8122                           ;../m-stack/usb/src/usb.c: 920:      if (len < 0) {
  8123     011A  1BAE               	btfsc	(handle_standard_control_request@len+1)^(0+128),7
  8124     011B  28D6               	goto	i1l4033
  8125                           
  8126                           ;../m-stack/usb/src/usb.c: 925:       start_control_return(desc, len, setup->wLength);
  8127     011C  0839               	movf	(handle_standard_control_request@desc_602+1)^(0+128),w
  8128     011D  0020               	movlb	0	; select bank0
  8129     011E  00CA               	movwf	start_control_return@ptr+1
  8130     011F  0021               	movlb	1	; select bank1
  8131     0120  0838               	movf	handle_standard_control_request@desc_602^(0+128),w
  8132     0121  0020               	movlb	0	; select bank0
  8133     0122  00C9               	movwf	start_control_return@ptr
  8134     0123  0021               	movlb	1	; select bank1
  8135     0124  082E               	movf	(handle_standard_control_request@len+1)^(0+128),w
  8136     0125  0020               	movlb	0	; select bank0
  8137     0126  00CC               	movwf	start_control_return@len+1
  8138     0127  0021               	movlb	1	; select bank1
  8139     0128  082D               	movf	handle_standard_control_request@len^(0+128),w
  8140     0129  0020               	movlb	0	; select bank0
  8141     012A  00CB               	movwf	start_control_return@len
  8142     012B  0021               	movlb	1	; select bank1
  8143     012C  083B               	movf	handle_standard_control_request@setup^(0+128),w
  8144     012D  0086               	movwf	6
  8145     012E  083C               	movf	(handle_standard_control_request@setup+1)^(0+128),w
  8146     012F  0087               	movwf	7
  8147     0130  3146               	addfsr 1,6
  8148     0131  3F40               	moviw [0]fsr1
  8149     0132  0020               	movlb	0	; select bank0
  8150     0133  00CD               	movwf	start_control_return@bytes_asked_for
  8151     0134  3F41               	moviw [1]fsr1
  8152     0135  00CE               	movwf	start_control_return@bytes_asked_for+1
  8153     0136  3197  2770  3180   	fcall	_start_control_return
  8154     0139  2BDD               	goto	i1l4183
  8155     013A                     i1l4049:
  8156                           
  8157                           ;../m-stack/usb/src/usb.c: 935:    int16_t len;;../m-stack/usb/src/usb.c: 936:    const 
      +                          void *desc;;../m-stack/usb/src/usb.c: 937:    len = app_unknown_get_descriptor_callback(
      +                          setup, &desc);
  8158     013A  083C               	movf	(handle_standard_control_request@setup+1)^(0+128),w
  8159     013B  00F1               	movwf	app_unknown_get_descriptor_callback@pkt+1
  8160     013C  083B               	movf	handle_standard_control_request@setup^(0+128),w
  8161     013D  00F0               	movwf	app_unknown_get_descriptor_callback@pkt
  8162     013E  30A9               	movlw	(low (handle_standard_control_request@desc_605| 0))& (0+255)
  8163     013F  00F2               	movwf	app_unknown_get_descriptor_callback@descriptor
  8164     0140  3190  206F  3180   	fcall	_app_unknown_get_descriptor_callback
  8165     0143  0871               	movf	?_app_unknown_get_descriptor_callback+1,w
  8166     0144  00B0               	movwf	(handle_standard_control_request@len_604+1)^(0+128)
  8167     0145  0870               	movf	?_app_unknown_get_descriptor_callback,w
  8168     0146  00AF               	movwf	handle_standard_control_request@len_604^(0+128)
  8169                           
  8170                           ;../m-stack/usb/src/usb.c: 938:    if (len < 0) {
  8171     0147  1BB0               	btfsc	(handle_standard_control_request@len_604+1)^(0+128),7
  8172     0148  28D6               	goto	i1l4033
  8173                           
  8174                           ;../m-stack/usb/src/usb.c: 943:     start_control_return(desc, len, setup->wLength);
  8175     0149  082A               	movf	(handle_standard_control_request@desc_605+1)^(0+128),w
  8176     014A  0020               	movlb	0	; select bank0
  8177     014B  00CA               	movwf	start_control_return@ptr+1
  8178     014C  0021               	movlb	1	; select bank1
  8179     014D  0829               	movf	handle_standard_control_request@desc_605^(0+128),w
  8180     014E  0020               	movlb	0	; select bank0
  8181     014F  00C9               	movwf	start_control_return@ptr
  8182     0150  0021               	movlb	1	; select bank1
  8183     0151  0830               	movf	(handle_standard_control_request@len_604+1)^(0+128),w
  8184     0152  0020               	movlb	0	; select bank0
  8185     0153  00CC               	movwf	start_control_return@len+1
  8186     0154  0021               	movlb	1	; select bank1
  8187     0155  082F               	movf	handle_standard_control_request@len_604^(0+128),w
  8188     0156  0020               	movlb	0	; select bank0
  8189     0157  00CB               	movwf	start_control_return@len
  8190     0158  0021               	movlb	1	; select bank1
  8191     0159  083B               	movf	handle_standard_control_request@setup^(0+128),w
  8192     015A  0086               	movwf	6
  8193     015B  083C               	movf	(handle_standard_control_request@setup+1)^(0+128),w
  8194     015C  0087               	movwf	7
  8195     015D  3146               	addfsr 1,6
  8196     015E  3F40               	moviw [0]fsr1
  8197     015F  0020               	movlb	0	; select bank0
  8198     0160  00CD               	movwf	start_control_return@bytes_asked_for
  8199     0161  3F41               	moviw [1]fsr1
  8200     0162  00CE               	movwf	start_control_return@bytes_asked_for+1
  8201     0163  3197  2770  3180   	fcall	_start_control_return
  8202     0166  2BDD               	goto	i1l4183
  8203     0167                     i1l4057:
  8204     0167  083B               	movf	handle_standard_control_request@setup^(0+128),w
  8205     0168  0086               	movwf	6
  8206     0169  083C               	movf	(handle_standard_control_request@setup+1)^(0+128),w
  8207     016A  0087               	movwf	7
  8208     016B  3141               	addfsr 1,1
  8209     016C  3005               	movlw	5
  8210     016D  0601               	xorwf	1,w
  8211     016E  1D03               	btfss	3,2
  8212     016F  2980               	goto	i1l4065
  8213                           
  8214                           ;../m-stack/usb/src/usb.c: 955:   addr_pending = 1;
  8215     0170  0026               	movlb	6	; select bank6
  8216     0171  01B1               	clrf	_addr_pending^(0+768)
  8217     0172  0AB1               	incf	_addr_pending^(0+768),f
  8218                           
  8219                           ;../m-stack/usb/src/usb.c: 956:   addr = setup->wValue;
  8220     0173  0021               	movlb	1	; select bank1
  8221     0174  083B               	movf	handle_standard_control_request@setup^(0+128),w
  8222     0175  0086               	movwf	6
  8223     0176  083C               	movf	(handle_standard_control_request@setup+1)^(0+128),w
  8224     0177  0087               	movwf	7
  8225     0178  3142               	addfsr 1,2
  8226     0179  0801               	movf	1,w
  8227     017A  0026               	movlb	6	; select bank6
  8228     017B  00B0               	movwf	_addr^(0+768)
  8229     017C                     i1l4063:
  8230                           
  8231                           ;../m-stack/usb/src/usb.c: 958:   send_zero_length_packet_ep0();
  8232     017C  3190  207E  3180   	fcall	_send_zero_length_packet_ep0
  8233                           
  8234                           ;../m-stack/usb/src/usb.c: 959:  }
  8235     017F  2BDD               	goto	i1l4183
  8236     0180                     i1l4065:
  8237     0180  083B               	movf	handle_standard_control_request@setup^(0+128),w
  8238     0181  0086               	movwf	6
  8239     0182  083C               	movf	(handle_standard_control_request@setup+1)^(0+128),w
  8240     0183  0087               	movwf	7
  8241     0184  3141               	addfsr 1,1
  8242     0185  3009               	movlw	9
  8243     0186  0601               	xorwf	1,w
  8244     0187  1D03               	btfss	3,2
  8245     0188  299E               	goto	i1l4077
  8246                           
  8247                           ;../m-stack/usb/src/usb.c: 964:   uint8_t req = setup->wValue & 0x00ff;
  8248     0189  083B               	movf	handle_standard_control_request@setup^(0+128),w
  8249     018A  0086               	movwf	6
  8250     018B  083C               	movf	(handle_standard_control_request@setup+1)^(0+128),w
  8251     018C  0087               	movwf	7
  8252     018D  3142               	addfsr 1,2
  8253     018E  0801               	movf	1,w
  8254     018F  00B1               	movwf	handle_standard_control_request@req^(0+128)
  8255                           
  8256                           ;../m-stack/usb/src/usb.c: 966:   app_set_configuration_callback(req);
  8257     0190  0831               	movf	handle_standard_control_request@req^(0+128),w
  8258     0191  3187  27FF  3180   	fcall	_app_set_configuration_callback
  8259                           
  8260                           ;../m-stack/usb/src/usb.c: 973:   init_endpoints();
  8261     0194  318C  2460  3180   	fcall	i1_init_endpoints
  8262                           
  8263                           ;../m-stack/usb/src/usb.c: 975:   send_zero_length_packet_ep0();
  8264     0197  3190  207E  3180   	fcall	_send_zero_length_packet_ep0
  8265                           
  8266                           ;../m-stack/usb/src/usb.c: 976:   g_configuration = req;
  8267     019A  0021               	movlb	1	; select bank1
  8268     019B  0831               	movf	handle_standard_control_request@req^(0+128),w
  8269     019C  00CA               	movwf	_g_configuration^(0+128)
  8270                           
  8271                           ;../m-stack/usb/src/usb.c: 980:  }
  8272     019D  2BDD               	goto	i1l4183
  8273     019E                     i1l4077:
  8274     019E  083B               	movf	handle_standard_control_request@setup^(0+128),w
  8275     019F  0086               	movwf	6
  8276     01A0  083C               	movf	(handle_standard_control_request@setup+1)^(0+128),w
  8277     01A1  0087               	movwf	7
  8278     01A2  3141               	addfsr 1,1
  8279     01A3  3008               	movlw	8
  8280     01A4  0601               	xorwf	1,w
  8281     01A5  1D03               	btfss	3,2
  8282     01A6  29BF               	goto	i1l4081
  8283                           
  8284                           ;../m-stack/usb/src/usb.c: 986:   start_control_return(&g_configuration, 1, setup->wLeng
      +                          th);
  8285     01A7  30CA               	movlw	low _g_configuration
  8286     01A8  0020               	movlb	0	; select bank0
  8287     01A9  00C9               	movwf	start_control_return@ptr
  8288     01AA  3000               	movlw	high _g_configuration
  8289     01AB  00CA               	movwf	start_control_return@ptr+1
  8290     01AC  3001               	movlw	1
  8291     01AD  00CB               	movwf	start_control_return@len
  8292     01AE  3000               	movlw	0
  8293     01AF  00CC               	movwf	start_control_return@len+1
  8294     01B0  0021               	movlb	1	; select bank1
  8295     01B1  083B               	movf	handle_standard_control_request@setup^(0+128),w
  8296     01B2  0086               	movwf	6
  8297     01B3  083C               	movf	(handle_standard_control_request@setup+1)^(0+128),w
  8298     01B4  0087               	movwf	7
  8299     01B5  3146               	addfsr 1,6
  8300     01B6  3F40               	moviw [0]fsr1
  8301     01B7  0020               	movlb	0	; select bank0
  8302     01B8  00CD               	movwf	start_control_return@bytes_asked_for
  8303     01B9  3F41               	moviw [1]fsr1
  8304     01BA  00CE               	movwf	start_control_return@bytes_asked_for+1
  8305     01BB  3197  2770  3180   	fcall	_start_control_return
  8306                           
  8307                           ;../m-stack/usb/src/usb.c: 987:  }
  8308     01BE  2BDD               	goto	i1l4183
  8309     01BF                     i1l4081:
  8310     01BF  083B               	movf	handle_standard_control_request@setup^(0+128),w
  8311     01C0  0086               	movwf	6
  8312     01C1  083C               	movf	(handle_standard_control_request@setup+1)^(0+128),w
  8313     01C2  0087               	movwf	7
  8314     01C3  3141               	addfsr 1,1
  8315     01C4  0801               	movf	1,w
  8316     01C5  1D03               	btfss	3,2
  8317     01C6  2A58               	goto	i1l4113
  8318                           
  8319                           ;../m-stack/usb/src/usb.c: 994:   if (setup->REQUEST.destination == 0 ) {
  8320     01C7  083B               	movf	handle_standard_control_request@setup^(0+128),w
  8321     01C8  0086               	movwf	6
  8322     01C9  083C               	movf	(handle_standard_control_request@setup+1)^(0+128),w
  8323     01CA  0087               	movwf	7
  8324     01CB  0801               	movf	1,w
  8325     01CC  391F               	andlw	31
  8326     01CD  3A00               	xorlw	0
  8327     01CE  1D03               	skipz
  8328     01CF  29EF               	goto	i1l4089
  8329                           
  8330                           ;../m-stack/usb/src/usb.c: 997:    uint16_t ret;;../m-stack/usb/src/usb.c: 999:    ret =
      +                           app_get_device_status_callback();
  8331     01D0  3190  2062  3180   	fcall	_app_get_device_status_callback
  8332     01D3  0871               	movf	?_app_get_device_status_callback+1,w
  8333     01D4  00A8               	movwf	(handle_standard_control_request@ret+1)^(0+128)
  8334     01D5  0870               	movf	?_app_get_device_status_callback,w
  8335     01D6  00A7               	movwf	handle_standard_control_request@ret^(0+128)
  8336                           
  8337                           ;../m-stack/usb/src/usb.c: 1003:    start_control_return(&ret, 2, setup->wLength);
  8338     01D7  30A7               	movlw	low handle_standard_control_request@ret
  8339     01D8  0020               	movlb	0	; select bank0
  8340     01D9  00C9               	movwf	start_control_return@ptr
  8341     01DA  3000               	movlw	high handle_standard_control_request@ret
  8342     01DB  00CA               	movwf	start_control_return@ptr+1
  8343     01DC  3002               	movlw	2
  8344     01DD  00CB               	movwf	start_control_return@len
  8345     01DE  3000               	movlw	0
  8346     01DF  00CC               	movwf	start_control_return@len+1
  8347     01E0  0021               	movlb	1	; select bank1
  8348     01E1  083B               	movf	handle_standard_control_request@setup^(0+128),w
  8349     01E2  0086               	movwf	6
  8350     01E3  083C               	movf	(handle_standard_control_request@setup+1)^(0+128),w
  8351     01E4  0087               	movwf	7
  8352     01E5  3146               	addfsr 1,6
  8353     01E6  3F40               	moviw [0]fsr1
  8354     01E7  0020               	movlb	0	; select bank0
  8355     01E8  00CD               	movwf	start_control_return@bytes_asked_for
  8356     01E9  3F41               	moviw [1]fsr1
  8357     01EA  00CE               	movwf	start_control_return@bytes_asked_for+1
  8358     01EB  3197  2770  3180   	fcall	_start_control_return
  8359                           
  8360                           ;../m-stack/usb/src/usb.c: 1004:   }
  8361     01EE  2BDD               	goto	i1l4183
  8362     01EF                     i1l4089:
  8363     01EF  083B               	movf	handle_standard_control_request@setup^(0+128),w
  8364     01F0  0086               	movwf	6
  8365     01F1  083C               	movf	(handle_standard_control_request@setup+1)^(0+128),w
  8366     01F2  0087               	movwf	7
  8367     01F3  0801               	movf	1,w
  8368     01F4  391F               	andlw	31
  8369     01F5  3A02               	xorlw	2
  8370     01F6  1D03               	skipz
  8371     01F7  28D6               	goto	i1l4033
  8372                           
  8373                           ;../m-stack/usb/src/usb.c: 1007:    uint8_t ep_num = setup->wIndex & 0x0f;
  8374     01F8  083B               	movf	handle_standard_control_request@setup^(0+128),w
  8375     01F9  0086               	movwf	6
  8376     01FA  083C               	movf	(handle_standard_control_request@setup+1)^(0+128),w
  8377     01FB  0087               	movwf	7
  8378     01FC  3144               	addfsr 1,4
  8379     01FD  0801               	movf	1,w
  8380     01FE  390F               	andlw	15
  8381     01FF  00B2               	movwf	handle_standard_control_request@ep_num^(0+128)
  8382                           
  8383                           ;../m-stack/usb/src/usb.c: 1008:    if (ep_num <= 4) {
  8384     0200  3005               	movlw	5
  8385     0201  0232               	subwf	handle_standard_control_request@ep_num^(0+128),w
  8386     0202  1803               	skipnc
  8387     0203  28D6               	goto	i1l4033
  8388                           
  8389                           ;../m-stack/usb/src/usb.c: 1009:     uint8_t flags = ep_buf[ep_num].flags;
  8390     0204  0832               	movf	handle_standard_control_request@ep_num^(0+128),w
  8391     0205  0020               	movlb	0	; select bank0
  8392     0206  00DD               	movwf	??_handle_standard_control_request
  8393     0207  01DE               	clrf	??_handle_standard_control_request+1
  8394     0208  085D               	movf	??_handle_standard_control_request,w
  8395     0209  00F0               	movwf	i1___wmul@multiplier
  8396     020A  085E               	movf	??_handle_standard_control_request+1,w
  8397     020B  00F1               	movwf	i1___wmul@multiplier+1
  8398     020C  3007               	movlw	7
  8399     020D  00F2               	movwf	i1___wmul@multiplicand
  8400     020E  3000               	movlw	0
  8401     020F  00F3               	movwf	i1___wmul@multiplicand+1
  8402     0210  3191  21C0  3180   	fcall	i1___wmul
  8403     0213  30A6               	movlw	low (_ep_buf+6)
  8404     0214  0020               	movlb	0	; select bank0
  8405     0215  00DF               	movwf	??_handle_standard_control_request+2
  8406     0216  3003               	movlw	high (_ep_buf+6)
  8407     0217  00E0               	movwf	??_handle_standard_control_request+3
  8408     0218  0870               	movf	?i1___wmul,w
  8409     0219  075F               	addwf	??_handle_standard_control_request+2,w
  8410     021A  0086               	movwf	6
  8411     021B  0871               	movf	?i1___wmul+1,w
  8412     021C  3D60               	addwfc	??_handle_standard_control_request+3,w
  8413     021D  0087               	movwf	7
  8414     021E  0801               	movf	1,w
  8415     021F  0021               	movlb	1	; select bank1
  8416     0220  00B3               	movwf	handle_standard_control_request@flags^(0+128)
  8417                           
  8418                           ;../m-stack/usb/src/usb.c: 1010:     uint8_t ret[2];;../m-stack/usb/src/usb.c: 1011:    
      +                           ret[0] = ((setup->wIndex & 0x80) ?
  8419     0221  083B               	movf	handle_standard_control_request@setup^(0+128),w
  8420     0222  0086               	movwf	6
  8421     0223  083C               	movf	(handle_standard_control_request@setup+1)^(0+128),w
  8422     0224  0087               	movwf	7
  8423     0225  3144               	addfsr 1,4
  8424     0226  1B81               	btfsc	1,7
  8425     0227  2A2B               	goto	i1l4101
  8426     0228  0833               	movf	handle_standard_control_request@flags^(0+128),w
  8427     0229  3901               	andlw	1
  8428     022A  2A2D               	goto	L6
  8429     022B                     i1l4101:
  8430     022B  0833               	movf	handle_standard_control_request@flags^(0+128),w
  8431     022C  3902               	andlw	2
  8432     022D                     L6:
  8433     022D  0020               	movlb	0	; select bank0
  8434     022E  00DD               	movwf	??_handle_standard_control_request
  8435     022F  01DE               	clrf	??_handle_standard_control_request+1
  8436     0230  085D               	movf	??_handle_standard_control_request,w
  8437     0231  0021               	movlb	1	; select bank1
  8438     0232  00A0               	movwf	_handle_standard_control_request$615^(0+128)
  8439     0233  0020               	movlb	0	; select bank0
  8440     0234  085E               	movf	??_handle_standard_control_request+1,w
  8441     0235  0021               	movlb	1	; select bank1
  8442     0236  00A1               	movwf	(_handle_standard_control_request$615+1)^(0+128)
  8443     0237  0820               	movf	_handle_standard_control_request$615^(0+128),w
  8444     0238  0421               	iorwf	(_handle_standard_control_request$615+1)^(0+128),w
  8445     0239  1903               	btfsc	3,2
  8446     023A  2A3D               	goto	u397_20
  8447     023B  3001               	movlw	1
  8448     023C  2A3E               	goto	u398_20
  8449     023D                     u397_20:
  8450     023D  3000               	movlw	0
  8451     023E                     u398_20:
  8452     023E  00A3               	movwf	handle_standard_control_request@ret_614^(0+128)
  8453                           
  8454                           ;../m-stack/usb/src/usb.c: 1014:     ret[1] = 0;
  8455     023F  01A4               	clrf	(handle_standard_control_request@ret_614^(0+128)+1)
  8456                           
  8457                           ;../m-stack/usb/src/usb.c: 1015:     start_control_return(ret, 2, setup->wLength);
  8458     0240  30A3               	movlw	low handle_standard_control_request@ret_614
  8459     0241  0020               	movlb	0	; select bank0
  8460     0242  00C9               	movwf	start_control_return@ptr
  8461     0243  3000               	movlw	high handle_standard_control_request@ret_614
  8462     0244  00CA               	movwf	start_control_return@ptr+1
  8463     0245  3002               	movlw	2
  8464     0246  00CB               	movwf	start_control_return@len
  8465     0247  3000               	movlw	0
  8466     0248  00CC               	movwf	start_control_return@len+1
  8467     0249  0021               	movlb	1	; select bank1
  8468     024A  083B               	movf	handle_standard_control_request@setup^(0+128),w
  8469     024B  0086               	movwf	6
  8470     024C  083C               	movf	(handle_standard_control_request@setup+1)^(0+128),w
  8471     024D  0087               	movwf	7
  8472     024E  3146               	addfsr 1,6
  8473     024F  3F40               	moviw [0]fsr1
  8474     0250  0020               	movlb	0	; select bank0
  8475     0251  00CD               	movwf	start_control_return@bytes_asked_for
  8476     0252  3F41               	moviw [1]fsr1
  8477     0253  00CE               	movwf	start_control_return@bytes_asked_for+1
  8478     0254  3197  2770  3180   	fcall	_start_control_return
  8479                           
  8480                           ;../m-stack/usb/src/usb.c: 1016:    }
  8481     0257  2BDD               	goto	i1l4183
  8482     0258                     i1l4113:
  8483     0258  083B               	movf	handle_standard_control_request@setup^(0+128),w
  8484     0259  0086               	movwf	6
  8485     025A  083C               	movf	(handle_standard_control_request@setup+1)^(0+128),w
  8486     025B  0087               	movwf	7
  8487     025C  3141               	addfsr 1,1
  8488     025D  300B               	movlw	11
  8489     025E  0601               	xorwf	1,w
  8490     025F  1D03               	btfss	3,2
  8491     0260  2A75               	goto	i1l4123
  8492                           
  8493                           ;../m-stack/usb/src/usb.c: 1034:   int8_t res;;../m-stack/usb/src/usb.c: 1035:   res = a
      +                          pp_set_interface_callback(setup->wIndex, setup->wValue);
  8494     0261  083B               	movf	handle_standard_control_request@setup^(0+128),w
  8495     0262  0086               	movwf	6
  8496     0263  083C               	movf	(handle_standard_control_request@setup+1)^(0+128),w
  8497     0264  0087               	movwf	7
  8498     0265  3142               	addfsr 1,2
  8499     0266  0801               	movf	1,w
  8500     0267  00F0               	movwf	app_set_interface_callback@alt_setting
  8501     0268  083B               	movf	handle_standard_control_request@setup^(0+128),w
  8502     0269  0086               	movwf	6
  8503     026A  083C               	movf	(handle_standard_control_request@setup+1)^(0+128),w
  8504     026B  0087               	movwf	7
  8505     026C  3144               	addfsr 1,4
  8506     026D  0801               	movf	1,w
  8507     026E  3180  2002  3180   	fcall	_app_set_interface_callback
  8508     0271  00A2               	movwf	handle_standard_control_request@res_616^(0+128)
  8509                           
  8510                           ;../m-stack/usb/src/usb.c: 1036:   if (res < 0) {
  8511     0272  1BA2               	btfsc	handle_standard_control_request@res_616^(0+128),7
  8512     0273  28D6               	goto	i1l4033
  8513     0274  297C               	goto	i1l4063
  8514     0275                     i1l4123:
  8515     0275  083B               	movf	handle_standard_control_request@setup^(0+128),w
  8516     0276  0086               	movwf	6
  8517     0277  083C               	movf	(handle_standard_control_request@setup+1)^(0+128),w
  8518     0278  0087               	movwf	7
  8519     0279  3141               	addfsr 1,1
  8520     027A  300A               	movlw	10
  8521     027B  0601               	xorwf	1,w
  8522     027C  1D03               	btfss	3,2
  8523     027D  2AA2               	goto	i1l4133
  8524                           
  8525                           ;../m-stack/usb/src/usb.c: 1049:   int8_t ret;;../m-stack/usb/src/usb.c: 1056:   ret = a
      +                          pp_get_interface_callback(setup->wIndex);
  8526     027E  083B               	movf	handle_standard_control_request@setup^(0+128),w
  8527     027F  0086               	movwf	6
  8528     0280  083C               	movf	(handle_standard_control_request@setup+1)^(0+128),w
  8529     0281  0087               	movwf	7
  8530     0282  3144               	addfsr 1,4
  8531     0283  0801               	movf	1,w
  8532     0284  3190  2060  3180   	fcall	_app_get_interface_callback
  8533     0287  00B5               	movwf	handle_standard_control_request@ret_617^(0+128)
  8534                           
  8535                           ;../m-stack/usb/src/usb.c: 1057:   if (ret < 0)
  8536     0288  1BB5               	btfsc	handle_standard_control_request@ret_617^(0+128),7
  8537     0289  28D6               	goto	i1l4033
  8538                           
  8539                           ;../m-stack/usb/src/usb.c: 1062:    start_control_return(&ret, 1, setup->wLength);
  8540     028A  30B5               	movlw	low handle_standard_control_request@ret_617
  8541     028B  0020               	movlb	0	; select bank0
  8542     028C  00C9               	movwf	start_control_return@ptr
  8543     028D  3000               	movlw	high handle_standard_control_request@ret_617
  8544     028E  00CA               	movwf	start_control_return@ptr+1
  8545     028F  3001               	movlw	1
  8546     0290  00CB               	movwf	start_control_return@len
  8547     0291  3000               	movlw	0
  8548     0292  00CC               	movwf	start_control_return@len+1
  8549     0293  0021               	movlb	1	; select bank1
  8550     0294  083B               	movf	handle_standard_control_request@setup^(0+128),w
  8551     0295  0086               	movwf	6
  8552     0296  083C               	movf	(handle_standard_control_request@setup+1)^(0+128),w
  8553     0297  0087               	movwf	7
  8554     0298  3146               	addfsr 1,6
  8555     0299  3F40               	moviw [0]fsr1
  8556     029A  0020               	movlb	0	; select bank0
  8557     029B  00CD               	movwf	start_control_return@bytes_asked_for
  8558     029C  3F41               	moviw [1]fsr1
  8559     029D  00CE               	movwf	start_control_return@bytes_asked_for+1
  8560     029E  3197  2770  3180   	fcall	_start_control_return
  8561     02A1  2BDD               	goto	i1l4183
  8562     02A2                     i1l4133:
  8563     02A2  083B               	movf	handle_standard_control_request@setup^(0+128),w
  8564     02A3  0086               	movwf	6
  8565     02A4  083C               	movf	(handle_standard_control_request@setup+1)^(0+128),w
  8566     02A5  0087               	movwf	7
  8567     02A6  3141               	addfsr 1,1
  8568     02A7  0301               	decf	1,w
  8569     02A8  1903               	btfsc	3,2
  8570     02A9  2AB3               	goto	i1l223
  8571     02AA  083B               	movf	handle_standard_control_request@setup^(0+128),w
  8572     02AB  0086               	movwf	6
  8573     02AC  083C               	movf	(handle_standard_control_request@setup+1)^(0+128),w
  8574     02AD  0087               	movwf	7
  8575     02AE  3141               	addfsr 1,1
  8576     02AF  3003               	movlw	3
  8577     02B0  0601               	xorwf	1,w
  8578     02B1  1D03               	btfss	3,2
  8579     02B2  2BDB               	goto	i1l221
  8580     02B3                     i1l223:
  8581                           
  8582                           ;../m-stack/usb/src/usb.c: 1074:   uint8_t stall = 1;
  8583     02B3  01A6               	clrf	handle_standard_control_request@stall^(0+128)
  8584     02B4  0AA6               	incf	handle_standard_control_request@stall^(0+128),f
  8585                           
  8586                           ;../m-stack/usb/src/usb.c: 1080:   if (setup->REQUEST.destination == 2 ) {
  8587     02B5  083B               	movf	handle_standard_control_request@setup^(0+128),w
  8588     02B6  0086               	movwf	6
  8589     02B7  083C               	movf	(handle_standard_control_request@setup+1)^(0+128),w
  8590     02B8  0087               	movwf	7
  8591     02B9  0801               	movf	1,w
  8592     02BA  391F               	andlw	31
  8593     02BB  3A02               	xorlw	2
  8594     02BC  1D03               	skipz
  8595     02BD  2BD7               	goto	i1l4177
  8596                           
  8597                           ;../m-stack/usb/src/usb.c: 1081:    if (setup->wValue == 0 ) {
  8598     02BE  083B               	movf	handle_standard_control_request@setup^(0+128),w
  8599     02BF  0086               	movwf	6
  8600     02C0  083C               	movf	(handle_standard_control_request@setup+1)^(0+128),w
  8601     02C1  0087               	movwf	7
  8602     02C2  3142               	addfsr 1,2
  8603     02C3  0016               	moviw fsr1++
  8604     02C4  0401               	iorwf	1,w
  8605     02C5  1D03               	btfss	3,2
  8606     02C6  2BD7               	goto	i1l4177
  8607                           
  8608                           ;../m-stack/usb/src/usb.c: 1082:     uint8_t ep_num = setup->wIndex & 0x0f;
  8609     02C7  083B               	movf	handle_standard_control_request@setup^(0+128),w
  8610     02C8  0086               	movwf	6
  8611     02C9  083C               	movf	(handle_standard_control_request@setup+1)^(0+128),w
  8612     02CA  0087               	movwf	7
  8613     02CB  3144               	addfsr 1,4
  8614     02CC  0801               	movf	1,w
  8615     02CD  390F               	andlw	15
  8616     02CE  00BA               	movwf	handle_standard_control_request@ep_num_619^(0+128)
  8617                           
  8618                           ;../m-stack/usb/src/usb.c: 1083:     uint8_t ep_dir = setup->wIndex & 0x80;
  8619     02CF  083B               	movf	handle_standard_control_request@setup^(0+128),w
  8620     02D0  0086               	movwf	6
  8621     02D1  083C               	movf	(handle_standard_control_request@setup+1)^(0+128),w
  8622     02D2  0087               	movwf	7
  8623     02D3  3144               	addfsr 1,4
  8624     02D4  0801               	movf	1,w
  8625     02D5  3980               	andlw	128
  8626     02D6  00B4               	movwf	handle_standard_control_request@ep_dir^(0+128)
  8627                           
  8628                           ;../m-stack/usb/src/usb.c: 1084:     if (ep_num <= 4) {
  8629     02D7  3005               	movlw	5
  8630     02D8  023A               	subwf	handle_standard_control_request@ep_num_619^(0+128),w
  8631     02D9  1803               	skipnc
  8632     02DA  2BD7               	goto	i1l4177
  8633                           
  8634                           ;../m-stack/usb/src/usb.c: 1085:      if (setup->bRequest == SET_FEATURE) {
  8635     02DB  083B               	movf	handle_standard_control_request@setup^(0+128),w
  8636     02DC  0086               	movwf	6
  8637     02DD  083C               	movf	(handle_standard_control_request@setup+1)^(0+128),w
  8638     02DE  0087               	movwf	7
  8639     02DF  3141               	addfsr 1,1
  8640     02E0  3003               	movlw	3
  8641     02E1  0601               	xorwf	1,w
  8642     02E2  1D03               	btfss	3,2
  8643     02E3  2AF1               	goto	i1l4155
  8644                           
  8645                           ;../m-stack/usb/src/usb.c: 1088:       if (ep_dir) {
  8646     02E4  0834               	movf	handle_standard_control_request@ep_dir^(0+128),w
  8647     02E5  1903               	btfsc	3,2
  8648     02E6  2AEC               	goto	i1l4153
  8649                           
  8650                           ;../m-stack/usb/src/usb.c: 1089:        usb_halt_ep_in(ep_num);
  8651     02E7  083A               	movf	handle_standard_control_request@ep_num_619^(0+128),w
  8652     02E8  3193  2375  3180   	fcall	_usb_halt_ep_in
  8653                           
  8654                           ;../m-stack/usb/src/usb.c: 1090:       }
  8655     02EB  2BBF               	goto	i1l4173
  8656     02EC                     i1l4153:
  8657                           
  8658                           ;../m-stack/usb/src/usb.c: 1092:        usb_halt_ep_out(ep_num);
  8659     02EC  083A               	movf	handle_standard_control_request@ep_num_619^(0+128),w
  8660     02ED  3193  2304  3180   	fcall	_usb_halt_ep_out
  8661     02F0  2BBF               	goto	i1l4173
  8662     02F1                     i1l4155:
  8663                           
  8664                           ;../m-stack/usb/src/usb.c: 1098:       if (ep_dir) {
  8665     02F1  0834               	movf	handle_standard_control_request@ep_dir^(0+128),w
  8666     02F2  1903               	btfsc	3,2
  8667     02F3  2B4C               	goto	i1l4165
  8668     02F4  083A               	movf	handle_standard_control_request@ep_num_619^(0+128),w
  8669     02F5  0020               	movlb	0	; select bank0
  8670     02F6  00DD               	movwf	??_handle_standard_control_request
  8671     02F7  3002               	movlw	2
  8672     02F8                     u411_25:
  8673     02F8  35DD               	lslf	??_handle_standard_control_request,f
  8674     02F9  3EFF               	addlw	-1
  8675     02FA  1D03               	skipz
  8676     02FB  2AF8               	goto	u411_25
  8677     02FC  355D               	lslf	??_handle_standard_control_request,w
  8678     02FD  3E25               	addlw	37
  8679     02FE  0086               	movwf	6
  8680     02FF  0187               	clrf	7
  8681     0300  0021               	movlb	1	; select bank1
  8682     0301  083A               	movf	handle_standard_control_request@ep_num_619^(0+128),w
  8683     0302  0020               	movlb	0	; select bank0
  8684     0303  00DE               	movwf	??_handle_standard_control_request+1
  8685     0304  01DF               	clrf	??_handle_standard_control_request+2
  8686     0305  085E               	movf	??_handle_standard_control_request+1,w
  8687     0306  00F0               	movwf	i1___wmul@multiplier
  8688     0307  085F               	movf	??_handle_standard_control_request+2,w
  8689     0308  00F1               	movwf	i1___wmul@multiplier+1
  8690     0309  3007               	movlw	7
  8691     030A  00F2               	movwf	i1___wmul@multiplicand
  8692     030B  3000               	movlw	0
  8693     030C  00F3               	movwf	i1___wmul@multiplicand+1
  8694     030D  3191  21C0  3180   	fcall	i1___wmul
  8695     0310  30A5               	movlw	low (_ep_buf+5)
  8696     0311  0020               	movlb	0	; select bank0
  8697     0312  00E0               	movwf	??_handle_standard_control_request+3
  8698     0313  3003               	movlw	high (_ep_buf+5)
  8699     0314  00E1               	movwf	??_handle_standard_control_request+4
  8700     0315  0870               	movf	?i1___wmul,w
  8701     0316  0760               	addwf	??_handle_standard_control_request+3,w
  8702     0317  0084               	movwf	4
  8703     0318  0871               	movf	?i1___wmul+1,w
  8704     0319  3D61               	addwfc	??_handle_standard_control_request+4,w
  8705     031A  0085               	movwf	5
  8706     031B  0800               	movf	0,w
  8707     031C  0081               	movwf	1
  8708     031D  0021               	movlb	1	; select bank1
  8709     031E  083A               	movf	handle_standard_control_request@ep_num_619^(0+128),w
  8710     031F  0020               	movlb	0	; select bank0
  8711     0320  00DD               	movwf	??_handle_standard_control_request
  8712     0321  3002               	movlw	2
  8713     0322                     u412_25:
  8714     0322  35DD               	lslf	??_handle_standard_control_request,f
  8715     0323  3EFF               	addlw	-1
  8716     0324  1D03               	skipz
  8717     0325  2B22               	goto	u412_25
  8718     0326  355D               	lslf	??_handle_standard_control_request,w
  8719     0327  3E24               	addlw	36
  8720     0328  0086               	movwf	6
  8721     0329  0187               	clrf	7
  8722     032A  0181               	clrf	1
  8723                           
  8724                           ;../m-stack/usb/src/usb.c: 1106:        ep_buf[ep_num].flags &= ~0x8;
  8725     032B  30F7               	movlw	247
  8726     032C  00DD               	movwf	??_handle_standard_control_request
  8727     032D  0021               	movlb	1	; select bank1
  8728     032E  083A               	movf	handle_standard_control_request@ep_num_619^(0+128),w
  8729     032F  0020               	movlb	0	; select bank0
  8730     0330  00DE               	movwf	??_handle_standard_control_request+1
  8731     0331  01DF               	clrf	??_handle_standard_control_request+2
  8732     0332  085E               	movf	??_handle_standard_control_request+1,w
  8733     0333  00F0               	movwf	i1___wmul@multiplier
  8734     0334  085F               	movf	??_handle_standard_control_request+2,w
  8735     0335  00F1               	movwf	i1___wmul@multiplier+1
  8736     0336  3007               	movlw	7
  8737     0337  00F2               	movwf	i1___wmul@multiplicand
  8738     0338  3000               	movlw	0
  8739     0339  00F3               	movwf	i1___wmul@multiplicand+1
  8740     033A  3191  21C0  3180   	fcall	i1___wmul
  8741     033D  30A6               	movlw	low (_ep_buf+6)
  8742     033E  0020               	movlb	0	; select bank0
  8743     033F  00E0               	movwf	??_handle_standard_control_request+3
  8744     0340  3003               	movlw	high (_ep_buf+6)
  8745     0341  00E1               	movwf	??_handle_standard_control_request+4
  8746     0342  0870               	movf	?i1___wmul,w
  8747     0343  0760               	addwf	??_handle_standard_control_request+3,w
  8748     0344  0086               	movwf	6
  8749     0345  0871               	movf	?i1___wmul+1,w
  8750     0346  3D61               	addwfc	??_handle_standard_control_request+4,w
  8751     0347  0087               	movwf	7
  8752     0348  085D               	movf	??_handle_standard_control_request,w
  8753     0349  0581               	andwf	1,f
  8754                           
  8755                           ;../m-stack/usb/src/usb.c: 1108:        ep_buf[ep_num].flags &= ~(0x2);
  8756     034A  30FD               	movlw	253
  8757     034B  2BA1               	goto	L7
  8758     034C                     i1l4165:	
  8759                           ;../m-stack/usb/src/usb.c: 1109:       }
  8760                           
  8761     034C  083A               	movf	handle_standard_control_request@ep_num_619^(0+128),w
  8762     034D  0020               	movlb	0	; select bank0
  8763     034E  00DD               	movwf	??_handle_standard_control_request
  8764     034F  3002               	movlw	2
  8765     0350                     u413_25:
  8766     0350  35DD               	lslf	??_handle_standard_control_request,f
  8767     0351  3EFF               	addlw	-1
  8768     0352  1D03               	skipz
  8769     0353  2B50               	goto	u413_25
  8770     0354  355D               	lslf	??_handle_standard_control_request,w
  8771     0355  3E21               	addlw	33
  8772     0356  0086               	movwf	6
  8773     0357  0187               	clrf	7
  8774     0358  0021               	movlb	1	; select bank1
  8775     0359  083A               	movf	handle_standard_control_request@ep_num_619^(0+128),w
  8776     035A  0020               	movlb	0	; select bank0
  8777     035B  00DE               	movwf	??_handle_standard_control_request+1
  8778     035C  01DF               	clrf	??_handle_standard_control_request+2
  8779     035D  085E               	movf	??_handle_standard_control_request+1,w
  8780     035E  00F0               	movwf	i1___wmul@multiplier
  8781     035F  085F               	movf	??_handle_standard_control_request+2,w
  8782     0360  00F1               	movwf	i1___wmul@multiplier+1
  8783     0361  3007               	movlw	7
  8784     0362  00F2               	movwf	i1___wmul@multiplicand
  8785     0363  3000               	movlw	0
  8786     0364  00F3               	movwf	i1___wmul@multiplicand+1
  8787     0365  3191  21C0  3180   	fcall	i1___wmul
  8788     0368  30A4               	movlw	low (_ep_buf+4)
  8789     0369  0020               	movlb	0	; select bank0
  8790     036A  00E0               	movwf	??_handle_standard_control_request+3
  8791     036B  3003               	movlw	high (_ep_buf+4)
  8792     036C  00E1               	movwf	??_handle_standard_control_request+4
  8793     036D  0870               	movf	?i1___wmul,w
  8794     036E  0760               	addwf	??_handle_standard_control_request+3,w
  8795     036F  0084               	movwf	4
  8796     0370  0871               	movf	?i1___wmul+1,w
  8797     0371  3D61               	addwfc	??_handle_standard_control_request+4,w
  8798     0372  0085               	movwf	5
  8799     0373  0800               	movf	0,w
  8800     0374  0081               	movwf	1
  8801     0375  0021               	movlb	1	; select bank1
  8802     0376  083A               	movf	handle_standard_control_request@ep_num_619^(0+128),w
  8803     0377  0020               	movlb	0	; select bank0
  8804     0378  00DD               	movwf	??_handle_standard_control_request
  8805     0379  3002               	movlw	2
  8806     037A                     u414_25:
  8807     037A  35DD               	lslf	??_handle_standard_control_request,f
  8808     037B  3EFF               	addlw	-1
  8809     037C  1D03               	skipz
  8810     037D  2B7A               	goto	u414_25
  8811     037E  355D               	lslf	??_handle_standard_control_request,w
  8812     037F  3E20               	addlw	32
  8813     0380  0086               	movwf	6
  8814     0381  0187               	clrf	7
  8815     0382  3088               	movlw	136
  8816     0383  0081               	movwf	1
  8817                           
  8818                           ;../m-stack/usb/src/usb.c: 1123:        ep_buf[ep_num].flags |= 0x4;
  8819     0384  0021               	movlb	1	; select bank1
  8820     0385  083A               	movf	handle_standard_control_request@ep_num_619^(0+128),w
  8821     0386  0020               	movlb	0	; select bank0
  8822     0387  00DD               	movwf	??_handle_standard_control_request
  8823     0388  01DE               	clrf	??_handle_standard_control_request+1
  8824     0389  085D               	movf	??_handle_standard_control_request,w
  8825     038A  00F0               	movwf	i1___wmul@multiplier
  8826     038B  085E               	movf	??_handle_standard_control_request+1,w
  8827     038C  00F1               	movwf	i1___wmul@multiplier+1
  8828     038D  3007               	movlw	7
  8829     038E  00F2               	movwf	i1___wmul@multiplicand
  8830     038F  3000               	movlw	0
  8831     0390  00F3               	movwf	i1___wmul@multiplicand+1
  8832     0391  3191  21C0  3180   	fcall	i1___wmul
  8833     0394  30A6               	movlw	low (_ep_buf+6)
  8834     0395  0020               	movlb	0	; select bank0
  8835     0396  00DF               	movwf	??_handle_standard_control_request+2
  8836     0397  3003               	movlw	high (_ep_buf+6)
  8837     0398  00E0               	movwf	??_handle_standard_control_request+3
  8838     0399  0870               	movf	?i1___wmul,w
  8839     039A  075F               	addwf	??_handle_standard_control_request+2,w
  8840     039B  0086               	movwf	6
  8841     039C  0871               	movf	?i1___wmul+1,w
  8842     039D  3D60               	addwfc	??_handle_standard_control_request+3,w
  8843     039E  0087               	movwf	7
  8844     039F  1501               	bsf	1,2
  8845                           
  8846                           ;../m-stack/usb/src/usb.c: 1125:        ep_buf[ep_num].flags &= ~(0x1);
  8847     03A0  30FE               	movlw	254
  8848     03A1                     L7:
  8849     03A1  00DD               	movwf	??_handle_standard_control_request
  8850     03A2  0021               	movlb	1	; select bank1
  8851     03A3  083A               	movf	handle_standard_control_request@ep_num_619^(0+128),w
  8852     03A4  0020               	movlb	0	; select bank0
  8853     03A5  00DE               	movwf	??_handle_standard_control_request+1
  8854     03A6  01DF               	clrf	??_handle_standard_control_request+2
  8855     03A7  085E               	movf	??_handle_standard_control_request+1,w
  8856     03A8  00F0               	movwf	i1___wmul@multiplier
  8857     03A9  085F               	movf	??_handle_standard_control_request+2,w
  8858     03AA  00F1               	movwf	i1___wmul@multiplier+1
  8859     03AB  3007               	movlw	7
  8860     03AC  00F2               	movwf	i1___wmul@multiplicand
  8861     03AD  3000               	movlw	0
  8862     03AE  00F3               	movwf	i1___wmul@multiplicand+1
  8863     03AF  3191  21C0  3180   	fcall	i1___wmul
  8864     03B2  30A6               	movlw	low (_ep_buf+6)
  8865     03B3  0020               	movlb	0	; select bank0
  8866     03B4  00E0               	movwf	??_handle_standard_control_request+3
  8867     03B5  3003               	movlw	high (_ep_buf+6)
  8868     03B6  00E1               	movwf	??_handle_standard_control_request+4
  8869     03B7  0870               	movf	?i1___wmul,w
  8870     03B8  0760               	addwf	??_handle_standard_control_request+3,w
  8871     03B9  0086               	movwf	6
  8872     03BA  0871               	movf	?i1___wmul+1,w
  8873     03BB  3D61               	addwfc	??_handle_standard_control_request+4,w
  8874     03BC  0087               	movwf	7
  8875     03BD  085D               	movf	??_handle_standard_control_request,w
  8876     03BE  0581               	andwf	1,f
  8877     03BF                     i1l4173:
  8878                           
  8879                           ;../m-stack/usb/src/usb.c: 1129:      app_endpoint_halt_callback(setup->wIndex, (setup->
      +                          bRequest == SET_FEATURE));
  8880     03BF  0021               	movlb	1	; select bank1
  8881     03C0  083B               	movf	handle_standard_control_request@setup^(0+128),w
  8882     03C1  0086               	movwf	6
  8883     03C2  083C               	movf	(handle_standard_control_request@setup+1)^(0+128),w
  8884     03C3  0087               	movwf	7
  8885     03C4  3141               	addfsr 1,1
  8886     03C5  3003               	movlw	3
  8887     03C6  0601               	xorwf	1,w
  8888     03C7  1D03               	btfss	3,2
  8889     03C8  2BCB               	goto	u415_20
  8890     03C9  3001               	movlw	1
  8891     03CA  2BCC               	goto	u416_20
  8892     03CB                     u415_20:
  8893     03CB  3000               	movlw	0
  8894     03CC                     u416_20:
  8895     03CC  00F0               	movwf	app_endpoint_halt_callback@halted
  8896     03CD  083B               	movf	handle_standard_control_request@setup^(0+128),w
  8897     03CE  0086               	movwf	6
  8898     03CF  083C               	movf	(handle_standard_control_request@setup+1)^(0+128),w
  8899     03D0  0087               	movwf	7
  8900     03D1  3144               	addfsr 1,4
  8901     03D2  0801               	movf	1,w
  8902     03D3  3190  2055  3180   	fcall	_app_endpoint_halt_callback
  8903                           
  8904                           ;../m-stack/usb/src/usb.c: 1131:      stall = 0;
  8905     03D6  01A6               	clrf	handle_standard_control_request@stall^(0+128)
  8906     03D7                     i1l4177:
  8907                           
  8908                           ;../m-stack/usb/src/usb.c: 1136:   if (!stall) {
  8909     03D7  0826               	movf	handle_standard_control_request@stall^(0+128),w
  8910     03D8  1903               	btfsc	3,2
  8911     03D9  297C               	goto	i1l4063
  8912     03DA  28D6               	goto	i1l4033
  8913     03DB                     i1l221:	
  8914                           ;../m-stack/usb/src/usb.c: 1142:  else {
  8915                           
  8916                           
  8917                           ;../m-stack/usb/src/usb.c: 1143:   res = -1;
  8918     03DB  01A5               	clrf	handle_standard_control_request@res^(0+128)
  8919     03DC  03A5               	decf	handle_standard_control_request@res^(0+128),f
  8920     03DD                     i1l4183:
  8921                           
  8922                           ;../m-stack/usb/src/usb.c: 1152:  return res;
  8923     03DD  0021               	movlb	1	; select bank1
  8924     03DE  0825               	movf	handle_standard_control_request@res^(0+128),w
  8925     03DF  0008               	return
  8926     03E0                     __end_of_handle_standard_control_request:
  8927                           
  8928                           	psect	text35
  8929     0C60                     __ptext35:	
  8930 ;; *************** function i1_init_endpoints *****************
  8931 ;; Defined at:
  8932 ;;		line 495 in file "../m-stack/usb/src/usb.c"
  8933 ;; Parameters:    Size  Location     Type
  8934 ;;		None
  8935 ;; Auto vars:     Size  Location     Type
  8936 ;;  i               1   20[BANK0 ] unsigned char 
  8937 ;; Return value:  Size  Location     Type
  8938 ;;                  1    wreg      void 
  8939 ;; Registers used:
  8940 ;;		wreg, fsr0l, fsr0h, fsr1l, fsr1h, status,2, status,0, pclath, cstack
  8941 ;; Tracked objects:
  8942 ;;		On entry : 1F/1
  8943 ;;		On exit  : 1F/1D
  8944 ;;		Unchanged: 0/0
  8945 ;; Data sizes:     COMMON   BANK0   BANK1   BANK2   BANK3   BANK4   BANK5   BANK6   BANK7   BANK8   BANK9  BANK10  BANK1
      +1  BANK12
  8946 ;;      Params:         0       0       0       0       0       0       0       0       0       0       0       0       
      +0       0
  8947 ;;      Locals:         0       3       0       0       0       0       0       0       0       0       0       0       
      +0       0
  8948 ;;      Temps:          0       6       0       0       0       0       0       0       0       0       0       0       
      +0       0
  8949 ;;      Totals:         0       9       0       0       0       0       0       0       0       0       0       0       
      +0       0
  8950 ;;Total ram usage:        9 bytes
  8951 ;; Hardware stack levels used: 1
  8952 ;; Hardware stack levels required when called: 2
  8953 ;; This function calls:
  8954 ;;		i1___wmul
  8955 ;;		i1_memset
  8956 ;;		i1_pic16_linear_addr
  8957 ;; This function is called by:
  8958 ;;		_handle_standard_control_request
  8959 ;;		i1_usb_init
  8960 ;; This function uses a non-reentrant model
  8961 ;;
  8962                           
  8963     0C60                     i1_init_endpoints:	
  8964                           ;psect for function i1_init_endpoints
  8965                           
  8966                           
  8967                           ;../m-stack/usb/src/usb.c: 497:  uint8_t i;;../m-stack/usb/src/usb.c: 501:  UCONbits.PPB
      +                          RST = 1;
  8968                           
  8969                           ;incstack = 0
  8970                           ; Regs used in i1_init_endpoints: [wreg-fsr1h+status,2+status,0+pclath+cstack]
  8971     0C60  003D               	movlb	29	; select bank29
  8972     0C61  170E               	bsf	14,6	;volatile
  8973                           
  8974                           ;../m-stack/usb/src/usb.c: 503:  ep0_buf.flags = 0;
  8975     0C62  0021               	movlb	1	; select bank1
  8976     0C63  01CF               	clrf	(_ep0_buf^(0+128)+4)
  8977                           
  8978                           ;../m-stack/usb/src/usb.c: 504:  for (i = 0; i <= 4; i++) {
  8979     0C64  0020               	movlb	0	; select bank0
  8980     0C65  01DC               	clrf	i1init_endpoints@i
  8981     0C66                     i1l3945:
  8982                           
  8983                           ;../m-stack/usb/src/usb.c: 508:   ep_buf[i].flags = 0x4;
  8984     0C66  085C               	movf	i1init_endpoints@i,w
  8985     0C67  00D4               	movwf	??i1_init_endpoints
  8986     0C68  01D5               	clrf	??i1_init_endpoints+1
  8987     0C69  0854               	movf	??i1_init_endpoints,w
  8988     0C6A  00F0               	movwf	i1___wmul@multiplier
  8989     0C6B  0855               	movf	??i1_init_endpoints+1,w
  8990     0C6C  00F1               	movwf	i1___wmul@multiplier+1
  8991     0C6D  3007               	movlw	7
  8992     0C6E  00F2               	movwf	i1___wmul@multiplicand
  8993     0C6F  3000               	movlw	0
  8994     0C70  00F3               	movwf	i1___wmul@multiplicand+1
  8995     0C71  3191  21C0  318C   	fcall	i1___wmul
  8996     0C74  30A6               	movlw	low (_ep_buf+6)
  8997     0C75  0020               	movlb	0	; select bank0
  8998     0C76  00D6               	movwf	??i1_init_endpoints+2
  8999     0C77  3003               	movlw	high (_ep_buf+6)
  9000     0C78  00D7               	movwf	??i1_init_endpoints+3
  9001     0C79  0870               	movf	?i1___wmul,w
  9002     0C7A  0756               	addwf	??i1_init_endpoints+2,w
  9003     0C7B  00D8               	movwf	??i1_init_endpoints+4
  9004     0C7C  0871               	movf	?i1___wmul+1,w
  9005     0C7D  3D57               	addwfc	??i1_init_endpoints+3,w
  9006     0C7E  00D9               	movwf	??i1_init_endpoints+5
  9007     0C7F  0858               	movf	??i1_init_endpoints+4,w
  9008     0C80  0086               	movwf	6
  9009     0C81  0859               	movf	??i1_init_endpoints+5,w
  9010     0C82  0087               	movwf	7
  9011     0C83  3004               	movlw	4
  9012     0C84  0081               	movwf	1
  9013                           
  9014                           ;../m-stack/usb/src/usb.c: 510:  }
  9015     0C85  3001               	movlw	1
  9016     0C86  00D4               	movwf	??i1_init_endpoints
  9017     0C87  0854               	movf	??i1_init_endpoints,w
  9018     0C88  07DC               	addwf	i1init_endpoints@i,f
  9019     0C89  3005               	movlw	5
  9020     0C8A  025C               	subwf	i1init_endpoints@i,w
  9021     0C8B  1C03               	skipc
  9022     0C8C  2C66               	goto	i1l3945
  9023                           
  9024                           ;../m-stack/usb/src/usb.c: 513:  memset(bds, 0x0, sizeof(bds));
  9025     0C8D  3020               	movlw	32
  9026     0C8E  00F0               	movwf	i1memset@dest
  9027     0C8F  3000               	movlw	0
  9028     0C90  00F1               	movwf	i1memset@dest+1
  9029     0C91  3000               	movlw	0
  9030     0C92  00F2               	movwf	i1memset@c
  9031     0C93  00F3               	movwf	i1memset@c+1
  9032     0C94  3028               	movlw	40
  9033     0C95  00F4               	movwf	i1memset@n
  9034     0C96  3000               	movlw	0
  9035     0C97  00F5               	movwf	i1memset@n+1
  9036     0C98  3191  2178  318C   	fcall	i1_memset
  9037                           
  9038                           ;../m-stack/usb/src/usb.c: 517:  bds[0].BDnADR = (uint16_t) pic16_linear_addr(ep0_buf.ou
      +                          t);
  9039     0C9B  0021               	movlb	1	; select bank1
  9040     0C9C  084C               	movf	(_ep0_buf+1)^(0+128),w
  9041     0C9D  00F7               	movwf	i1pic16_linear_addr@ptr+1
  9042     0C9E  084B               	movf	_ep0_buf^(0+128),w
  9043     0C9F  00F6               	movwf	i1pic16_linear_addr@ptr
  9044     0CA0  3194  2492  318C   	fcall	i1_pic16_linear_addr
  9045     0CA3  0877               	movf	?i1_pic16_linear_addr+1,w
  9046     0CA4  0020               	movlb	0	; select bank0
  9047     0CA5  00A3               	movwf	35
  9048     0CA6  0876               	movf	?i1_pic16_linear_addr,w
  9049     0CA7  00A2               	movwf	34
  9050     0CA8  3008               	movlw	8
  9051     0CA9  00A1               	movwf	33
  9052     0CAA  3080               	movlw	128
  9053     0CAB  00A0               	movwf	32
  9054                           
  9055                           ;../m-stack/usb/src/usb.c: 527:  bds[1].BDnADR = (uint16_t) pic16_linear_addr(ep0_buf.in
      +                          );
  9056     0CAC  0021               	movlb	1	; select bank1
  9057     0CAD  084E               	movf	((_ep0_buf+1)^(0+128)+2),w
  9058     0CAE  00F7               	movwf	i1pic16_linear_addr@ptr+1
  9059     0CAF  084D               	movf	(_ep0_buf^(0+128)+2),w
  9060     0CB0  00F6               	movwf	i1pic16_linear_addr@ptr
  9061     0CB1  3194  2492  318C   	fcall	i1_pic16_linear_addr
  9062     0CB4  0877               	movf	?i1_pic16_linear_addr+1,w
  9063     0CB5  0020               	movlb	0	; select bank0
  9064     0CB6  00A7               	movwf	39
  9065     0CB7  0876               	movf	?i1_pic16_linear_addr,w
  9066     0CB8  00A6               	movwf	38
  9067     0CB9  3008               	movlw	8
  9068     0CBA  00A5               	movwf	37
  9069     0CBB  01A4               	clrf	36
  9070                           
  9071                           ;../m-stack/usb/src/usb.c: 534:  for (i = 1; i <= 4; i++) {
  9072     0CBC  01DC               	clrf	i1init_endpoints@i
  9073     0CBD  0ADC               	incf	i1init_endpoints@i,f
  9074     0CBE                     i1l3971:
  9075                           
  9076                           ;../m-stack/usb/src/usb.c: 537:   bds[(i) * 2].BDnADR = (uint16_t) pic16_linear_addr(ep_
      +                          buf[i].out);
  9077     0CBE  085C               	movf	i1init_endpoints@i,w
  9078     0CBF  00D4               	movwf	??i1_init_endpoints
  9079     0CC0  01D5               	clrf	??i1_init_endpoints+1
  9080     0CC1  0854               	movf	??i1_init_endpoints,w
  9081     0CC2  00F0               	movwf	i1___wmul@multiplier
  9082     0CC3  0855               	movf	??i1_init_endpoints+1,w
  9083     0CC4  00F1               	movwf	i1___wmul@multiplier+1
  9084     0CC5  3007               	movlw	7
  9085     0CC6  00F2               	movwf	i1___wmul@multiplicand
  9086     0CC7  3000               	movlw	0
  9087     0CC8  00F3               	movwf	i1___wmul@multiplicand+1
  9088     0CC9  3191  21C0  318C   	fcall	i1___wmul
  9089     0CCC  30A0               	movlw	low _ep_buf
  9090     0CCD  0020               	movlb	0	; select bank0
  9091     0CCE  00D6               	movwf	??i1_init_endpoints+2
  9092     0CCF  3003               	movlw	high _ep_buf
  9093     0CD0  00D7               	movwf	??i1_init_endpoints+3
  9094     0CD1  0870               	movf	?i1___wmul,w
  9095     0CD2  0756               	addwf	??i1_init_endpoints+2,w
  9096     0CD3  0086               	movwf	6
  9097     0CD4  0871               	movf	?i1___wmul+1,w
  9098     0CD5  3D57               	addwfc	??i1_init_endpoints+3,w
  9099     0CD6  0087               	movwf	7
  9100     0CD7  3F40               	moviw [0]fsr1
  9101     0CD8  00DA               	movwf	i1_init_endpoints$2399
  9102     0CD9  3F41               	moviw [1]fsr1
  9103     0CDA  00DB               	movwf	i1_init_endpoints$2399+1
  9104                           
  9105                           ;../m-stack/usb/src/usb.c: 537:   bds[(i) * 2].BDnADR = (uint16_t) pic16_linear_addr(ep_
      +                          buf[i].out);
  9106     0CDB  085B               	movf	i1_init_endpoints$2399+1,w
  9107     0CDC  00F7               	movwf	i1pic16_linear_addr@ptr+1
  9108     0CDD  085A               	movf	i1_init_endpoints$2399,w
  9109     0CDE  00F6               	movwf	i1pic16_linear_addr@ptr
  9110     0CDF  3194  2492  318C   	fcall	i1_pic16_linear_addr
  9111     0CE2  0020               	movlb	0	; select bank0
  9112     0CE3  085C               	movf	i1init_endpoints@i,w
  9113     0CE4  00D4               	movwf	??i1_init_endpoints
  9114     0CE5  3002               	movlw	2
  9115     0CE6                     u370_25:
  9116     0CE6  35D4               	lslf	??i1_init_endpoints,f
  9117     0CE7  3EFF               	addlw	-1
  9118     0CE8  1D03               	skipz
  9119     0CE9  2CE6               	goto	u370_25
  9120     0CEA  3554               	lslf	??i1_init_endpoints,w
  9121     0CEB  3E22               	addlw	34
  9122     0CEC  0086               	movwf	6
  9123     0CED  0187               	clrf	7
  9124     0CEE  0876               	movf	?i1_pic16_linear_addr,w
  9125     0CEF  3FC0               	movwi [0]fsr1
  9126     0CF0  0877               	movf	?i1_pic16_linear_addr+1,w
  9127     0CF1  3FC1               	movwi [1]fsr1
  9128     0CF2  085C               	movf	i1init_endpoints@i,w
  9129     0CF3  00D4               	movwf	??i1_init_endpoints
  9130     0CF4  3002               	movlw	2
  9131     0CF5                     u371_25:
  9132     0CF5  35D4               	lslf	??i1_init_endpoints,f
  9133     0CF6  3EFF               	addlw	-1
  9134     0CF7  1D03               	skipz
  9135     0CF8  2CF5               	goto	u371_25
  9136     0CF9  3554               	lslf	??i1_init_endpoints,w
  9137     0CFA  3E21               	addlw	33
  9138     0CFB  0086               	movwf	6
  9139     0CFC  0187               	clrf	7
  9140     0CFD  085C               	movf	i1init_endpoints@i,w
  9141     0CFE  00D5               	movwf	??i1_init_endpoints+1
  9142     0CFF  01D6               	clrf	??i1_init_endpoints+2
  9143     0D00  0855               	movf	??i1_init_endpoints+1,w
  9144     0D01  00F0               	movwf	i1___wmul@multiplier
  9145     0D02  0856               	movf	??i1_init_endpoints+2,w
  9146     0D03  00F1               	movwf	i1___wmul@multiplier+1
  9147     0D04  3007               	movlw	7
  9148     0D05  00F2               	movwf	i1___wmul@multiplicand
  9149     0D06  3000               	movlw	0
  9150     0D07  00F3               	movwf	i1___wmul@multiplicand+1
  9151     0D08  3191  21C0  318C   	fcall	i1___wmul
  9152     0D0B  30A4               	movlw	low (_ep_buf+4)
  9153     0D0C  0020               	movlb	0	; select bank0
  9154     0D0D  00D7               	movwf	??i1_init_endpoints+3
  9155     0D0E  3003               	movlw	high (_ep_buf+4)
  9156     0D0F  00D8               	movwf	??i1_init_endpoints+4
  9157     0D10  0870               	movf	?i1___wmul,w
  9158     0D11  0757               	addwf	??i1_init_endpoints+3,w
  9159     0D12  0084               	movwf	4
  9160     0D13  0871               	movf	?i1___wmul+1,w
  9161     0D14  3D58               	addwfc	??i1_init_endpoints+4,w
  9162     0D15  0085               	movwf	5
  9163     0D16  0800               	movf	0,w
  9164     0D17  0081               	movwf	1
  9165     0D18  085C               	movf	i1init_endpoints@i,w
  9166     0D19  00D4               	movwf	??i1_init_endpoints
  9167     0D1A  3002               	movlw	2
  9168     0D1B                     u372_25:
  9169     0D1B  35D4               	lslf	??i1_init_endpoints,f
  9170     0D1C  3EFF               	addlw	-1
  9171     0D1D  1D03               	skipz
  9172     0D1E  2D1B               	goto	u372_25
  9173     0D1F  3554               	lslf	??i1_init_endpoints,w
  9174     0D20  3E20               	addlw	32
  9175     0D21  0086               	movwf	6
  9176     0D22  0187               	clrf	7
  9177     0D23  3088               	movlw	136
  9178     0D24  0081               	movwf	1
  9179                           
  9180                           ;../m-stack/usb/src/usb.c: 546:   bds[(i) * 2 + 1].BDnADR = (uint16_t) pic16_linear_addr
      +                          (ep_buf[i].in);
  9181     0D25  085C               	movf	i1init_endpoints@i,w
  9182     0D26  00D4               	movwf	??i1_init_endpoints
  9183     0D27  01D5               	clrf	??i1_init_endpoints+1
  9184     0D28  0854               	movf	??i1_init_endpoints,w
  9185     0D29  00F0               	movwf	i1___wmul@multiplier
  9186     0D2A  0855               	movf	??i1_init_endpoints+1,w
  9187     0D2B  00F1               	movwf	i1___wmul@multiplier+1
  9188     0D2C  3007               	movlw	7
  9189     0D2D  00F2               	movwf	i1___wmul@multiplicand
  9190     0D2E  3000               	movlw	0
  9191     0D2F  00F3               	movwf	i1___wmul@multiplicand+1
  9192     0D30  3191  21C0  318C   	fcall	i1___wmul
  9193     0D33  30A2               	movlw	low (_ep_buf+2)
  9194     0D34  0020               	movlb	0	; select bank0
  9195     0D35  00D6               	movwf	??i1_init_endpoints+2
  9196     0D36  3003               	movlw	high (_ep_buf+2)
  9197     0D37  00D7               	movwf	??i1_init_endpoints+3
  9198     0D38  0870               	movf	?i1___wmul,w
  9199     0D39  0756               	addwf	??i1_init_endpoints+2,w
  9200     0D3A  0086               	movwf	6
  9201     0D3B  0871               	movf	?i1___wmul+1,w
  9202     0D3C  3D57               	addwfc	??i1_init_endpoints+3,w
  9203     0D3D  0087               	movwf	7
  9204     0D3E  3F40               	moviw [0]fsr1
  9205     0D3F  00DA               	movwf	i1_init_endpoints$2399
  9206     0D40  3F41               	moviw [1]fsr1
  9207     0D41  00DB               	movwf	i1_init_endpoints$2399+1
  9208                           
  9209                           ;../m-stack/usb/src/usb.c: 546:   bds[(i) * 2 + 1].BDnADR = (uint16_t) pic16_linear_addr
      +                          (ep_buf[i].in);
  9210     0D42  085B               	movf	i1_init_endpoints$2399+1,w
  9211     0D43  00F7               	movwf	i1pic16_linear_addr@ptr+1
  9212     0D44  085A               	movf	i1_init_endpoints$2399,w
  9213     0D45  00F6               	movwf	i1pic16_linear_addr@ptr
  9214     0D46  3194  2492  318C   	fcall	i1_pic16_linear_addr
  9215     0D49  0020               	movlb	0	; select bank0
  9216     0D4A  085C               	movf	i1init_endpoints@i,w
  9217     0D4B  00D4               	movwf	??i1_init_endpoints
  9218     0D4C  3002               	movlw	2
  9219     0D4D                     u373_25:
  9220     0D4D  35D4               	lslf	??i1_init_endpoints,f
  9221     0D4E  3EFF               	addlw	-1
  9222     0D4F  1D03               	skipz
  9223     0D50  2D4D               	goto	u373_25
  9224     0D51  3554               	lslf	??i1_init_endpoints,w
  9225     0D52  3E26               	addlw	38
  9226     0D53  0086               	movwf	6
  9227     0D54  0187               	clrf	7
  9228     0D55  0876               	movf	?i1_pic16_linear_addr,w
  9229     0D56  3FC0               	movwi [0]fsr1
  9230     0D57  0877               	movf	?i1_pic16_linear_addr+1,w
  9231     0D58  3FC1               	movwi [1]fsr1
  9232     0D59  085C               	movf	i1init_endpoints@i,w
  9233     0D5A  00D4               	movwf	??i1_init_endpoints
  9234     0D5B  3002               	movlw	2
  9235     0D5C                     u374_25:
  9236     0D5C  35D4               	lslf	??i1_init_endpoints,f
  9237     0D5D  3EFF               	addlw	-1
  9238     0D5E  1D03               	skipz
  9239     0D5F  2D5C               	goto	u374_25
  9240     0D60  3554               	lslf	??i1_init_endpoints,w
  9241     0D61  3E25               	addlw	37
  9242     0D62  0086               	movwf	6
  9243     0D63  0187               	clrf	7
  9244     0D64  085C               	movf	i1init_endpoints@i,w
  9245     0D65  00D5               	movwf	??i1_init_endpoints+1
  9246     0D66  01D6               	clrf	??i1_init_endpoints+2
  9247     0D67  0855               	movf	??i1_init_endpoints+1,w
  9248     0D68  00F0               	movwf	i1___wmul@multiplier
  9249     0D69  0856               	movf	??i1_init_endpoints+2,w
  9250     0D6A  00F1               	movwf	i1___wmul@multiplier+1
  9251     0D6B  3007               	movlw	7
  9252     0D6C  00F2               	movwf	i1___wmul@multiplicand
  9253     0D6D  3000               	movlw	0
  9254     0D6E  00F3               	movwf	i1___wmul@multiplicand+1
  9255     0D6F  3191  21C0  318C   	fcall	i1___wmul
  9256     0D72  30A5               	movlw	low (_ep_buf+5)
  9257     0D73  0020               	movlb	0	; select bank0
  9258     0D74  00D7               	movwf	??i1_init_endpoints+3
  9259     0D75  3003               	movlw	high (_ep_buf+5)
  9260     0D76  00D8               	movwf	??i1_init_endpoints+4
  9261     0D77  0870               	movf	?i1___wmul,w
  9262     0D78  0757               	addwf	??i1_init_endpoints+3,w
  9263     0D79  0084               	movwf	4
  9264     0D7A  0871               	movf	?i1___wmul+1,w
  9265     0D7B  3D58               	addwfc	??i1_init_endpoints+4,w
  9266     0D7C  0085               	movwf	5
  9267     0D7D  0800               	movf	0,w
  9268     0D7E  0081               	movwf	1
  9269     0D7F  085C               	movf	i1init_endpoints@i,w
  9270     0D80  00D4               	movwf	??i1_init_endpoints
  9271     0D81  3002               	movlw	2
  9272     0D82                     u375_25:
  9273     0D82  35D4               	lslf	??i1_init_endpoints,f
  9274     0D83  3EFF               	addlw	-1
  9275     0D84  1D03               	skipz
  9276     0D85  2D82               	goto	u375_25
  9277     0D86  3554               	lslf	??i1_init_endpoints,w
  9278     0D87  3E24               	addlw	36
  9279     0D88  0086               	movwf	6
  9280     0D89  0187               	clrf	7
  9281     0D8A  0181               	clrf	1
  9282                           
  9283                           ;../m-stack/usb/src/usb.c: 553:  }
  9284     0D8B  3001               	movlw	1
  9285     0D8C  00D4               	movwf	??i1_init_endpoints
  9286     0D8D  0854               	movf	??i1_init_endpoints,w
  9287     0D8E  07DC               	addwf	i1init_endpoints@i,f
  9288     0D8F  3005               	movlw	5
  9289     0D90  025C               	subwf	i1init_endpoints@i,w
  9290     0D91  1C03               	skipc
  9291     0D92  2CBE               	goto	i1l3971
  9292                           
  9293                           ;../m-stack/usb/src/usb.c: 555:  UCONbits.PPBRST = 0;
  9294     0D93  003D               	movlb	29	; select bank29
  9295     0D94  130E               	bcf	14,6	;volatile
  9296     0D95  0008               	return
  9297     0D96                     __end_ofi1_init_endpoints:
  9298                           
  9299                           	psect	text36
  9300     1492                     __ptext36:	
  9301 ;; *************** function i1_pic16_linear_addr *****************
  9302 ;; Defined at:
  9303 ;;		line 456 in file "../m-stack/usb/src/usb.c"
  9304 ;; Parameters:    Size  Location     Type
  9305 ;;  ptr             2    6[COMMON] PTR void 
  9306 ;;		 -> NULL(0), ep_buffers(294), 
  9307 ;; Auto vars:     Size  Location     Type
  9308 ;;  addr            2   10[COMMON] unsigned short 
  9309 ;;  low             1    9[COMMON] unsigned char 
  9310 ;;  high            1    8[COMMON] unsigned char 
  9311 ;; Return value:  Size  Location     Type
  9312 ;;                  2    6[COMMON] unsigned short 
  9313 ;; Registers used:
  9314 ;;		wreg, status,2, status,0, pclath, cstack
  9315 ;; Tracked objects:
  9316 ;;		On entry : 1E/1
  9317 ;;		On exit  : 1E/0
  9318 ;;		Unchanged: 0/0
  9319 ;; Data sizes:     COMMON   BANK0   BANK1   BANK2   BANK3   BANK4   BANK5   BANK6   BANK7   BANK8   BANK9  BANK10  BANK1
      +1  BANK12
  9320 ;;      Params:         2       0       0       0       0       0       0       0       0       0       0       0       
      +0       0
  9321 ;;      Locals:         4       0       0       0       0       0       0       0       0       0       0       0       
      +0       0
  9322 ;;      Temps:          0      12       0       0       0       0       0       0       0       0       0       0       
      +0       0
  9323 ;;      Totals:         6      12       0       0       0       0       0       0       0       0       0       0       
      +0       0
  9324 ;;Total ram usage:       18 bytes
  9325 ;; Hardware stack levels used: 1
  9326 ;; Hardware stack levels required when called: 1
  9327 ;; This function calls:
  9328 ;;		i1___wmul
  9329 ;; This function is called by:
  9330 ;;		i1_init_endpoints
  9331 ;; This function uses a non-reentrant model
  9332 ;;
  9333                           
  9334     1492                     i1_pic16_linear_addr:	
  9335                           ;psect for function i1_pic16_linear_addr
  9336                           
  9337                           
  9338                           ;../m-stack/usb/src/usb.c: 456: static uint16_t pic16_linear_addr(void *ptr);../m-stack/
      +                          usb/src/usb.c: 457: {;../m-stack/usb/src/usb.c: 458:  uint8_t high, low;;../m-stack/usb/
      +                          src/usb.c: 459:  uint16_t addr = (uint16_t) ptr;
  9339                           
  9340                           ;incstack = 0
  9341                           ; Regs used in i1_pic16_linear_addr: [wreg+status,2+status,0+pclath+cstack]
  9342     1492  0877               	movf	i1pic16_linear_addr@ptr+1,w
  9343     1493  00FB               	movwf	i1pic16_linear_addr@addr+1
  9344     1494  0876               	movf	i1pic16_linear_addr@ptr,w
  9345     1495  00FA               	movwf	i1pic16_linear_addr@addr
  9346                           
  9347                           ;../m-stack/usb/src/usb.c: 462:  if (addr >= 0x2000)
  9348     1496  3020               	movlw	32
  9349     1497  027B               	subwf	i1pic16_linear_addr@addr+1,w
  9350     1498  3000               	movlw	0
  9351     1499  1903               	skipnz
  9352     149A  027A               	subwf	i1pic16_linear_addr@addr,w
  9353     149B  1C03               	skipc
  9354     149C  2CA2               	goto	i1l3579
  9355                           
  9356                           ;../m-stack/usb/src/usb.c: 463:   return addr;
  9357     149D  087B               	movf	i1pic16_linear_addr@addr+1,w
  9358     149E  00F7               	movwf	?i1_pic16_linear_addr+1
  9359     149F  087A               	movf	i1pic16_linear_addr@addr,w
  9360     14A0  00F6               	movwf	?i1_pic16_linear_addr
  9361     14A1  0008               	return
  9362     14A2                     i1l3579:
  9363                           
  9364                           ;../m-stack/usb/src/usb.c: 465:  high = (addr & 0xff00) >> 8;
  9365     14A2  087B               	movf	i1pic16_linear_addr@addr+1,w
  9366     14A3  00F8               	movwf	i1pic16_linear_addr@high
  9367                           
  9368                           ;../m-stack/usb/src/usb.c: 466:  low = addr & 0x00ff;
  9369     14A4  087A               	movf	i1pic16_linear_addr@addr,w
  9370     14A5  00F9               	movwf	i1pic16_linear_addr@low
  9371                           
  9372                           ;../m-stack/usb/src/usb.c: 468:  return 0x2000 +
  9373     14A6  0879               	movf	i1pic16_linear_addr@low,w
  9374     14A7  397F               	andlw	127
  9375     14A8  0020               	movlb	0	; select bank0
  9376     14A9  00C8               	movwf	??i1_pic16_linear_addr
  9377     14AA  01C9               	clrf	??i1_pic16_linear_addr+1
  9378     14AB  0879               	movf	i1pic16_linear_addr@low,w
  9379     14AC  3980               	andlw	128
  9380     14AD  00CA               	movwf	??i1_pic16_linear_addr+2
  9381     14AE  01CB               	clrf	??i1_pic16_linear_addr+3
  9382     14AF  0878               	movf	i1pic16_linear_addr@high,w
  9383     14B0  00CC               	movwf	??i1_pic16_linear_addr+4
  9384     14B1  01CD               	clrf	??i1_pic16_linear_addr+5
  9385     14B2  35CC               	lslf	??i1_pic16_linear_addr+4,f
  9386     14B3  0DCD               	rlf	??i1_pic16_linear_addr+5,f
  9387     14B4  084A               	movf	??i1_pic16_linear_addr+2,w
  9388     14B5  074C               	addwf	??i1_pic16_linear_addr+4,w
  9389     14B6  00CE               	movwf	??i1_pic16_linear_addr+6
  9390     14B7  084B               	movf	??i1_pic16_linear_addr+3,w
  9391     14B8  3D4D               	addwfc	??i1_pic16_linear_addr+5,w
  9392     14B9  00CF               	movwf	??i1_pic16_linear_addr+7
  9393     14BA  084E               	movf	??i1_pic16_linear_addr+6,w
  9394     14BB  044F               	iorwf	??i1_pic16_linear_addr+7,w
  9395     14BC  1903               	btfsc	3,2
  9396     14BD  2CC0               	goto	u317_20
  9397     14BE  3001               	movlw	1
  9398     14BF  2CC1               	goto	u318_20
  9399     14C0                     u317_20:
  9400     14C0  3000               	movlw	0
  9401     14C1                     u318_20:
  9402     14C1  00D0               	movwf	??i1_pic16_linear_addr+8
  9403     14C2  01D1               	clrf	??i1_pic16_linear_addr+9
  9404     14C3  0850               	movf	??i1_pic16_linear_addr+8,w
  9405     14C4  00F0               	movwf	i1___wmul@multiplier
  9406     14C5  0851               	movf	??i1_pic16_linear_addr+9,w
  9407     14C6  00F1               	movwf	i1___wmul@multiplier+1
  9408     14C7  3050               	movlw	80
  9409     14C8  00F2               	movwf	i1___wmul@multiplicand
  9410     14C9  3000               	movlw	0
  9411     14CA  00F3               	movwf	i1___wmul@multiplicand+1
  9412     14CB  3191  21C0         	fcall	i1___wmul
  9413     14CD  0020               	movlb	0	; select bank0
  9414     14CE  0848               	movf	??i1_pic16_linear_addr,w
  9415     14CF  0770               	addwf	?i1___wmul,w
  9416     14D0  00D2               	movwf	??i1_pic16_linear_addr+10
  9417     14D1  0849               	movf	??i1_pic16_linear_addr+1,w
  9418     14D2  3D71               	addwfc	?i1___wmul+1,w
  9419     14D3  00D3               	movwf	??i1_pic16_linear_addr+11
  9420     14D4  0852               	movf	??i1_pic16_linear_addr+10,w
  9421     14D5  3EE0               	addlw	224
  9422     14D6  00F6               	movwf	?i1_pic16_linear_addr
  9423     14D7  301F               	movlw	31
  9424     14D8  3D53               	addwfc	??i1_pic16_linear_addr+11,w
  9425     14D9  00F7               	movwf	?i1_pic16_linear_addr+1
  9426     14DA  0008               	return
  9427     14DB                     __end_ofi1_pic16_linear_addr:
  9428                           
  9429                           	psect	text37
  9430     1178                     __ptext37:	
  9431 ;; *************** function i1_memset *****************
  9432 ;; Defined at:
  9433 ;;		line 3 in file "/opt/microchip/xc8/v2.45/pic/sources/c99/common/memset.c"
  9434 ;; Parameters:    Size  Location     Type
  9435 ;;  dest            2    0[COMMON] PTR void 
  9436 ;;		 -> pp_params(11), UEP0(1), bds(40), 
  9437 ;;  c               2    2[COMMON] int 
  9438 ;;  n               2    4[COMMON] unsigned int 
  9439 ;; Auto vars:     Size  Location     Type
  9440 ;;  p               2    6[COMMON] PTR unsigned char 
  9441 ;;		 -> pp_params(11), UEP0(1), bds(40), 
  9442 ;; Return value:  Size  Location     Type
  9443 ;;                  2    0[COMMON] PTR void 
  9444 ;; Registers used:
  9445 ;;		wreg, fsr1l, fsr1h, status,2, status,0
  9446 ;; Tracked objects:
  9447 ;;		On entry : 2/1D
  9448 ;;		On exit  : 2/0
  9449 ;;		Unchanged: 2/0
  9450 ;; Data sizes:     COMMON   BANK0   BANK1   BANK2   BANK3   BANK4   BANK5   BANK6   BANK7   BANK8   BANK9  BANK10  BANK1
      +1  BANK12
  9451 ;;      Params:         6       0       0       0       0       0       0       0       0       0       0       0       
      +0       0
  9452 ;;      Locals:         2       0       0       0       0       0       0       0       0       0       0       0       
      +0       0
  9453 ;;      Temps:          0       0       0       0       0       0       0       0       0       0       0       0       
      +0       0
  9454 ;;      Totals:         8       0       0       0       0       0       0       0       0       0       0       0       
      +0       0
  9455 ;;Total ram usage:        8 bytes
  9456 ;; Hardware stack levels used: 1
  9457 ;; This function calls:
  9458 ;;		Nothing
  9459 ;; This function is called by:
  9460 ;;		i1_init_endpoints
  9461 ;;		i1_usb_init
  9462 ;; This function uses a non-reentrant model
  9463 ;;
  9464                           
  9465     1178                     i1_memset:	
  9466                           ;psect for function i1_memset
  9467                           
  9468                           
  9469                           ;incstack = 0
  9470                           ; Regs used in i1_memset: [wreg+fsr1l+fsr1h+status,2+status,0]
  9471     1178  0871               	movf	i1memset@dest+1,w
  9472     1179  00F7               	movwf	i1memset@p+1
  9473     117A  0870               	movf	i1memset@dest,w
  9474     117B  00F6               	movwf	i1memset@p
  9475     117C                     i1l3591:
  9476     117C  3001               	movlw	1
  9477     117D  02F4               	subwf	i1memset@n,f
  9478     117E  3000               	movlw	0
  9479     117F  3BF5               	subwfb	i1memset@n+1,f
  9480     1180  0A74               	incf	i1memset@n,w
  9481     1181  1903               	btfsc	3,2
  9482     1182  0A75               	incf	i1memset@n+1,w
  9483     1183  1903               	btfsc	3,2
  9484     1184  0008               	return
  9485     1185  0876               	movf	i1memset@p,w
  9486     1186  0086               	movwf	6
  9487     1187  0877               	movf	i1memset@p+1,w
  9488     1188  0087               	movwf	7
  9489     1189  0872               	movf	i1memset@c,w
  9490     118A  0081               	movwf	1
  9491     118B  3001               	movlw	1
  9492     118C  07F6               	addwf	i1memset@p,f
  9493     118D  3000               	movlw	0
  9494     118E  3DF7               	addwfc	i1memset@p+1,f
  9495     118F  297C               	goto	i1l3591
  9496     1190                     __end_ofi1_memset:
  9497                           
  9498                           	psect	text38
  9499     1304                     __ptext38:	
  9500 ;; *************** function _usb_halt_ep_out *****************
  9501 ;; Defined at:
  9502 ;;		line 1661 in file "../m-stack/usb/src/usb.c"
  9503 ;; Parameters:    Size  Location     Type
  9504 ;;  ep              1    wreg     unsigned char 
  9505 ;; Auto vars:     Size  Location     Type
  9506 ;;  ep              1   10[COMMON] unsigned char 
  9507 ;; Return value:  Size  Location     Type
  9508 ;;                  1    wreg      unsigned char 
  9509 ;; Registers used:
  9510 ;;		wreg, fsr1l, fsr1h, status,2, status,0, pclath, cstack
  9511 ;; Tracked objects:
  9512 ;;		On entry : 1F/1
  9513 ;;		On exit  : 18/0
  9514 ;;		Unchanged: 18/0
  9515 ;; Data sizes:     COMMON   BANK0   BANK1   BANK2   BANK3   BANK4   BANK5   BANK6   BANK7   BANK8   BANK9  BANK10  BANK1
      +1  BANK12
  9516 ;;      Params:         0       0       0       0       0       0       0       0       0       0       0       0       
      +0       0
  9517 ;;      Locals:         1       0       0       0       0       0       0       0       0       0       0       0       
      +0       0
  9518 ;;      Temps:          4       0       0       0       0       0       0       0       0       0       0       0       
      +0       0
  9519 ;;      Totals:         5       0       0       0       0       0       0       0       0       0       0       0       
      +0       0
  9520 ;;Total ram usage:        5 bytes
  9521 ;; Hardware stack levels used: 1
  9522 ;; Hardware stack levels required when called: 1
  9523 ;; This function calls:
  9524 ;;		_stall_ep_out
  9525 ;;		i1___wmul
  9526 ;; This function is called by:
  9527 ;;		_handle_standard_control_request
  9528 ;; This function uses a non-reentrant model
  9529 ;;
  9530                           
  9531     1304                     _usb_halt_ep_out:	
  9532                           ;psect for function _usb_halt_ep_out
  9533                           
  9534                           
  9535                           ;incstack = 0
  9536                           ; Regs used in _usb_halt_ep_out: [wreg+fsr1l+fsr1h+status,2+status,0+pclath+cstack]
  9537                           ;usb_halt_ep_out@ep stored from wreg
  9538     1304  00FA               	movwf	usb_halt_ep_out@ep
  9539                           
  9540                           ;../m-stack/usb/src/usb.c: 1661: uint8_t usb_halt_ep_out(uint8_t ep);../m-stack/usb/src/
      +                          usb.c: 1662: {;../m-stack/usb/src/usb.c: 1663:  if (ep == 0 || ep > 4)
  9541     1305  087A               	movf	usb_halt_ep_out@ep,w
  9542     1306  1903               	btfsc	3,2
  9543     1307  0008               	return
  9544     1308  3005               	movlw	5
  9545     1309  027A               	subwf	usb_halt_ep_out@ep,w
  9546     130A  1803               	btfsc	3,0
  9547     130B  0008               	return
  9548                           
  9549                           ;../m-stack/usb/src/usb.c: 1666:  ep_buf[ep].flags |= 0x1;
  9550     130C  087A               	movf	usb_halt_ep_out@ep,w
  9551     130D  00F6               	movwf	??_usb_halt_ep_out
  9552     130E  01F7               	clrf	??_usb_halt_ep_out+1
  9553     130F  0876               	movf	??_usb_halt_ep_out,w
  9554     1310  00F0               	movwf	i1___wmul@multiplier
  9555     1311  0877               	movf	??_usb_halt_ep_out+1,w
  9556     1312  00F1               	movwf	i1___wmul@multiplier+1
  9557     1313  3007               	movlw	7
  9558     1314  00F2               	movwf	i1___wmul@multiplicand
  9559     1315  3000               	movlw	0
  9560     1316  00F3               	movwf	i1___wmul@multiplicand+1
  9561     1317  3191  21C0  3193   	fcall	i1___wmul
  9562     131A  30A6               	movlw	low (_ep_buf+6)
  9563     131B  00F8               	movwf	??_usb_halt_ep_out+2
  9564     131C  3003               	movlw	high (_ep_buf+6)
  9565     131D  00F9               	movwf	??_usb_halt_ep_out+3
  9566     131E  0870               	movf	?i1___wmul,w
  9567     131F  0778               	addwf	??_usb_halt_ep_out+2,w
  9568     1320  0086               	movwf	6
  9569     1321  0871               	movf	?i1___wmul+1,w
  9570     1322  3D79               	addwfc	??_usb_halt_ep_out+3,w
  9571     1323  0087               	movwf	7
  9572     1324  1401               	bsf	1,0
  9573                           
  9574                           ;../m-stack/usb/src/usb.c: 1667:  stall_ep_out(ep);
  9575     1325  087A               	movf	usb_halt_ep_out@ep,w
  9576     1326  3191  21F6         	fcall	_stall_ep_out
  9577     1328  0008               	return
  9578     1329                     __end_of_usb_halt_ep_out:
  9579                           
  9580                           	psect	text39
  9581     11F6                     __ptext39:	
  9582 ;; *************** function _stall_ep_out *****************
  9583 ;; Defined at:
  9584 ;;		line 742 in file "../m-stack/usb/src/usb.c"
  9585 ;; Parameters:    Size  Location     Type
  9586 ;;  ep              1    wreg     unsigned char 
  9587 ;; Auto vars:     Size  Location     Type
  9588 ;;  ep              1    1[COMMON] unsigned char 
  9589 ;; Return value:  Size  Location     Type
  9590 ;;                  1    wreg      void 
  9591 ;; Registers used:
  9592 ;;		wreg, fsr1l, fsr1h, status,2, status,0
  9593 ;; Tracked objects:
  9594 ;;		On entry : 18/0
  9595 ;;		On exit  : 18/0
  9596 ;;		Unchanged: 18/0
  9597 ;; Data sizes:     COMMON   BANK0   BANK1   BANK2   BANK3   BANK4   BANK5   BANK6   BANK7   BANK8   BANK9  BANK10  BANK1
      +1  BANK12
  9598 ;;      Params:         0       0       0       0       0       0       0       0       0       0       0       0       
      +0       0
  9599 ;;      Locals:         1       0       0       0       0       0       0       0       0       0       0       0       
      +0       0
  9600 ;;      Temps:          1       0       0       0       0       0       0       0       0       0       0       0       
      +0       0
  9601 ;;      Totals:         2       0       0       0       0       0       0       0       0       0       0       0       
      +0       0
  9602 ;;Total ram usage:        2 bytes
  9603 ;; Hardware stack levels used: 1
  9604 ;; This function calls:
  9605 ;;		Nothing
  9606 ;; This function is called by:
  9607 ;;		_usb_service
  9608 ;;		_usb_halt_ep_out
  9609 ;; This function uses a non-reentrant model
  9610 ;;
  9611                           
  9612     11F6                     _stall_ep_out:	
  9613                           ;psect for function _stall_ep_out
  9614                           
  9615                           
  9616                           ;incstack = 0
  9617                           ; Regs used in _stall_ep_out: [wreg+fsr1l+fsr1h+status,2+status,0]
  9618                           ;stall_ep_out@ep stored from wreg
  9619     11F6  00F1               	movwf	stall_ep_out@ep
  9620                           
  9621                           ;../m-stack/usb/src/usb.c: 742: static void stall_ep_out(uint8_t ep);../m-stack/usb/src/
      +                          usb.c: 743: {;../m-stack/usb/src/usb.c: 747:  do { (bds[(ep) * 2]).BDnCNT = (0); (bds[(e
      +                          p) * 2]).STAT.BDnSTAT = (0x80|0x04); } while(0);
  9622     11F7  0871               	movf	stall_ep_out@ep,w
  9623     11F8  00F0               	movwf	??_stall_ep_out
  9624     11F9  3002               	movlw	2
  9625     11FA                     u302_25:
  9626     11FA  35F0               	lslf	??_stall_ep_out,f
  9627     11FB  3EFF               	addlw	-1
  9628     11FC  1D03               	skipz
  9629     11FD  29FA               	goto	u302_25
  9630     11FE  3570               	lslf	??_stall_ep_out,w
  9631     11FF  3E21               	addlw	33
  9632     1200  0086               	movwf	6
  9633     1201  0187               	clrf	7
  9634     1202  0181               	clrf	1
  9635     1203  0871               	movf	stall_ep_out@ep,w
  9636     1204  00F0               	movwf	??_stall_ep_out
  9637     1205  3002               	movlw	2
  9638     1206                     u303_25:
  9639     1206  35F0               	lslf	??_stall_ep_out,f
  9640     1207  3EFF               	addlw	-1
  9641     1208  1D03               	skipz
  9642     1209  2A06               	goto	u303_25
  9643     120A  3570               	lslf	??_stall_ep_out,w
  9644     120B  3E20               	addlw	32
  9645     120C  0086               	movwf	6
  9646     120D  0187               	clrf	7
  9647     120E  3084               	movlw	132
  9648     120F  0081               	movwf	1
  9649     1210  0008               	return
  9650     1211                     __end_of_stall_ep_out:
  9651                           
  9652                           	psect	text40
  9653     1375                     __ptext40:	
  9654 ;; *************** function _usb_halt_ep_in *****************
  9655 ;; Defined at:
  9656 ;;		line 1583 in file "../m-stack/usb/src/usb.c"
  9657 ;; Parameters:    Size  Location     Type
  9658 ;;  ep              1    wreg     unsigned char 
  9659 ;; Auto vars:     Size  Location     Type
  9660 ;;  ep              1   12[COMMON] unsigned char 
  9661 ;; Return value:  Size  Location     Type
  9662 ;;                  1    wreg      unsigned char 
  9663 ;; Registers used:
  9664 ;;		wreg, fsr0l, fsr0h, fsr1l, fsr1h, status,2, status,0, pclath, cstack
  9665 ;; Tracked objects:
  9666 ;;		On entry : 1F/1
  9667 ;;		On exit  : 18/0
  9668 ;;		Unchanged: 0/0
  9669 ;; Data sizes:     COMMON   BANK0   BANK1   BANK2   BANK3   BANK4   BANK5   BANK6   BANK7   BANK8   BANK9  BANK10  BANK1
      +1  BANK12
  9670 ;;      Params:         0       0       0       0       0       0       0       0       0       0       0       0       
      +0       0
  9671 ;;      Locals:         1       0       0       0       0       0       0       0       0       0       0       0       
      +0       0
  9672 ;;      Temps:          0       4       0       0       0       0       0       0       0       0       0       0       
      +0       0
  9673 ;;      Totals:         1       4       0       0       0       0       0       0       0       0       0       0       
      +0       0
  9674 ;;Total ram usage:        5 bytes
  9675 ;; Hardware stack levels used: 1
  9676 ;; Hardware stack levels required when called: 2
  9677 ;; This function calls:
  9678 ;;		_stall_ep_in
  9679 ;;		i1___wmul
  9680 ;; This function is called by:
  9681 ;;		_handle_standard_control_request
  9682 ;; This function uses a non-reentrant model
  9683 ;;
  9684                           
  9685     1375                     _usb_halt_ep_in:	
  9686                           ;psect for function _usb_halt_ep_in
  9687                           
  9688                           
  9689                           ;incstack = 0
  9690                           ; Regs used in _usb_halt_ep_in: [wreg-fsr1h+status,2+status,0+pclath+cstack]
  9691                           ;usb_halt_ep_in@ep stored from wreg
  9692     1375  00FC               	movwf	usb_halt_ep_in@ep
  9693                           
  9694                           ;../m-stack/usb/src/usb.c: 1583: uint8_t usb_halt_ep_in(uint8_t ep);../m-stack/usb/src/u
      +                          sb.c: 1584: {;../m-stack/usb/src/usb.c: 1585:  if (ep == 0 || ep > 4)
  9695     1376  087C               	movf	usb_halt_ep_in@ep,w
  9696     1377  1903               	btfsc	3,2
  9697     1378  0008               	return
  9698     1379  3005               	movlw	5
  9699     137A  027C               	subwf	usb_halt_ep_in@ep,w
  9700     137B  1803               	btfsc	3,0
  9701     137C  0008               	return
  9702                           
  9703                           ;../m-stack/usb/src/usb.c: 1588:  ep_buf[ep].flags |= 0x2;
  9704     137D  087C               	movf	usb_halt_ep_in@ep,w
  9705     137E  0020               	movlb	0	; select bank0
  9706     137F  00C8               	movwf	??_usb_halt_ep_in
  9707     1380  01C9               	clrf	??_usb_halt_ep_in+1
  9708     1381  0848               	movf	??_usb_halt_ep_in,w
  9709     1382  00F0               	movwf	i1___wmul@multiplier
  9710     1383  0849               	movf	??_usb_halt_ep_in+1,w
  9711     1384  00F1               	movwf	i1___wmul@multiplier+1
  9712     1385  3007               	movlw	7
  9713     1386  00F2               	movwf	i1___wmul@multiplicand
  9714     1387  3000               	movlw	0
  9715     1388  00F3               	movwf	i1___wmul@multiplicand+1
  9716     1389  3191  21C0  3193   	fcall	i1___wmul
  9717     138C  30A6               	movlw	low (_ep_buf+6)
  9718     138D  0020               	movlb	0	; select bank0
  9719     138E  00CA               	movwf	??_usb_halt_ep_in+2
  9720     138F  3003               	movlw	high (_ep_buf+6)
  9721     1390  00CB               	movwf	??_usb_halt_ep_in+3
  9722     1391  0870               	movf	?i1___wmul,w
  9723     1392  074A               	addwf	??_usb_halt_ep_in+2,w
  9724     1393  0086               	movwf	6
  9725     1394  0871               	movf	?i1___wmul+1,w
  9726     1395  3D4B               	addwfc	??_usb_halt_ep_in+3,w
  9727     1396  0087               	movwf	7
  9728     1397  1481               	bsf	1,1
  9729                           
  9730                           ;../m-stack/usb/src/usb.c: 1589:  stall_ep_in(ep);
  9731     1398  087C               	movf	usb_halt_ep_in@ep,w
  9732     1399  3194  2417         	fcall	_stall_ep_in
  9733     139B  0008               	return
  9734     139C                     __end_of_usb_halt_ep_in:
  9735                           
  9736                           	psect	text41
  9737     1417                     __ptext41:	
  9738 ;; *************** function _stall_ep_in *****************
  9739 ;; Defined at:
  9740 ;;		line 731 in file "../m-stack/usb/src/usb.c"
  9741 ;; Parameters:    Size  Location     Type
  9742 ;;  ep              1    wreg     unsigned char 
  9743 ;; Auto vars:     Size  Location     Type
  9744 ;;  ep              1   11[COMMON] unsigned char 
  9745 ;; Return value:  Size  Location     Type
  9746 ;;                  1    wreg      void 
  9747 ;; Registers used:
  9748 ;;		wreg, fsr0l, fsr0h, fsr1l, fsr1h, status,2, status,0, pclath, cstack
  9749 ;; Tracked objects:
  9750 ;;		On entry : 1F/0
  9751 ;;		On exit  : 18/0
  9752 ;;		Unchanged: 18/0
  9753 ;; Data sizes:     COMMON   BANK0   BANK1   BANK2   BANK3   BANK4   BANK5   BANK6   BANK7   BANK8   BANK9  BANK10  BANK1
      +1  BANK12
  9754 ;;      Params:         0       0       0       0       0       0       0       0       0       0       0       0       
      +0       0
  9755 ;;      Locals:         1       0       0       0       0       0       0       0       0       0       0       0       
      +0       0
  9756 ;;      Temps:          5       0       0       0       0       0       0       0       0       0       0       0       
      +0       0
  9757 ;;      Totals:         6       0       0       0       0       0       0       0       0       0       0       0       
      +0       0
  9758 ;;Total ram usage:        6 bytes
  9759 ;; Hardware stack levels used: 1
  9760 ;; Hardware stack levels required when called: 1
  9761 ;; This function calls:
  9762 ;;		i1___wmul
  9763 ;; This function is called by:
  9764 ;;		_usb_service
  9765 ;;		_usb_halt_ep_in
  9766 ;; This function uses a non-reentrant model
  9767 ;;
  9768                           
  9769     1417                     _stall_ep_in:	
  9770                           ;psect for function _stall_ep_in
  9771                           
  9772                           
  9773                           ;incstack = 0
  9774                           ; Regs used in _stall_ep_in: [wreg-fsr1h+status,2+status,0+pclath+cstack]
  9775                           ;stall_ep_in@ep stored from wreg
  9776     1417  00FB               	movwf	stall_ep_in@ep
  9777                           
  9778                           ;../m-stack/usb/src/usb.c: 731: static void stall_ep_in(uint8_t ep);../m-stack/usb/src/u
      +                          sb.c: 732: {;../m-stack/usb/src/usb.c: 736:  do { (bds[(ep) * 2 + 1]).BDnCNT = (ep_buf[e
      +                          p].in_len); (bds[(ep) * 2 + 1]).STAT.BDnSTAT = (0x80|0x04); } while(0);
  9779     1418  087B               	movf	stall_ep_in@ep,w
  9780     1419  00F6               	movwf	??_stall_ep_in
  9781     141A  3002               	movlw	2
  9782     141B                     u300_25:
  9783     141B  35F6               	lslf	??_stall_ep_in,f
  9784     141C  3EFF               	addlw	-1
  9785     141D  1D03               	skipz
  9786     141E  2C1B               	goto	u300_25
  9787     141F  3576               	lslf	??_stall_ep_in,w
  9788     1420  3E25               	addlw	37
  9789     1421  0086               	movwf	6
  9790     1422  0187               	clrf	7
  9791     1423  087B               	movf	stall_ep_in@ep,w
  9792     1424  00F7               	movwf	??_stall_ep_in+1
  9793     1425  01F8               	clrf	??_stall_ep_in+2
  9794     1426  0877               	movf	??_stall_ep_in+1,w
  9795     1427  00F0               	movwf	i1___wmul@multiplier
  9796     1428  0878               	movf	??_stall_ep_in+2,w
  9797     1429  00F1               	movwf	i1___wmul@multiplier+1
  9798     142A  3007               	movlw	7
  9799     142B  00F2               	movwf	i1___wmul@multiplicand
  9800     142C  3000               	movlw	0
  9801     142D  00F3               	movwf	i1___wmul@multiplicand+1
  9802     142E  3191  21C0  3194   	fcall	i1___wmul
  9803     1431  30A5               	movlw	low (_ep_buf+5)
  9804     1432  00F9               	movwf	??_stall_ep_in+3
  9805     1433  3003               	movlw	high (_ep_buf+5)
  9806     1434  00FA               	movwf	??_stall_ep_in+4
  9807     1435  0870               	movf	?i1___wmul,w
  9808     1436  0779               	addwf	??_stall_ep_in+3,w
  9809     1437  0084               	movwf	4
  9810     1438  0871               	movf	?i1___wmul+1,w
  9811     1439  3D7A               	addwfc	??_stall_ep_in+4,w
  9812     143A  0085               	movwf	5
  9813     143B  0800               	movf	0,w
  9814     143C  0081               	movwf	1
  9815     143D  087B               	movf	stall_ep_in@ep,w
  9816     143E  00F6               	movwf	??_stall_ep_in
  9817     143F  3002               	movlw	2
  9818     1440                     u301_25:
  9819     1440  35F6               	lslf	??_stall_ep_in,f
  9820     1441  3EFF               	addlw	-1
  9821     1442  1D03               	skipz
  9822     1443  2C40               	goto	u301_25
  9823     1444  3576               	lslf	??_stall_ep_in,w
  9824     1445  3E24               	addlw	36
  9825     1446  0086               	movwf	6
  9826     1447  0187               	clrf	7
  9827     1448  3084               	movlw	132
  9828     1449  0081               	movwf	1
  9829     144A  0008               	return
  9830     144B                     __end_of_stall_ep_in:
  9831                           
  9832                           	psect	text42
  9833     165C                     __ptext42:	
  9834 ;; *************** function _usb_application_get_string *****************
  9835 ;; Defined at:
  9836 ;;		line 405 in file "../usb_descriptors.c"
  9837 ;; Parameters:    Size  Location     Type
  9838 ;;  string_numbe    1    wreg     unsigned char 
  9839 ;;  ptr             1    0[COMMON] PTR PTR const void 
  9840 ;;		 -> handle_standard_control_request@desc_602(2), 
  9841 ;; Auto vars:     Size  Location     Type
  9842 ;;  string_numbe    1    2[COMMON] unsigned char 
  9843 ;; Return value:  Size  Location     Type
  9844 ;;                  2    0[COMMON] short 
  9845 ;; Registers used:
  9846 ;;		wreg, fsr1l, fsr1h, status,2, status,0
  9847 ;; Tracked objects:
  9848 ;;		On entry : 1F/1
  9849 ;;		On exit  : 1F/1
  9850 ;;		Unchanged: 1F/0
  9851 ;; Data sizes:     COMMON   BANK0   BANK1   BANK2   BANK3   BANK4   BANK5   BANK6   BANK7   BANK8   BANK9  BANK10  BANK1
      +1  BANK12
  9852 ;;      Params:         2       0       0       0       0       0       0       0       0       0       0       0       
      +0       0
  9853 ;;      Locals:         1       0       0       0       0       0       0       0       0       0       0       0       
      +0       0
  9854 ;;      Temps:          0       0       0       0       0       0       0       0       0       0       0       0       
      +0       0
  9855 ;;      Totals:         3       0       0       0       0       0       0       0       0       0       0       0       
      +0       0
  9856 ;;Total ram usage:        3 bytes
  9857 ;; Hardware stack levels used: 1
  9858 ;; This function calls:
  9859 ;;		Nothing
  9860 ;; This function is called by:
  9861 ;;		_handle_standard_control_request
  9862 ;; This function uses a non-reentrant model
  9863 ;;
  9864                           
  9865     165C                     _usb_application_get_string:	
  9866                           ;psect for function _usb_application_get_string
  9867                           
  9868                           
  9869                           ;incstack = 0
  9870                           ; Regs used in _usb_application_get_string: [wreg+fsr1l+fsr1h+status,2+status,0]
  9871                           ;usb_application_get_string@string_number stored from wreg
  9872     165C  00F2               	movwf	usb_application_get_string@string_number
  9873                           
  9874                           ;../usb_descriptors.c: 405: int16_t usb_application_get_string(uint8_t string_number, co
      +                          nst void **ptr);../usb_descriptors.c: 406: {;../usb_descriptors.c: 407:     if (string_n
      +                          umber == 0) {
  9875     165D  0872               	movf	usb_application_get_string@string_number,w
  9876     165E  1D03               	btfss	3,2
  9877     165F  2E6C               	goto	i1l3609
  9878                           
  9879                           ;../usb_descriptors.c: 408:         *ptr = &str00;
  9880     1660  0870               	movf	usb_application_get_string@ptr,w
  9881     1661  0086               	movwf	6
  9882     1662  0187               	clrf	7
  9883     1663  3011               	movlw	low (_str00| (0+32768))
  9884     1664  3FC0               	movwi [0]fsr1
  9885     1665  3099               	movlw	high (_str00| (0+32768))
  9886     1666  3FC1               	movwi [1]fsr1
  9887                           
  9888                           ;../usb_descriptors.c: 409:         return sizeof(str00);
  9889     1667  3004               	movlw	4
  9890     1668  00F0               	movwf	?_usb_application_get_string
  9891     1669  3000               	movlw	0
  9892     166A  00F1               	movwf	?_usb_application_get_string+1
  9893     166B  0008               	return
  9894     166C                     i1l3609:
  9895     166C  0372               	decf	usb_application_get_string@string_number,w
  9896     166D  1D03               	btfss	3,2
  9897     166E  2E7B               	goto	i1l3619
  9898                           
  9899                           ;../usb_descriptors.c: 412:         *ptr = &vendor_string;
  9900     166F  0870               	movf	usb_application_get_string@ptr,w
  9901     1670  0086               	movwf	6
  9902     1671  0187               	clrf	7
  9903     1672  3026               	movlw	low (_vendor_string| (0+32768))
  9904     1673  3FC0               	movwi [0]fsr1
  9905     1674  3099               	movlw	high (_vendor_string| (0+32768))
  9906     1675  3FC1               	movwi [1]fsr1
  9907                           
  9908                           ;../usb_descriptors.c: 413:         return sizeof(vendor_string);
  9909     1676  3014               	movlw	20
  9910     1677  00F0               	movwf	?_usb_application_get_string
  9911     1678  3000               	movlw	0
  9912     1679  00F1               	movwf	?_usb_application_get_string+1
  9913     167A  0008               	return
  9914     167B                     i1l3619:
  9915     167B  3002               	movlw	2
  9916     167C  0672               	xorwf	usb_application_get_string@string_number,w
  9917     167D  1D03               	btfss	3,2
  9918     167E  2E8B               	goto	i1l3629
  9919                           
  9920                           ;../usb_descriptors.c: 416:         *ptr = &product_string;
  9921     167F  0870               	movf	usb_application_get_string@ptr,w
  9922     1680  0086               	movwf	6
  9923     1681  0187               	clrf	7
  9924     1682  30E3               	movlw	low (_product_string| (0+32768))
  9925     1683  3FC0               	movwi [0]fsr1
  9926     1684  3098               	movlw	high (_product_string| (0+32768))
  9927     1685  3FC1               	movwi [1]fsr1
  9928                           
  9929                           ;../usb_descriptors.c: 417:         return sizeof(product_string);
  9930     1686  3018               	movlw	24
  9931     1687  00F0               	movwf	?_usb_application_get_string
  9932     1688  3000               	movlw	0
  9933     1689  00F1               	movwf	?_usb_application_get_string+1
  9934     168A  0008               	return
  9935     168B                     i1l3629:
  9936     168B  3003               	movlw	3
  9937     168C  0672               	xorwf	usb_application_get_string@string_number,w
  9938     168D  1D03               	btfss	3,2
  9939     168E  2E9B               	goto	i1l3639
  9940                           
  9941                           ;../usb_descriptors.c: 420:         *ptr = &cdc_interface_string;
  9942     168F  0870               	movf	usb_application_get_string@ptr,w
  9943     1690  0086               	movwf	6
  9944     1691  0187               	clrf	7
  9945     1692  30C7               	movlw	low (_cdc_interface_string| (0+32768))
  9946     1693  3FC0               	movwi [0]fsr1
  9947     1694  3098               	movlw	high (_cdc_interface_string| (0+32768))
  9948     1695  3FC1               	movwi [1]fsr1
  9949                           
  9950                           ;../usb_descriptors.c: 421:         return sizeof(cdc_interface_string);
  9951     1696  301C               	movlw	28
  9952     1697  00F0               	movwf	?_usb_application_get_string
  9953     1698  3000               	movlw	0
  9954     1699  00F1               	movwf	?_usb_application_get_string+1
  9955     169A  0008               	return
  9956     169B                     i1l3639:
  9957     169B  3004               	movlw	4
  9958     169C  0672               	xorwf	usb_application_get_string@string_number,w
  9959     169D  1D03               	btfss	3,2
  9960     169E  2EAB               	goto	i1l3649
  9961                           
  9962                           ;../usb_descriptors.c: 424:         *ptr = &cdc_data_string;
  9963     169F  0870               	movf	usb_application_get_string@ptr,w
  9964     16A0  0086               	movwf	6
  9965     16A1  0187               	clrf	7
  9966     16A2  3083               	movlw	low (_cdc_data_string| (0+32768))
  9967     16A3  3FC0               	movwi [0]fsr1
  9968     16A4  3098               	movlw	high (_cdc_data_string| (0+32768))
  9969     16A5  3FC1               	movwi [1]fsr1
  9970                           
  9971                           ;../usb_descriptors.c: 425:         return sizeof(cdc_data_string);
  9972     16A6  3026               	movlw	38
  9973     16A7  00F0               	movwf	?_usb_application_get_string
  9974     16A8  3000               	movlw	0
  9975     16A9  00F1               	movwf	?_usb_application_get_string+1
  9976     16AA  0008               	return
  9977     16AB                     i1l3649:
  9978     16AB  3005               	movlw	5
  9979     16AC  0672               	xorwf	usb_application_get_string@string_number,w
  9980     16AD  1D03               	btfss	3,2
  9981     16AE  2EBB               	goto	i1l3659
  9982                           
  9983                           ;../usb_descriptors.c: 428:         *ptr = &serial_num_string;
  9984     16AF  0870               	movf	usb_application_get_string@ptr,w
  9985     16B0  0086               	movwf	6
  9986     16B1  0187               	clrf	7
  9987     16B2  30FB               	movlw	low (_serial_num_string| (0+32768))
  9988     16B3  3FC0               	movwi [0]fsr1
  9989     16B4  3098               	movlw	high (_serial_num_string| (0+32768))
  9990     16B5  3FC1               	movwi [1]fsr1
  9991                           
  9992                           ;../usb_descriptors.c: 429:         return sizeof(serial_num_string);
  9993     16B6  3016               	movlw	22
  9994     16B7  00F0               	movwf	?_usb_application_get_string
  9995     16B8  3000               	movlw	0
  9996     16B9  00F1               	movwf	?_usb_application_get_string+1
  9997     16BA  0008               	return
  9998     16BB                     i1l3659:
  9999     16BB  3006               	movlw	6
 10000     16BC  0672               	xorwf	usb_application_get_string@string_number,w
 10001     16BD  1D03               	btfss	3,2
 10002     16BE  2ECB               	goto	i1l3669
 10003                           
 10004                           ;../usb_descriptors.c: 432:         *ptr = &func_prog_string;
 10005     16BF  0870               	movf	usb_application_get_string@ptr,w
 10006     16C0  0086               	movwf	6
 10007     16C1  0187               	clrf	7
 10008     16C2  30A9               	movlw	low (_func_prog_string| (0+32768))
 10009     16C3  3FC0               	movwi [0]fsr1
 10010     16C4  3098               	movlw	high (_func_prog_string| (0+32768))
 10011     16C5  3FC1               	movwi [1]fsr1
 10012                           
 10013                           ;../usb_descriptors.c: 433:         return sizeof(func_prog_string);
 10014     16C6  301E               	movlw	30
 10015     16C7  00F0               	movwf	?_usb_application_get_string
 10016     16C8  3000               	movlw	0
 10017     16C9  00F1               	movwf	?_usb_application_get_string+1
 10018     16CA  0008               	return
 10019     16CB                     i1l3669:
 10020     16CB  3007               	movlw	7
 10021     16CC  0672               	xorwf	usb_application_get_string@string_number,w
 10022     16CD  1D03               	btfss	3,2
 10023     16CE  2EDB               	goto	i1l3677
 10024                           
 10025                           ;../usb_descriptors.c: 436:         *ptr = &func_serial_string;
 10026     16CF  0870               	movf	usb_application_get_string@ptr,w
 10027     16D0  0086               	movwf	6
 10028     16D1  0187               	clrf	7
 10029     16D2  304C               	movlw	low (_func_serial_string| (0+32768))
 10030     16D3  3FC0               	movwi [0]fsr1
 10031     16D4  3099               	movlw	high (_func_serial_string| (0+32768))
 10032     16D5  3FC1               	movwi [1]fsr1
 10033                           
 10034                           ;../usb_descriptors.c: 437:         return sizeof(func_serial_string);
 10035     16D6  300E               	movlw	14
 10036     16D7  00F0               	movwf	?_usb_application_get_string
 10037     16D8  3000               	movlw	0
 10038     16D9  00F1               	movwf	?_usb_application_get_string+1
 10039     16DA  0008               	return
 10040     16DB                     i1l3677:
 10041                           
 10042                           ;../usb_descriptors.c: 440:     return -1;
 10043     16DB  30FF               	movlw	255
 10044     16DC  00F0               	movwf	?_usb_application_get_string
 10045     16DD  30FF               	movlw	255
 10046     16DE  00F1               	movwf	?_usb_application_get_string+1
 10047     16DF  0008               	return
 10048     16E0                     __end_of_usb_application_get_string:
 10049                           
 10050                           	psect	text43
 10051     106F                     __ptext43:	
 10052 ;; *************** function _app_unknown_get_descriptor_callback *****************
 10053 ;; Defined at:
 10054 ;;		line 292 in file "../main.c"
 10055 ;; Parameters:    Size  Location     Type
 10056 ;;  pkt             2    0[COMMON] PTR const struct setup_p
 10057 ;;		 -> ep_buffers(294), 
 10058 ;;  descriptor      1    2[COMMON] PTR PTR const void 
 10059 ;;		 -> handle_standard_control_request@desc_605(2), 
 10060 ;; Auto vars:     Size  Location     Type
 10061 ;;		None
 10062 ;; Return value:  Size  Location     Type
 10063 ;;                  2    0[COMMON] short 
 10064 ;; Registers used:
 10065 ;;		wreg
 10066 ;; Tracked objects:
 10067 ;;		On entry : 1F/1
 10068 ;;		On exit  : 1F/1
 10069 ;;		Unchanged: 1F/0
 10070 ;; Data sizes:     COMMON   BANK0   BANK1   BANK2   BANK3   BANK4   BANK5   BANK6   BANK7   BANK8   BANK9  BANK10  BANK1
      +1  BANK12
 10071 ;;      Params:         3       0       0       0       0       0       0       0       0       0       0       0       
      +0       0
 10072 ;;      Locals:         0       0       0       0       0       0       0       0       0       0       0       0       
      +0       0
 10073 ;;      Temps:          0       0       0       0       0       0       0       0       0       0       0       0       
      +0       0
 10074 ;;      Totals:         3       0       0       0       0       0       0       0       0       0       0       0       
      +0       0
 10075 ;;Total ram usage:        3 bytes
 10076 ;; Hardware stack levels used: 1
 10077 ;; This function calls:
 10078 ;;		Nothing
 10079 ;; This function is called by:
 10080 ;;		_handle_standard_control_request
 10081 ;; This function uses a non-reentrant model
 10082 ;;
 10083                           
 10084     106F                     _app_unknown_get_descriptor_callback:	
 10085                           ;psect for function _app_unknown_get_descriptor_callback
 10086                           
 10087                           
 10088                           ;../main.c: 292: int16_t app_unknown_get_descriptor_callback(const struct setup_packet *
      +                          pkt, const void **descriptor);../main.c: 293: {;../main.c: 294:     return -1;
 10089                           
 10090                           ;incstack = 0
 10091                           ; Regs used in _app_unknown_get_descriptor_callback: [wreg]
 10092     106F  30FF               	movlw	255
 10093     1070  00F0               	movwf	?_app_unknown_get_descriptor_callback
 10094     1071  30FF               	movlw	255
 10095     1072  00F1               	movwf	?_app_unknown_get_descriptor_callback+1
 10096     1073  0008               	return
 10097     1074                     __end_of_app_unknown_get_descriptor_callback:
 10098                           
 10099                           	psect	text44
 10100     0002                     __ptext44:	
 10101 ;; *************** function _app_set_interface_callback *****************
 10102 ;; Defined at:
 10103 ;;		line 259 in file "../main.c"
 10104 ;; Parameters:    Size  Location     Type
 10105 ;;  interface       1    wreg     unsigned char 
 10106 ;;  alt_setting     1    0[COMMON] unsigned char 
 10107 ;; Auto vars:     Size  Location     Type
 10108 ;;  interface       1    0[COMMON] unsigned char 
 10109 ;; Return value:  Size  Location     Type
 10110 ;;                  1    wreg      char 
 10111 ;; Registers used:
 10112 ;;		wreg
 10113 ;; Tracked objects:
 10114 ;;		On entry : 1F/1
 10115 ;;		On exit  : 1F/1
 10116 ;;		Unchanged: 1F/0
 10117 ;; Data sizes:     COMMON   BANK0   BANK1   BANK2   BANK3   BANK4   BANK5   BANK6   BANK7   BANK8   BANK9  BANK10  BANK1
      +1  BANK12
 10118 ;;      Params:         1       0       0       0       0       0       0       0       0       0       0       0       
      +0       0
 10119 ;;      Locals:         0       0       0       0       0       0       0       0       0       0       0       0       
      +0       0
 10120 ;;      Temps:          0       0       0       0       0       0       0       0       0       0       0       0       
      +0       0
 10121 ;;      Totals:         1       0       0       0       0       0       0       0       0       0       0       0       
      +0       0
 10122 ;;Total ram usage:        1 bytes
 10123 ;; Hardware stack levels used: 1
 10124 ;; This function calls:
 10125 ;;		Nothing
 10126 ;; This function is called by:
 10127 ;;		_handle_standard_control_request
 10128 ;; This function uses a non-reentrant model
 10129 ;;
 10130                           
 10131     0002                     _app_set_interface_callback:	
 10132                           ;psect for function _app_set_interface_callback
 10133                           
 10134                           
 10135                           ;../main.c: 259: int8_t app_set_interface_callback(uint8_t interface, uint8_t alt_settin
      +                          g);../main.c: 260: {;../main.c: 261:     return 0;
 10136                           
 10137                           ;incstack = 0
 10138                           ; Regs used in _app_set_interface_callback: [wreg]
 10139     0002  3000               	movlw	0
 10140     0003  0008               	return
 10141     0004                     __end_of_app_set_interface_callback:
 10142                           
 10143                           	psect	text45
 10144     07FF                     __ptext45:	
 10145 ;; *************** function _app_set_configuration_callback *****************
 10146 ;; Defined at:
 10147 ;;		line 244 in file "../main.c"
 10148 ;; Parameters:    Size  Location     Type
 10149 ;;  configuratio    1    wreg     unsigned char 
 10150 ;; Auto vars:     Size  Location     Type
 10151 ;;  configuratio    1    0[COMMON] unsigned char 
 10152 ;; Return value:  Size  Location     Type
 10153 ;;                  1    wreg      void 
 10154 ;; Registers used:
 10155 ;;		wreg
 10156 ;; Tracked objects:
 10157 ;;		On entry : 1F/1
 10158 ;;		On exit  : 1F/1
 10159 ;;		Unchanged: 1F/0
 10160 ;; Data sizes:     COMMON   BANK0   BANK1   BANK2   BANK3   BANK4   BANK5   BANK6   BANK7   BANK8   BANK9  BANK10  BANK1
      +1  BANK12
 10161 ;;      Params:         0       0       0       0       0       0       0       0       0       0       0       0       
      +0       0
 10162 ;;      Locals:         0       0       0       0       0       0       0       0       0       0       0       0       
      +0       0
 10163 ;;      Temps:          0       0       0       0       0       0       0       0       0       0       0       0       
      +0       0
 10164 ;;      Totals:         0       0       0       0       0       0       0       0       0       0       0       0       
      +0       0
 10165 ;;Total ram usage:        0 bytes
 10166 ;; Hardware stack levels used: 1
 10167 ;; This function calls:
 10168 ;;		Nothing
 10169 ;; This function is called by:
 10170 ;;		_handle_standard_control_request
 10171 ;; This function uses a non-reentrant model
 10172 ;;
 10173                           
 10174     07FF                     _app_set_configuration_callback:	
 10175                           ;psect for function _app_set_configuration_callback
 10176                           
 10177                           
 10178                           ;incstack = 0
 10179                           ; Regs used in _app_set_configuration_callback: [wreg]
 10180     07FF  0008               	return
 10181     0800                     __end_of_app_set_configuration_callback:
 10182                           
 10183                           	psect	text46
 10184     1060                     __ptext46:	
 10185 ;; *************** function _app_get_interface_callback *****************
 10186 ;; Defined at:
 10187 ;;		line 264 in file "../main.c"
 10188 ;; Parameters:    Size  Location     Type
 10189 ;;  interface       1    wreg     unsigned char 
 10190 ;; Auto vars:     Size  Location     Type
 10191 ;;  interface       1    0[COMMON] unsigned char 
 10192 ;; Return value:  Size  Location     Type
 10193 ;;                  1    wreg      char 
 10194 ;; Registers used:
 10195 ;;		wreg
 10196 ;; Tracked objects:
 10197 ;;		On entry : 1F/1
 10198 ;;		On exit  : 1F/1
 10199 ;;		Unchanged: 1F/0
 10200 ;; Data sizes:     COMMON   BANK0   BANK1   BANK2   BANK3   BANK4   BANK5   BANK6   BANK7   BANK8   BANK9  BANK10  BANK1
      +1  BANK12
 10201 ;;      Params:         0       0       0       0       0       0       0       0       0       0       0       0       
      +0       0
 10202 ;;      Locals:         0       0       0       0       0       0       0       0       0       0       0       0       
      +0       0
 10203 ;;      Temps:          0       0       0       0       0       0       0       0       0       0       0       0       
      +0       0
 10204 ;;      Totals:         0       0       0       0       0       0       0       0       0       0       0       0       
      +0       0
 10205 ;;Total ram usage:        0 bytes
 10206 ;; Hardware stack levels used: 1
 10207 ;; This function calls:
 10208 ;;		Nothing
 10209 ;; This function is called by:
 10210 ;;		_handle_standard_control_request
 10211 ;; This function uses a non-reentrant model
 10212 ;;
 10213                           
 10214     1060                     _app_get_interface_callback:	
 10215                           ;psect for function _app_get_interface_callback
 10216                           
 10217                           
 10218                           ;../main.c: 264: int8_t app_get_interface_callback(uint8_t interface);../main.c: 265: {;
      +                          ../main.c: 266:     return 0;
 10219                           
 10220                           ;incstack = 0
 10221                           ; Regs used in _app_get_interface_callback: [wreg]
 10222     1060  3000               	movlw	0
 10223     1061  0008               	return
 10224     1062                     __end_of_app_get_interface_callback:
 10225                           
 10226                           	psect	text47
 10227     1062                     __ptext47:	
 10228 ;; *************** function _app_get_device_status_callback *****************
 10229 ;; Defined at:
 10230 ;;		line 249 in file "../main.c"
 10231 ;; Parameters:    Size  Location     Type
 10232 ;;		None
 10233 ;; Auto vars:     Size  Location     Type
 10234 ;;		None
 10235 ;; Return value:  Size  Location     Type
 10236 ;;                  2    0[COMMON] unsigned short 
 10237 ;; Registers used:
 10238 ;;		status,2
 10239 ;; Tracked objects:
 10240 ;;		On entry : 1F/1
 10241 ;;		On exit  : 1F/1
 10242 ;;		Unchanged: 1F/0
 10243 ;; Data sizes:     COMMON   BANK0   BANK1   BANK2   BANK3   BANK4   BANK5   BANK6   BANK7   BANK8   BANK9  BANK10  BANK1
      +1  BANK12
 10244 ;;      Params:         2       0       0       0       0       0       0       0       0       0       0       0       
      +0       0
 10245 ;;      Locals:         0       0       0       0       0       0       0       0       0       0       0       0       
      +0       0
 10246 ;;      Temps:          0       0       0       0       0       0       0       0       0       0       0       0       
      +0       0
 10247 ;;      Totals:         2       0       0       0       0       0       0       0       0       0       0       0       
      +0       0
 10248 ;;Total ram usage:        2 bytes
 10249 ;; Hardware stack levels used: 1
 10250 ;; This function calls:
 10251 ;;		Nothing
 10252 ;; This function is called by:
 10253 ;;		_handle_standard_control_request
 10254 ;; This function uses a non-reentrant model
 10255 ;;
 10256                           
 10257     1062                     _app_get_device_status_callback:	
 10258                           ;psect for function _app_get_device_status_callback
 10259                           
 10260                           
 10261                           ;../main.c: 251:     return 0x0000;
 10262                           
 10263                           ;incstack = 0
 10264                           ; Regs used in _app_get_device_status_callback: [status,2]
 10265     1062  01F0               	clrf	?_app_get_device_status_callback
 10266     1063  01F1               	clrf	?_app_get_device_status_callback+1
 10267     1064  0008               	return
 10268     1065                     __end_of_app_get_device_status_callback:
 10269                           
 10270                           	psect	text48
 10271     1055                     __ptext48:	
 10272 ;; *************** function _app_endpoint_halt_callback *****************
 10273 ;; Defined at:
 10274 ;;		line 254 in file "../main.c"
 10275 ;; Parameters:    Size  Location     Type
 10276 ;;  endpoint        1    wreg     unsigned char 
 10277 ;;  halted          1    0[COMMON] _Bool 
 10278 ;; Auto vars:     Size  Location     Type
 10279 ;;  endpoint        1    0[COMMON] unsigned char 
 10280 ;; Return value:  Size  Location     Type
 10281 ;;                  1    wreg      void 
 10282 ;; Registers used:
 10283 ;;		wreg
 10284 ;; Tracked objects:
 10285 ;;		On entry : 1F/1
 10286 ;;		On exit  : 1F/1
 10287 ;;		Unchanged: 1F/0
 10288 ;; Data sizes:     COMMON   BANK0   BANK1   BANK2   BANK3   BANK4   BANK5   BANK6   BANK7   BANK8   BANK9  BANK10  BANK1
      +1  BANK12
 10289 ;;      Params:         1       0       0       0       0       0       0       0       0       0       0       0       
      +0       0
 10290 ;;      Locals:         0       0       0       0       0       0       0       0       0       0       0       0       
      +0       0
 10291 ;;      Temps:          0       0       0       0       0       0       0       0       0       0       0       0       
      +0       0
 10292 ;;      Totals:         1       0       0       0       0       0       0       0       0       0       0       0       
      +0       0
 10293 ;;Total ram usage:        1 bytes
 10294 ;; Hardware stack levels used: 1
 10295 ;; This function calls:
 10296 ;;		Nothing
 10297 ;; This function is called by:
 10298 ;;		_handle_standard_control_request
 10299 ;; This function uses a non-reentrant model
 10300 ;;
 10301                           
 10302     1055                     _app_endpoint_halt_callback:	
 10303                           ;psect for function _app_endpoint_halt_callback
 10304                           
 10305                           
 10306                           ;incstack = 0
 10307                           ; Regs used in _app_endpoint_halt_callback: [wreg]
 10308     1055  0008               	return
 10309     1056                     __end_of_app_endpoint_halt_callback:
 10310                           
 10311                           	psect	text49
 10312     106A                     __ptext49:	
 10313 ;; *************** function _clear_ep0_stall *****************
 10314 ;; Defined at:
 10315 ;;		line 717 in file "../m-stack/usb/src/usb.c"
 10316 ;; Parameters:    Size  Location     Type
 10317 ;;		None
 10318 ;; Auto vars:     Size  Location     Type
 10319 ;;		None
 10320 ;; Return value:  Size  Location     Type
 10321 ;;                  1    wreg      void 
 10322 ;; Registers used:
 10323 ;;		wreg, status,2
 10324 ;; Tracked objects:
 10325 ;;		On entry : 1F/1
 10326 ;;		On exit  : 1F/0
 10327 ;;		Unchanged: 0/0
 10328 ;; Data sizes:     COMMON   BANK0   BANK1   BANK2   BANK3   BANK4   BANK5   BANK6   BANK7   BANK8   BANK9  BANK10  BANK1
      +1  BANK12
 10329 ;;      Params:         0       0       0       0       0       0       0       0       0       0       0       0       
      +0       0
 10330 ;;      Locals:         0       0       0       0       0       0       0       0       0       0       0       0       
      +0       0
 10331 ;;      Temps:          0       0       0       0       0       0       0       0       0       0       0       0       
      +0       0
 10332 ;;      Totals:         0       0       0       0       0       0       0       0       0       0       0       0       
      +0       0
 10333 ;;Total ram usage:        0 bytes
 10334 ;; Hardware stack levels used: 1
 10335 ;; This function calls:
 10336 ;;		Nothing
 10337 ;; This function is called by:
 10338 ;;		_handle_ep0_setup
 10339 ;; This function uses a non-reentrant model
 10340 ;;
 10341                           
 10342     106A                     _clear_ep0_stall:	
 10343                           ;psect for function _clear_ep0_stall
 10344                           
 10345                           
 10346                           ;incstack = 0
 10347                           ; Regs used in _clear_ep0_stall: [wreg+status,2]
 10348                           ;../m-stack/usb/src/usb.c: 726:  do { (bds[1]).BDnCNT = (8); (bds[1]).STAT.BDnSTAT = (0)
      +                          ; } while(0);
 10349     106A  3008               	movlw	8
 10350     106B  0020               	movlb	0	; select bank0
 10351     106C  00A5               	movwf	37
 10352     106D  01A4               	clrf	36
 10353     106E  0008               	return
 10354     106F                     __end_of_clear_ep0_stall:
 10355                           
 10356                           	psect	text50
 10357     1090                     __ptext50:	
 10358 ;; *************** function _app_unknown_setup_request_callback *****************
 10359 ;; Defined at:
 10360 ;;		line 279 in file "../main.c"
 10361 ;; Parameters:    Size  Location     Type
 10362 ;;  setup           2   27[BANK0 ] PTR const struct setup_p
 10363 ;;		 -> ep_buffers(294), 
 10364 ;; Auto vars:     Size  Location     Type
 10365 ;;		None
 10366 ;; Return value:  Size  Location     Type
 10367 ;;                  1    wreg      char 
 10368 ;; Registers used:
 10369 ;;		wreg, fsr0l, fsr0h, fsr1l, fsr1h, status,2, status,0, pclath, cstack
 10370 ;; Tracked objects:
 10371 ;;		On entry : 1F/0
 10372 ;;		On exit  : 18/0
 10373 ;;		Unchanged: 0/0
 10374 ;; Data sizes:     COMMON   BANK0   BANK1   BANK2   BANK3   BANK4   BANK5   BANK6   BANK7   BANK8   BANK9  BANK10  BANK1
      +1  BANK12
 10375 ;;      Params:         0       2       0       0       0       0       0       0       0       0       0       0       
      +0       0
 10376 ;;      Locals:         0       0       0       0       0       0       0       0       0       0       0       0       
      +0       0
 10377 ;;      Temps:          0       0       0       0       0       0       0       0       0       0       0       0       
      +0       0
 10378 ;;      Totals:         0       2       0       0       0       0       0       0       0       0       0       0       
      +0       0
 10379 ;;Total ram usage:        2 bytes
 10380 ;; Hardware stack levels used: 1
 10381 ;; Hardware stack levels required when called: 6
 10382 ;; This function calls:
 10383 ;;		_process_cdc_setup_request
 10384 ;; This function is called by:
 10385 ;;		_handle_ep0_setup
 10386 ;; This function uses a non-reentrant model
 10387 ;;
 10388                           
 10389     1090                     _app_unknown_setup_request_callback:	
 10390                           ;psect for function _app_unknown_setup_request_callback
 10391                           
 10392                           
 10393                           ;../main.c: 279: int8_t app_unknown_setup_request_callback(const struct setup_packet *se
      +                          tup);../main.c: 280: {;../main.c: 289:     return (int8_t)process_cdc_setup_request(setu
      +                          p);
 10394                           
 10395                           ;incstack = 0
 10396 ;; hardware stack exceeded
 10397                           ; Regs used in _app_unknown_setup_request_callback: [wreg-fsr1h+status,2+status,0+pclath
      +                          +cstack]
 10398     1090  0864               	movf	app_unknown_setup_request_callback@setup+1,w
 10399     1091  00E0               	movwf	process_cdc_setup_request@setup+1
 10400     1092  0863               	movf	app_unknown_setup_request_callback@setup,w
 10401     1093  00DF               	movwf	process_cdc_setup_request@setup
 10402     1094  318D  2596         	fcall	_process_cdc_setup_request
 10403     1096  0008               	return
 10404     1097                     __end_of_app_unknown_setup_request_callback:
 10405                           
 10406                           	psect	text51
 10407     0D96                     __ptext51:	
 10408 ;; *************** function _process_cdc_setup_request *****************
 10409 ;; Defined at:
 10410 ;;		line 120 in file "../m-stack/usb/src/usb_cdc.c"
 10411 ;; Parameters:    Size  Location     Type
 10412 ;;  setup           2   23[BANK0 ] PTR const struct setup_p
 10413 ;;		 -> ep_buffers(294), 
 10414 ;; Auto vars:     Size  Location     Type
 10415 ;;  res             1   14[BANK1 ] char 
 10416 ;;  rts             1   13[BANK1 ] _Bool 
 10417 ;;  dtr             1   12[BANK1 ] _Bool 
 10418 ;;  res             1   11[BANK1 ] char 
 10419 ;;  res             1   10[BANK1 ] char 
 10420 ;;  data_multipl    1   22[BANK1 ] _Bool 
 10421 ;;  idle_setting    1   21[BANK1 ] _Bool 
 10422 ;;  res             1    9[BANK1 ] char 
 10423 ;;  len             2   23[BANK1 ] short 
 10424 ;;  context         2   19[BANK1 ] PTR void 
 10425 ;;  callback        2   17[BANK1 ] PTR FTN(_Bool ,PTR void 
 10426 ;;  response        2   15[BANK1 ] PTR const void 
 10427 ;;  res             1    8[BANK1 ] char 
 10428 ;;  interface       1   25[BANK1 ] unsigned char 
 10429 ;; Return value:  Size  Location     Type
 10430 ;;                  1    wreg      unsigned char 
 10431 ;; Registers used:
 10432 ;;		wreg, fsr0l, fsr0h, fsr1l, fsr1h, status,2, status,0, pclath, cstack
 10433 ;; Tracked objects:
 10434 ;;		On entry : 1F/0
 10435 ;;		On exit  : 18/0
 10436 ;;		Unchanged: 0/0
 10437 ;; Data sizes:     COMMON   BANK0   BANK1   BANK2   BANK3   BANK4   BANK5   BANK6   BANK7   BANK8   BANK9  BANK10  BANK1
      +1  BANK12
 10438 ;;      Params:         0       2       0       0       0       0       0       0       0       0       0       0       
      +0       0
 10439 ;;      Locals:         0       0      26       0       0       0       0       0       0       0       0       0       
      +0       0
 10440 ;;      Temps:          0       2       0       0       0       0       0       0       0       0       0       0       
      +0       0
 10441 ;;      Totals:         0       4      26       0       0       0       0       0       0       0       0       0       
      +0       0
 10442 ;;Total ram usage:       30 bytes
 10443 ;; Hardware stack levels used: 1
 10444 ;; Hardware stack levels required when called: 5
 10445 ;; This function calls:
 10446 ;;		_app_get_comm_feature_callback
 10447 ;;		_app_get_encapsulated_response
 10448 ;;		_app_get_line_coding_callback
 10449 ;;		_app_send_break_callback
 10450 ;;		_app_send_encapsulated_command
 10451 ;;		_app_set_control_line_state_callback
 10452 ;;		_usb_send_data_stage
 10453 ;;		_usb_start_receive_ep0_data_stage
 10454 ;; This function is called by:
 10455 ;;		_app_unknown_setup_request_callback
 10456 ;; This function uses a non-reentrant model
 10457 ;;
 10458                           
 10459     0D96                     _process_cdc_setup_request:	
 10460                           ;psect for function _process_cdc_setup_request
 10461                           
 10462                           
 10463                           ;../m-stack/usb/src/usb_cdc.c: 120: uint8_t process_cdc_setup_request(const struct setup
      +                          _packet *setup);../m-stack/usb/src/usb_cdc.c: 121: {;../m-stack/usb/src/usb_cdc.c: 124: 
      +                           uint8_t interface = setup->wIndex;
 10464                           
 10465                           ;incstack = 0
 10466 ;; hardware stack exceeded
 10467                           ; Regs used in _process_cdc_setup_request: [wreg-fsr1h+status,2+status,0+pclath+cstack]
 10468     0D96  085F               	movf	process_cdc_setup_request@setup,w
 10469     0D97  0086               	movwf	6
 10470     0D98  0860               	movf	process_cdc_setup_request@setup+1,w
 10471     0D99  0087               	movwf	7
 10472     0D9A  3144               	addfsr 1,4
 10473     0D9B  0801               	movf	1,w
 10474     0D9C  0021               	movlb	1	; select bank1
 10475     0D9D  00B9               	movwf	process_cdc_setup_request@interface^(0+128)
 10476                           
 10477                           ;../m-stack/usb/src/usb_cdc.c: 136:  if (setup->bRequest == CDC_SEND_ENCAPSULATED_COMMAN
      +                          D &&
 10478     0D9E  0020               	movlb	0	; select bank0
 10479     0D9F  085F               	movf	process_cdc_setup_request@setup,w
 10480     0DA0  0086               	movwf	6
 10481     0DA1  0860               	movf	process_cdc_setup_request@setup+1,w
 10482     0DA2  0087               	movwf	7
 10483     0DA3  3141               	addfsr 1,1
 10484     0DA4  0801               	movf	1,w
 10485     0DA5  1D03               	btfss	3,2
 10486     0DA6  2F93               	goto	i1l3747
 10487     0DA7  085F               	movf	process_cdc_setup_request@setup,w
 10488     0DA8  0086               	movwf	6
 10489     0DA9  0860               	movf	process_cdc_setup_request@setup+1,w
 10490     0DAA  0087               	movwf	7
 10491     0DAB  3021               	movlw	33
 10492     0DAC  0601               	xorwf	1,w
 10493     0DAD  1D03               	btfss	3,2
 10494     0DAE  2F93               	goto	i1l3747
 10495                           
 10496                           ;../m-stack/usb/src/usb_cdc.c: 137:      setup->REQUEST.bmRequestType == 0x21) {;../m-st
      +                          ack/usb/src/usb_cdc.c: 138:   int8_t res;;../m-stack/usb/src/usb_cdc.c: 139:   res = app
      +                          _send_encapsulated_command(interface,
 10497     0DAF  085F               	movf	process_cdc_setup_request@setup,w
 10498     0DB0  0086               	movwf	6
 10499     0DB1  0860               	movf	process_cdc_setup_request@setup+1,w
 10500     0DB2  0087               	movwf	7
 10501     0DB3  3146               	addfsr 1,6
 10502     0DB4  3F40               	moviw [0]fsr1
 10503     0DB5  00F0               	movwf	app_send_encapsulated_command@length
 10504     0DB6  3F41               	moviw [1]fsr1
 10505     0DB7  00F1               	movwf	app_send_encapsulated_command@length+1
 10506     0DB8  0021               	movlb	1	; select bank1
 10507     0DB9  0839               	movf	process_cdc_setup_request@interface^(0+128),w
 10508     0DBA  3190  205C  318D   	fcall	_app_send_encapsulated_command
 10509     0DBD  00A8               	movwf	process_cdc_setup_request@res^(0+128)
 10510                           
 10511                           ;../m-stack/usb/src/usb_cdc.c: 141:   if (res < 0)
 10512     0DBE  1FA8               	btfss	process_cdc_setup_request@res^(0+128),7
 10513     0DBF  2F91               	goto	i1l3743
 10514     0DC0                     i1l3739:
 10515                           
 10516                           ;../m-stack/usb/src/usb_cdc.c: 142:    return -1;
 10517     0DC0  30FF               	movlw	255
 10518     0DC1  0008               	return
 10519     0DC2                     i1l3749:
 10520     0DC2  085F               	movf	process_cdc_setup_request@setup,w
 10521     0DC3  0086               	movwf	6
 10522     0DC4  0860               	movf	process_cdc_setup_request@setup+1,w
 10523     0DC5  0087               	movwf	7
 10524     0DC6  30A1               	movlw	161
 10525     0DC7  0601               	xorwf	1,w
 10526     0DC8  1D03               	btfss	3,2
 10527     0DC9  2F9B               	goto	i1l3771
 10528                           
 10529                           ;../m-stack/usb/src/usb_cdc.c: 149:      setup->REQUEST.bmRequestType == 0xa1) {;../m-st
      +                          ack/usb/src/usb_cdc.c: 150:   const void *response;;../m-stack/usb/src/usb_cdc.c: 151:  
      +                           int16_t len;;../m-stack/usb/src/usb_cdc.c: 152:   usb_ep0_data_stage_callback callback;
      +                          ;../m-stack/usb/src/usb_cdc.c: 153:   void *context;;../m-stack/usb/src/usb_cdc.c: 155: 
      +                            len = app_get_encapsulated_response(
 10530     0DCA  085F               	movf	process_cdc_setup_request@setup,w
 10531     0DCB  0086               	movwf	6
 10532     0DCC  0860               	movf	process_cdc_setup_request@setup+1,w
 10533     0DCD  0087               	movwf	7
 10534     0DCE  3146               	addfsr 1,6
 10535     0DCF  3F40               	moviw [0]fsr1
 10536     0DD0  00F0               	movwf	app_get_encapsulated_response@length
 10537     0DD1  3F41               	moviw [1]fsr1
 10538     0DD2  00F1               	movwf	app_get_encapsulated_response@length+1
 10539     0DD3  30AF               	movlw	(low (process_cdc_setup_request@response| 0))& (0+255)
 10540     0DD4  00F2               	movwf	app_get_encapsulated_response@report
 10541     0DD5  30B1               	movlw	(low (process_cdc_setup_request@callback| 0))& (0+255)
 10542     0DD6  00F3               	movwf	app_get_encapsulated_response@callback
 10543     0DD7  30B3               	movlw	(low (process_cdc_setup_request@context| 0))& (0+255)
 10544     0DD8  00F4               	movwf	app_get_encapsulated_response@context
 10545     0DD9  0021               	movlb	1	; select bank1
 10546     0DDA  0839               	movf	process_cdc_setup_request@interface^(0+128),w
 10547     0DDB  3190  2065  318D   	fcall	_app_get_encapsulated_response
 10548     0DDE  0871               	movf	?_app_get_encapsulated_response+1,w
 10549     0DDF  00B8               	movwf	(process_cdc_setup_request@len+1)^(0+128)
 10550     0DE0  0870               	movf	?_app_get_encapsulated_response,w
 10551     0DE1  00B7               	movwf	process_cdc_setup_request@len^(0+128)
 10552                           
 10553                           ;../m-stack/usb/src/usb_cdc.c: 159:   if (len < 0)
 10554     0DE2  1BB8               	btfsc	(process_cdc_setup_request@len+1)^(0+128),7
 10555     0DE3  2DC0               	goto	i1l3739
 10556                           
 10557                           ;../m-stack/usb/src/usb_cdc.c: 162:   usb_send_data_stage((void*)response,
 10558     0DE4  0020               	movlb	0	; select bank0
 10559     0DE5  085F               	movf	process_cdc_setup_request@setup,w
 10560     0DE6  0086               	movwf	6
 10561     0DE7  0860               	movf	process_cdc_setup_request@setup+1,w
 10562     0DE8  0087               	movwf	7
 10563     0DE9  3146               	addfsr 1,6
 10564     0DEA  3F40               	moviw [0]fsr1
 10565     0DEB  00E1               	movwf	??_process_cdc_setup_request
 10566     0DEC  3F41               	moviw [1]fsr1
 10567     0DED  00E2               	movwf	??_process_cdc_setup_request+1
 10568     0DEE  0862               	movf	??_process_cdc_setup_request+1,w
 10569     0DEF  0021               	movlb	1	; select bank1
 10570     0DF0  0238               	subwf	(process_cdc_setup_request@len+1)^(0+128),w
 10571     0DF1  1D03               	skipz
 10572     0DF2  2DF7               	goto	u339_25
 10573     0DF3  0020               	movlb	0	; select bank0
 10574     0DF4  0861               	movf	??_process_cdc_setup_request,w
 10575     0DF5  0021               	movlb	1	; select bank1
 10576     0DF6  0237               	subwf	process_cdc_setup_request@len^(0+128),w
 10577     0DF7                     u339_25:
 10578     0DF7  1C03               	skipc
 10579     0DF8  2E05               	goto	i1l3763
 10580     0DF9  0020               	movlb	0	; select bank0
 10581     0DFA  085F               	movf	process_cdc_setup_request@setup,w
 10582     0DFB  0086               	movwf	6
 10583     0DFC  0860               	movf	process_cdc_setup_request@setup+1,w
 10584     0DFD  0087               	movwf	7
 10585     0DFE  3146               	addfsr 1,6
 10586     0DFF  3F40               	moviw [0]fsr1
 10587     0E00  0021               	movlb	1	; select bank1
 10588     0E01  00A0               	movwf	_process_cdc_setup_request$911^(0+128)
 10589     0E02  3F41               	moviw [1]fsr1
 10590     0E03  00A1               	movwf	(_process_cdc_setup_request$911+1)^(0+128)
 10591     0E04  2E09               	goto	i1l3765
 10592     0E05                     i1l3763:
 10593     0E05  0838               	movf	(process_cdc_setup_request@len+1)^(0+128),w
 10594     0E06  00A1               	movwf	(_process_cdc_setup_request$911+1)^(0+128)
 10595     0E07  0837               	movf	process_cdc_setup_request@len^(0+128),w
 10596     0E08  00A0               	movwf	_process_cdc_setup_request$911^(0+128)
 10597     0E09                     i1l3765:
 10598     0E09  0821               	movf	(_process_cdc_setup_request$911+1)^(0+128),w
 10599     0E0A  0020               	movlb	0	; select bank0
 10600     0E0B  00D9               	movwf	usb_send_data_stage@len+1
 10601     0E0C  0021               	movlb	1	; select bank1
 10602     0E0D  0820               	movf	_process_cdc_setup_request$911^(0+128),w
 10603     0E0E  0020               	movlb	0	; select bank0
 10604     0E0F  00D8               	movwf	usb_send_data_stage@len
 10605     0E10  0021               	movlb	1	; select bank1
 10606     0E11  0832               	movf	(process_cdc_setup_request@callback+1)^(0+128),w
 10607     0E12  0020               	movlb	0	; select bank0
 10608     0E13  00DB               	movwf	usb_send_data_stage@callback+1
 10609     0E14  0021               	movlb	1	; select bank1
 10610     0E15  0831               	movf	process_cdc_setup_request@callback^(0+128),w
 10611     0E16  0020               	movlb	0	; select bank0
 10612     0E17  00DA               	movwf	usb_send_data_stage@callback
 10613     0E18  0021               	movlb	1	; select bank1
 10614     0E19  0834               	movf	(process_cdc_setup_request@context+1)^(0+128),w
 10615     0E1A  0020               	movlb	0	; select bank0
 10616     0E1B  00DD               	movwf	usb_send_data_stage@context+1
 10617     0E1C  0021               	movlb	1	; select bank1
 10618     0E1D  0833               	movf	process_cdc_setup_request@context^(0+128),w
 10619     0E1E  0020               	movlb	0	; select bank0
 10620     0E1F  00DC               	movwf	usb_send_data_stage@context
 10621     0E20  0021               	movlb	1	; select bank1
 10622     0E21  082F               	movf	process_cdc_setup_request@response^(0+128),w
 10623     0E22  0089               	movwf	9
 10624     0E23  2F8F               	goto	L8
 10625     0E24                     i1l3773:
 10626     0E24  085F               	movf	process_cdc_setup_request@setup,w
 10627     0E25  0086               	movwf	6
 10628     0E26  0860               	movf	process_cdc_setup_request@setup+1,w
 10629     0E27  0087               	movwf	7
 10630     0E28  3021               	movlw	33
 10631     0E29  0601               	xorwf	1,w
 10632     0E2A  1D03               	btfss	3,2
 10633     0E2B  2FA4               	goto	i1l3791
 10634                           
 10635                           ;../m-stack/usb/src/usb_cdc.c: 171:      setup->REQUEST.bmRequestType == 0x21) {;../m-st
      +                          ack/usb/src/usb_cdc.c: 175:   if (setup->wValue != CDC_FEATURE_ABSTRACT_STATE)
 10636     0E2C  085F               	movf	process_cdc_setup_request@setup,w
 10637     0E2D  0086               	movwf	6
 10638     0E2E  0860               	movf	process_cdc_setup_request@setup+1,w
 10639     0E2F  0087               	movwf	7
 10640     0E30  3142               	addfsr 1,2
 10641     0E31  0016               	moviw fsr1++
 10642     0E32  3A01               	xorlw	1
 10643     0E33  00E1               	movwf	??_process_cdc_setup_request
 10644     0E34  0016               	moviw fsr1++
 10645     0E35  04E1               	iorwf	??_process_cdc_setup_request,f
 10646     0E36  1D03               	btfss	3,2
 10647     0E37  2DC0               	goto	i1l3739
 10648                           
 10649                           ;../m-stack/usb/src/usb_cdc.c: 178:   transfer_interface = interface;
 10650     0E38  0021               	movlb	1	; select bank1
 10651     0E39  0839               	movf	process_cdc_setup_request@interface^(0+128),w
 10652     0E3A  00C6               	movwf	_transfer_interface^(0+128)
 10653                           
 10654                           ;../m-stack/usb/src/usb_cdc.c: 179:   set_or_clear_request = setup->bRequest;
 10655     0E3B  0020               	movlb	0	; select bank0
 10656     0E3C  085F               	movf	process_cdc_setup_request@setup,w
 10657     0E3D  0086               	movwf	6
 10658     0E3E  0860               	movf	process_cdc_setup_request@setup+1,w
 10659     0E3F  0087               	movwf	7
 10660     0E40  3141               	addfsr 1,1
 10661     0E41  0801               	movf	1,w
 10662     0E42  0026               	movlb	6	; select bank6
 10663     0E43  00AE               	movwf	_set_or_clear_request^(0+768)
 10664                           
 10665                           ;../m-stack/usb/src/usb_cdc.c: 180:   usb_start_receive_ep0_data_stage((char*) &transfer
      +                          _data.comm_feature,
 10666     0E44  3002               	movlw	2
 10667     0E45  00F0               	movwf	usb_start_receive_ep0_data_stage@len
 10668     0E46  3000               	movlw	0
 10669     0E47  00F1               	movwf	usb_start_receive_ep0_data_stage@len+1
 10670     0E48  30C3               	movlw	low _set_or_clear_comm_feature_callback
 10671     0E49  00F2               	movwf	usb_start_receive_ep0_data_stage@callback
 10672     0E4A  3013               	movlw	high _set_or_clear_comm_feature_callback
 10673     0E4B  00F3               	movwf	usb_start_receive_ep0_data_stage@callback+1
 10674     0E4C  3000               	movlw	0
 10675     0E4D  00F4               	movwf	usb_start_receive_ep0_data_stage@context
 10676     0E4E  00F5               	movwf	usb_start_receive_ep0_data_stage@context+1
 10677     0E4F  303D               	movlw	(low (_transfer_data| (0+768)))& (0+255)
 10678     0E50  3191  2152  318D   	fcall	_usb_start_receive_ep0_data_stage
 10679     0E53  2F91               	goto	i1l3743
 10680     0E54                     i1l3793:
 10681     0E54  085F               	movf	process_cdc_setup_request@setup,w
 10682     0E55  0086               	movwf	6
 10683     0E56  0860               	movf	process_cdc_setup_request@setup+1,w
 10684     0E57  0087               	movwf	7
 10685     0E58  3021               	movlw	33
 10686     0E59  0601               	xorwf	1,w
 10687     0E5A  1D03               	btfss	3,2
 10688     0E5B  2FAD               	goto	i1l3811
 10689                           
 10690                           ;../m-stack/usb/src/usb_cdc.c: 190:      setup->REQUEST.bmRequestType == 0x21) {;../m-st
      +                          ack/usb/src/usb_cdc.c: 194:   if (setup->wValue != CDC_FEATURE_ABSTRACT_STATE)
 10691     0E5C  085F               	movf	process_cdc_setup_request@setup,w
 10692     0E5D  0086               	movwf	6
 10693     0E5E  0860               	movf	process_cdc_setup_request@setup+1,w
 10694     0E5F  0087               	movwf	7
 10695     0E60  3142               	addfsr 1,2
 10696     0E61  0016               	moviw fsr1++
 10697     0E62  3A01               	xorlw	1
 10698     0E63  00E1               	movwf	??_process_cdc_setup_request
 10699     0E64  0016               	moviw fsr1++
 10700     0E65  04E1               	iorwf	??_process_cdc_setup_request,f
 10701     0E66  1D03               	btfss	3,2
 10702     0E67  2DC0               	goto	i1l3739
 10703                           
 10704                           ;../m-stack/usb/src/usb_cdc.c: 197:   transfer_interface = interface;
 10705     0E68  0021               	movlb	1	; select bank1
 10706     0E69  0839               	movf	process_cdc_setup_request@interface^(0+128),w
 10707     0E6A  00C6               	movwf	_transfer_interface^(0+128)
 10708                           
 10709                           ;../m-stack/usb/src/usb_cdc.c: 198:   set_or_clear_request = setup->bRequest;
 10710     0E6B  0020               	movlb	0	; select bank0
 10711     0E6C  085F               	movf	process_cdc_setup_request@setup,w
 10712     0E6D  0086               	movwf	6
 10713     0E6E  0860               	movf	process_cdc_setup_request@setup+1,w
 10714     0E6F  0087               	movwf	7
 10715     0E70  3141               	addfsr 1,1
 10716     0E71  0801               	movf	1,w
 10717     0E72  0026               	movlb	6	; select bank6
 10718     0E73  00AE               	movwf	_set_or_clear_request^(0+768)
 10719                           
 10720                           ;../m-stack/usb/src/usb_cdc.c: 199:   usb_start_receive_ep0_data_stage((char*)&transfer_
      +                          data.comm_feature,
 10721     0E74  3002               	movlw	2
 10722     0E75  00F0               	movwf	usb_start_receive_ep0_data_stage@len
 10723     0E76  3000               	movlw	0
 10724     0E77  00F1               	movwf	usb_start_receive_ep0_data_stage@len+1
 10725     0E78  30C3               	movlw	low _set_or_clear_comm_feature_callback
 10726     0E79  00F2               	movwf	usb_start_receive_ep0_data_stage@callback
 10727     0E7A  3013               	movlw	high _set_or_clear_comm_feature_callback
 10728     0E7B  00F3               	movwf	usb_start_receive_ep0_data_stage@callback+1
 10729     0E7C  3000               	movlw	0
 10730     0E7D  00F4               	movwf	usb_start_receive_ep0_data_stage@context
 10731     0E7E  00F5               	movwf	usb_start_receive_ep0_data_stage@context+1
 10732     0E7F  303D               	movlw	(low (_transfer_data| (0+768)))& (0+255)
 10733     0E80  3191  2152  318D   	fcall	_usb_start_receive_ep0_data_stage
 10734     0E83  2F91               	goto	i1l3743
 10735     0E84                     i1l3813:
 10736     0E84  085F               	movf	process_cdc_setup_request@setup,w
 10737     0E85  0086               	movwf	6
 10738     0E86  0860               	movf	process_cdc_setup_request@setup+1,w
 10739     0E87  0087               	movwf	7
 10740     0E88  30A1               	movlw	161
 10741     0E89  0601               	xorwf	1,w
 10742     0E8A  1D03               	btfss	3,2
 10743     0E8B  2FB6               	goto	i1l3843
 10744                           
 10745                           ;../m-stack/usb/src/usb_cdc.c: 209:      setup->REQUEST.bmRequestType == 0xa1) {;../m-st
      +                          ack/usb/src/usb_cdc.c: 210:   _Bool idle_setting;;../m-stack/usb/src/usb_cdc.c: 211:   _
      +                          Bool data_multiplexed_state;;../m-stack/usb/src/usb_cdc.c: 212:   int8_t res;;../m-stack
      +                          /usb/src/usb_cdc.c: 216:   if (setup->wValue != CDC_FEATURE_ABSTRACT_STATE)
 10746     0E8C  085F               	movf	process_cdc_setup_request@setup,w
 10747     0E8D  0086               	movwf	6
 10748     0E8E  0860               	movf	process_cdc_setup_request@setup+1,w
 10749     0E8F  0087               	movwf	7
 10750     0E90  3142               	addfsr 1,2
 10751     0E91  0016               	moviw fsr1++
 10752     0E92  3A01               	xorlw	1
 10753     0E93  00E1               	movwf	??_process_cdc_setup_request
 10754     0E94  0016               	moviw fsr1++
 10755     0E95  04E1               	iorwf	??_process_cdc_setup_request,f
 10756     0E96  1D03               	btfss	3,2
 10757     0E97  2DC0               	goto	i1l3739
 10758                           
 10759                           ;../m-stack/usb/src/usb_cdc.c: 219:   res = app_get_comm_feature_callback(
 10760     0E98  30B5               	movlw	(low (process_cdc_setup_request@idle_setting| 0))& (0+255)
 10761     0E99  00F0               	movwf	app_get_comm_feature_callback@idle_setting
 10762     0E9A  30B6               	movlw	(low (process_cdc_setup_request@data_multiplexed_state| 0))& (0+255)
 10763     0E9B  00F1               	movwf	app_get_comm_feature_callback@data_multiplexed_state
 10764     0E9C  0021               	movlb	1	; select bank1
 10765     0E9D  0839               	movf	process_cdc_setup_request@interface^(0+128),w
 10766     0E9E  3190  205A  318D   	fcall	_app_get_comm_feature_callback
 10767     0EA1  00A9               	movwf	process_cdc_setup_request@res_915^(0+128)
 10768                           
 10769                           ;../m-stack/usb/src/usb_cdc.c: 223:   if (res < 0)
 10770     0EA2  1BA9               	btfsc	process_cdc_setup_request@res_915^(0+128),7
 10771     0EA3  2DC0               	goto	i1l3739
 10772                           
 10773                           ;../m-stack/usb/src/usb_cdc.c: 226:   transfer_data.comm_feature =
 10774     0EA4  0836               	movf	process_cdc_setup_request@data_multiplexed_state^(0+128),w
 10775     0EA5  0020               	movlb	0	; select bank0
 10776     0EA6  00E1               	movwf	??_process_cdc_setup_request
 10777     0EA7  01E2               	clrf	??_process_cdc_setup_request+1
 10778     0EA8  35E1               	lslf	??_process_cdc_setup_request,f
 10779     0EA9  0DE2               	rlf	??_process_cdc_setup_request+1,f
 10780     0EAA  0861               	movf	??_process_cdc_setup_request,w
 10781     0EAB  0021               	movlb	1	; select bank1
 10782     0EAC  0435               	iorwf	process_cdc_setup_request@idle_setting^(0+128),w
 10783     0EAD  0026               	movlb	6	; select bank6
 10784     0EAE  00BD               	movwf	_transfer_data^(0+768)
 10785     0EAF  0020               	movlb	0	; select bank0
 10786     0EB0  0862               	movf	??_process_cdc_setup_request+1,w
 10787     0EB1  0026               	movlb	6	; select bank6
 10788     0EB2  00BE               	movwf	(_transfer_data+1)^(0+768)
 10789                           
 10790                           ;../m-stack/usb/src/usb_cdc.c: 230:   usb_send_data_stage((char*)&transfer_data.comm_fea
      +                          ture,
 10791     0EB3  0020               	movlb	0	; select bank0
 10792     0EB4  085F               	movf	process_cdc_setup_request@setup,w
 10793     0EB5  0086               	movwf	6
 10794     0EB6  0860               	movf	process_cdc_setup_request@setup+1,w
 10795     0EB7  0087               	movwf	7
 10796     0EB8  3146               	addfsr 1,6
 10797     0EB9  3F40               	moviw [0]fsr1
 10798     0EBA  00E1               	movwf	??_process_cdc_setup_request
 10799     0EBB  3F41               	moviw [1]fsr1
 10800     0EBC  00E2               	movwf	??_process_cdc_setup_request+1
 10801     0EBD  3000               	movlw	0
 10802     0EBE  0262               	subwf	??_process_cdc_setup_request+1,w
 10803     0EBF  3002               	movlw	2
 10804     0EC0  1903               	skipnz
 10805     0EC1  0261               	subwf	??_process_cdc_setup_request,w
 10806     0EC2  1C03               	skipc
 10807     0EC3  2ECA               	goto	i1l3835
 10808     0EC4  3002               	movlw	2
 10809     0EC5  0021               	movlb	1	; select bank1
 10810     0EC6  00A2               	movwf	_process_cdc_setup_request$916^(0+128)
 10811     0EC7  3000               	movlw	0
 10812     0EC8  00A3               	movwf	(_process_cdc_setup_request$916^(0+128)+1)
 10813     0EC9  2ED4               	goto	i1l3837
 10814     0ECA                     i1l3835:
 10815     0ECA  085F               	movf	process_cdc_setup_request@setup,w
 10816     0ECB  0086               	movwf	6
 10817     0ECC  0860               	movf	process_cdc_setup_request@setup+1,w
 10818     0ECD  0087               	movwf	7
 10819     0ECE  3146               	addfsr 1,6
 10820     0ECF  3F40               	moviw [0]fsr1
 10821     0ED0  0021               	movlb	1	; select bank1
 10822     0ED1  00A2               	movwf	_process_cdc_setup_request$916^(0+128)
 10823     0ED2  3F41               	moviw [1]fsr1
 10824     0ED3  00A3               	movwf	(_process_cdc_setup_request$916+1)^(0+128)
 10825     0ED4                     i1l3837:
 10826     0ED4  0823               	movf	(_process_cdc_setup_request$916+1)^(0+128),w
 10827     0ED5  0020               	movlb	0	; select bank0
 10828     0ED6  00D9               	movwf	usb_send_data_stage@len+1
 10829     0ED7  0021               	movlb	1	; select bank1
 10830     0ED8  0822               	movf	_process_cdc_setup_request$916^(0+128),w
 10831     0ED9  2F4E               	goto	L9
 10832     0EDA                     i1l3845:
 10833     0EDA  085F               	movf	process_cdc_setup_request@setup,w
 10834     0EDB  0086               	movwf	6
 10835     0EDC  0860               	movf	process_cdc_setup_request@setup+1,w
 10836     0EDD  0087               	movwf	7
 10837     0EDE  3021               	movlw	33
 10838     0EDF  0601               	xorwf	1,w
 10839     0EE0  1D03               	btfss	3,2
 10840     0EE1  2FBF               	goto	i1l3861
 10841                           
 10842                           ;../m-stack/usb/src/usb_cdc.c: 240:      setup->REQUEST.bmRequestType == 0x21) {;../m-st
      +                          ack/usb/src/usb_cdc.c: 242:   transfer_interface = interface;
 10843     0EE2  0021               	movlb	1	; select bank1
 10844     0EE3  0839               	movf	process_cdc_setup_request@interface^(0+128),w
 10845     0EE4  00C6               	movwf	_transfer_interface^(0+128)
 10846                           
 10847                           ;../m-stack/usb/src/usb_cdc.c: 243:   usb_start_receive_ep0_data_stage(
 10848     0EE5  0020               	movlb	0	; select bank0
 10849     0EE6  085F               	movf	process_cdc_setup_request@setup,w
 10850     0EE7  0086               	movwf	6
 10851     0EE8  0860               	movf	process_cdc_setup_request@setup+1,w
 10852     0EE9  0087               	movwf	7
 10853     0EEA  3146               	addfsr 1,6
 10854     0EEB  3F40               	moviw [0]fsr1
 10855     0EEC  00E1               	movwf	??_process_cdc_setup_request
 10856     0EED  3F41               	moviw [1]fsr1
 10857     0EEE  00E2               	movwf	??_process_cdc_setup_request+1
 10858     0EEF  3000               	movlw	0
 10859     0EF0  0262               	subwf	??_process_cdc_setup_request+1,w
 10860     0EF1  3007               	movlw	7
 10861     0EF2  1903               	skipnz
 10862     0EF3  0261               	subwf	??_process_cdc_setup_request,w
 10863     0EF4  1C03               	skipc
 10864     0EF5  2EFC               	goto	i1l3853
 10865     0EF6  3007               	movlw	7
 10866     0EF7  0021               	movlb	1	; select bank1
 10867     0EF8  00A4               	movwf	_process_cdc_setup_request$917^(0+128)
 10868     0EF9  3000               	movlw	0
 10869     0EFA  00A5               	movwf	(_process_cdc_setup_request$917^(0+128)+1)
 10870     0EFB  2F06               	goto	i1l3855
 10871     0EFC                     i1l3853:
 10872     0EFC  085F               	movf	process_cdc_setup_request@setup,w
 10873     0EFD  0086               	movwf	6
 10874     0EFE  0860               	movf	process_cdc_setup_request@setup+1,w
 10875     0EFF  0087               	movwf	7
 10876     0F00  3146               	addfsr 1,6
 10877     0F01  3F40               	moviw [0]fsr1
 10878     0F02  0021               	movlb	1	; select bank1
 10879     0F03  00A4               	movwf	_process_cdc_setup_request$917^(0+128)
 10880     0F04  3F41               	moviw [1]fsr1
 10881     0F05  00A5               	movwf	(_process_cdc_setup_request$917+1)^(0+128)
 10882     0F06                     i1l3855:
 10883     0F06  0825               	movf	(_process_cdc_setup_request$917+1)^(0+128),w
 10884     0F07  00F1               	movwf	usb_start_receive_ep0_data_stage@len+1
 10885     0F08  0824               	movf	_process_cdc_setup_request$917^(0+128),w
 10886     0F09  00F0               	movwf	usb_start_receive_ep0_data_stage@len
 10887     0F0A  30CC               	movlw	low _set_line_coding
 10888     0F0B  00F2               	movwf	usb_start_receive_ep0_data_stage@callback
 10889     0F0C  3010               	movlw	high _set_line_coding
 10890     0F0D  00F3               	movwf	usb_start_receive_ep0_data_stage@callback+1
 10891     0F0E  3000               	movlw	0
 10892     0F0F  00F4               	movwf	usb_start_receive_ep0_data_stage@context
 10893     0F10  00F5               	movwf	usb_start_receive_ep0_data_stage@context+1
 10894     0F11  303D               	movlw	(low (_transfer_data| (0+768)))& (0+255)
 10895     0F12  3191  2152  318D   	fcall	_usb_start_receive_ep0_data_stage
 10896     0F15  2F91               	goto	i1l3743
 10897     0F16                     i1l3863:
 10898     0F16  085F               	movf	process_cdc_setup_request@setup,w
 10899     0F17  0086               	movwf	6
 10900     0F18  0860               	movf	process_cdc_setup_request@setup+1,w
 10901     0F19  0087               	movwf	7
 10902     0F1A  30A1               	movlw	161
 10903     0F1B  0601               	xorwf	1,w
 10904     0F1C  1D03               	btfss	3,2
 10905     0F1D  2FC8               	goto	i1l3885
 10906                           
 10907                           ;../m-stack/usb/src/usb_cdc.c: 254:      setup->REQUEST.bmRequestType == 0xa1) {;../m-st
      +                          ack/usb/src/usb_cdc.c: 255:   int8_t res;;../m-stack/usb/src/usb_cdc.c: 257:   res = app
      +                          _get_line_coding_callback(
 10908     0F1E  303D               	movlw	(low (_transfer_data| (0+768)))& (0+255)
 10909     0F1F  00F0               	movwf	app_get_line_coding_callback@coding
 10910     0F20  0021               	movlb	1	; select bank1
 10911     0F21  0839               	movf	process_cdc_setup_request@interface^(0+128),w
 10912     0F22  3191  210E  318D   	fcall	_app_get_line_coding_callback
 10913     0F25  00AA               	movwf	process_cdc_setup_request@res_922^(0+128)
 10914                           
 10915                           ;../m-stack/usb/src/usb_cdc.c: 260:   if (res < 0)
 10916     0F26  1BAA               	btfsc	process_cdc_setup_request@res_922^(0+128),7
 10917     0F27  2DC0               	goto	i1l3739
 10918                           
 10919                           ;../m-stack/usb/src/usb_cdc.c: 263:   usb_send_data_stage((char*)&transfer_data.line_cod
      +                          ing,
 10920     0F28  0020               	movlb	0	; select bank0
 10921     0F29  085F               	movf	process_cdc_setup_request@setup,w
 10922     0F2A  0086               	movwf	6
 10923     0F2B  0860               	movf	process_cdc_setup_request@setup+1,w
 10924     0F2C  0087               	movwf	7
 10925     0F2D  3146               	addfsr 1,6
 10926     0F2E  3F40               	moviw [0]fsr1
 10927     0F2F  00E1               	movwf	??_process_cdc_setup_request
 10928     0F30  3F41               	moviw [1]fsr1
 10929     0F31  00E2               	movwf	??_process_cdc_setup_request+1
 10930     0F32  3000               	movlw	0
 10931     0F33  0262               	subwf	??_process_cdc_setup_request+1,w
 10932     0F34  3007               	movlw	7
 10933     0F35  1903               	skipnz
 10934     0F36  0261               	subwf	??_process_cdc_setup_request,w
 10935     0F37  1C03               	skipc
 10936     0F38  2F3F               	goto	i1l3877
 10937     0F39  3007               	movlw	7
 10938     0F3A  0021               	movlb	1	; select bank1
 10939     0F3B  00A6               	movwf	_process_cdc_setup_request$923^(0+128)
 10940     0F3C  3000               	movlw	0
 10941     0F3D  00A7               	movwf	(_process_cdc_setup_request$923^(0+128)+1)
 10942     0F3E  2F49               	goto	i1l3879
 10943     0F3F                     i1l3877:
 10944     0F3F  085F               	movf	process_cdc_setup_request@setup,w
 10945     0F40  0086               	movwf	6
 10946     0F41  0860               	movf	process_cdc_setup_request@setup+1,w
 10947     0F42  0087               	movwf	7
 10948     0F43  3146               	addfsr 1,6
 10949     0F44  3F40               	moviw [0]fsr1
 10950     0F45  0021               	movlb	1	; select bank1
 10951     0F46  00A6               	movwf	_process_cdc_setup_request$923^(0+128)
 10952     0F47  3F41               	moviw [1]fsr1
 10953     0F48  00A7               	movwf	(_process_cdc_setup_request$923+1)^(0+128)
 10954     0F49                     i1l3879:
 10955     0F49  0827               	movf	(_process_cdc_setup_request$923+1)^(0+128),w
 10956     0F4A  0020               	movlb	0	; select bank0
 10957     0F4B  00D9               	movwf	usb_send_data_stage@len+1
 10958     0F4C  0021               	movlb	1	; select bank1
 10959     0F4D  0826               	movf	_process_cdc_setup_request$923^(0+128),w
 10960     0F4E                     L9:
 10961     0F4E  0020               	movlb	0	; select bank0
 10962     0F4F  00D8               	movwf	usb_send_data_stage@len
 10963     0F50  3000               	movlw	0
 10964     0F51  00DA               	movwf	usb_send_data_stage@callback
 10965     0F52  00DB               	movwf	usb_send_data_stage@callback+1
 10966     0F53  3000               	movlw	0
 10967     0F54  00DC               	movwf	usb_send_data_stage@context
 10968     0F55  00DD               	movwf	usb_send_data_stage@context+1
 10969     0F56  303D               	movlw	(low (_transfer_data| (0+768)))& (0+255)
 10970     0F57  2F8F               	goto	L8
 10971     0F58                     i1l3887:
 10972     0F58  085F               	movf	process_cdc_setup_request@setup,w
 10973     0F59  0086               	movwf	6
 10974     0F5A  0860               	movf	process_cdc_setup_request@setup+1,w
 10975     0F5B  0087               	movwf	7
 10976     0F5C  3021               	movlw	33
 10977     0F5D  0601               	xorwf	1,w
 10978     0F5E  1D03               	btfss	3,2
 10979     0F5F  2FD1               	goto	i1l3905
 10980                           
 10981                           ;../m-stack/usb/src/usb_cdc.c: 273:      setup->REQUEST.bmRequestType == 0x21) {;../m-st
      +                          ack/usb/src/usb_cdc.c: 274:   int8_t res;;../m-stack/usb/src/usb_cdc.c: 275:   _Bool dtr
      +                           = (setup->wValue & 0x1) != 0;
 10982     0F60  085F               	movf	process_cdc_setup_request@setup,w
 10983     0F61  0086               	movwf	6
 10984     0F62  0860               	movf	process_cdc_setup_request@setup+1,w
 10985     0F63  0087               	movwf	7
 10986     0F64  3142               	addfsr 1,2
 10987     0F65  1C01               	btfss	1,0
 10988     0F66  2F69               	goto	u360_20
 10989     0F67  3001               	movlw	1
 10990     0F68  2F6A               	goto	u361_20
 10991     0F69                     u360_20:
 10992     0F69  3000               	movlw	0
 10993     0F6A                     u361_20:
 10994     0F6A  0021               	movlb	1	; select bank1
 10995     0F6B  00AC               	movwf	process_cdc_setup_request@dtr^(0+128)
 10996                           
 10997                           ;../m-stack/usb/src/usb_cdc.c: 276:   _Bool rts = (setup->wValue & 0x2) != 0;
 10998     0F6C  0020               	movlb	0	; select bank0
 10999     0F6D  085F               	movf	process_cdc_setup_request@setup,w
 11000     0F6E  0086               	movwf	6
 11001     0F6F  0860               	movf	process_cdc_setup_request@setup+1,w
 11002     0F70  0087               	movwf	7
 11003     0F71  3142               	addfsr 1,2
 11004     0F72  1C81               	btfss	1,1
 11005     0F73  2F76               	goto	u362_20
 11006     0F74  3001               	movlw	1
 11007     0F75  2F77               	goto	u363_20
 11008     0F76                     u362_20:
 11009     0F76  3000               	movlw	0
 11010     0F77                     u363_20:
 11011     0F77  0021               	movlb	1	; select bank1
 11012     0F78  00AD               	movwf	process_cdc_setup_request@rts^(0+128)
 11013                           
 11014                           ;../m-stack/usb/src/usb_cdc.c: 278:   res = app_set_control_line_state_callback(interfac
      +                          e, dtr, rts);
 11015     0F79  082C               	movf	process_cdc_setup_request@dtr^(0+128),w
 11016     0F7A  00F0               	movwf	app_set_control_line_state_callback@dtr
 11017     0F7B  082D               	movf	process_cdc_setup_request@rts^(0+128),w
 11018     0F7C  00F1               	movwf	app_set_control_line_state_callback@dts
 11019     0F7D  0839               	movf	process_cdc_setup_request@interface^(0+128),w
 11020     0F7E  3190  205E  318D   	fcall	_app_set_control_line_state_callback
 11021     0F81  00AB               	movwf	process_cdc_setup_request@res_928^(0+128)
 11022                           
 11023                           ;../m-stack/usb/src/usb_cdc.c: 279:   if (res < 0)
 11024     0F82  1BAB               	btfsc	process_cdc_setup_request@res_928^(0+128),7
 11025     0F83  2DC0               	goto	i1l3739
 11026                           
 11027                           ;../m-stack/usb/src/usb_cdc.c: 283:   usb_send_data_stage(((void*)0), 0, ((void*)0), ((v
      +                          oid*)0));
 11028     0F84  3000               	movlw	0
 11029     0F85  0020               	movlb	0	; select bank0
 11030     0F86  00D8               	movwf	usb_send_data_stage@len
 11031     0F87  00D9               	movwf	usb_send_data_stage@len+1
 11032     0F88  3000               	movlw	0
 11033     0F89  00DA               	movwf	usb_send_data_stage@callback
 11034     0F8A  00DB               	movwf	usb_send_data_stage@callback+1
 11035     0F8B  3000               	movlw	0
 11036     0F8C  00DC               	movwf	usb_send_data_stage@context
 11037     0F8D  00DD               	movwf	usb_send_data_stage@context+1
 11038     0F8E  0103               	clrw
 11039     0F8F                     L8:
 11040     0F8F  3192  2281         	fcall	_usb_send_data_stage
 11041     0F91                     i1l3743:
 11042                           
 11043                           ;../m-stack/usb/src/usb_cdc.c: 143:   return 0;
 11044     0F91  3000               	movlw	0
 11045     0F92  0008               	return
 11046     0F93                     i1l3747:
 11047                           
 11048                           ;../m-stack/usb/src/usb_cdc.c: 148:  if (setup->bRequest == CDC_GET_ENCAPSULATED_RESPONS
      +                          E &&
 11049     0F93  085F               	movf	process_cdc_setup_request@setup,w
 11050     0F94  0086               	movwf	6
 11051     0F95  0860               	movf	process_cdc_setup_request@setup+1,w
 11052     0F96  0087               	movwf	7
 11053     0F97  3141               	addfsr 1,1
 11054     0F98  0301               	decf	1,w
 11055     0F99  1903               	btfsc	3,2
 11056     0F9A  2DC2               	goto	i1l3749
 11057     0F9B                     i1l3771:
 11058                           
 11059                           ;../m-stack/usb/src/usb_cdc.c: 170:  if (setup->bRequest == CDC_SET_COMM_FEATURE &&
 11060     0F9B  085F               	movf	process_cdc_setup_request@setup,w
 11061     0F9C  0086               	movwf	6
 11062     0F9D  0860               	movf	process_cdc_setup_request@setup+1,w
 11063     0F9E  0087               	movwf	7
 11064     0F9F  3141               	addfsr 1,1
 11065     0FA0  3002               	movlw	2
 11066     0FA1  0601               	xorwf	1,w
 11067     0FA2  1903               	btfsc	3,2
 11068     0FA3  2E24               	goto	i1l3773
 11069     0FA4                     i1l3791:
 11070                           
 11071                           ;../m-stack/usb/src/usb_cdc.c: 189:  if (setup->bRequest == CDC_CLEAR_COMM_FEATURE &&
 11072     0FA4  085F               	movf	process_cdc_setup_request@setup,w
 11073     0FA5  0086               	movwf	6
 11074     0FA6  0860               	movf	process_cdc_setup_request@setup+1,w
 11075     0FA7  0087               	movwf	7
 11076     0FA8  3141               	addfsr 1,1
 11077     0FA9  3004               	movlw	4
 11078     0FAA  0601               	xorwf	1,w
 11079     0FAB  1903               	btfsc	3,2
 11080     0FAC  2E54               	goto	i1l3793
 11081     0FAD                     i1l3811:
 11082                           
 11083                           ;../m-stack/usb/src/usb_cdc.c: 208:  if (setup->bRequest == CDC_GET_COMM_FEATURE &&
 11084     0FAD  085F               	movf	process_cdc_setup_request@setup,w
 11085     0FAE  0086               	movwf	6
 11086     0FAF  0860               	movf	process_cdc_setup_request@setup+1,w
 11087     0FB0  0087               	movwf	7
 11088     0FB1  3141               	addfsr 1,1
 11089     0FB2  3003               	movlw	3
 11090     0FB3  0601               	xorwf	1,w
 11091     0FB4  1903               	btfsc	3,2
 11092     0FB5  2E84               	goto	i1l3813
 11093     0FB6                     i1l3843:
 11094                           
 11095                           ;../m-stack/usb/src/usb_cdc.c: 239:  if (setup->bRequest == CDC_SET_LINE_CODING &&
 11096     0FB6  085F               	movf	process_cdc_setup_request@setup,w
 11097     0FB7  0086               	movwf	6
 11098     0FB8  0860               	movf	process_cdc_setup_request@setup+1,w
 11099     0FB9  0087               	movwf	7
 11100     0FBA  3141               	addfsr 1,1
 11101     0FBB  3020               	movlw	32
 11102     0FBC  0601               	xorwf	1,w
 11103     0FBD  1903               	btfsc	3,2
 11104     0FBE  2EDA               	goto	i1l3845
 11105     0FBF                     i1l3861:
 11106                           
 11107                           ;../m-stack/usb/src/usb_cdc.c: 253:  if (setup->bRequest == CDC_GET_LINE_CODING &&
 11108     0FBF  085F               	movf	process_cdc_setup_request@setup,w
 11109     0FC0  0086               	movwf	6
 11110     0FC1  0860               	movf	process_cdc_setup_request@setup+1,w
 11111     0FC2  0087               	movwf	7
 11112     0FC3  3141               	addfsr 1,1
 11113     0FC4  3021               	movlw	33
 11114     0FC5  0601               	xorwf	1,w
 11115     0FC6  1903               	btfsc	3,2
 11116     0FC7  2F16               	goto	i1l3863
 11117     0FC8                     i1l3885:
 11118                           
 11119                           ;../m-stack/usb/src/usb_cdc.c: 272:  if (setup->bRequest == CDC_SET_CONTROL_LINE_STATE &
      +                          &
 11120     0FC8  085F               	movf	process_cdc_setup_request@setup,w
 11121     0FC9  0086               	movwf	6
 11122     0FCA  0860               	movf	process_cdc_setup_request@setup+1,w
 11123     0FCB  0087               	movwf	7
 11124     0FCC  3141               	addfsr 1,1
 11125     0FCD  3022               	movlw	34
 11126     0FCE  0601               	xorwf	1,w
 11127     0FCF  1903               	btfsc	3,2
 11128     0FD0  2F58               	goto	i1l3887
 11129     0FD1                     i1l3905:
 11130                           
 11131                           ;../m-stack/usb/src/usb_cdc.c: 290:  if (setup->bRequest == CDC_SEND_BREAK &&
 11132     0FD1  085F               	movf	process_cdc_setup_request@setup,w
 11133     0FD2  0086               	movwf	6
 11134     0FD3  0860               	movf	process_cdc_setup_request@setup+1,w
 11135     0FD4  0087               	movwf	7
 11136     0FD5  3141               	addfsr 1,1
 11137     0FD6  3023               	movlw	35
 11138     0FD7  0601               	xorwf	1,w
 11139     0FD8  1D03               	btfss	3,2
 11140     0FD9  2DC0               	goto	i1l3739
 11141     0FDA  085F               	movf	process_cdc_setup_request@setup,w
 11142     0FDB  0086               	movwf	6
 11143     0FDC  0860               	movf	process_cdc_setup_request@setup+1,w
 11144     0FDD  0087               	movwf	7
 11145     0FDE  3021               	movlw	33
 11146     0FDF  0601               	xorwf	1,w
 11147     0FE0  1D03               	btfss	3,2
 11148     0FE1  2DC0               	goto	i1l3739
 11149                           
 11150                           ;../m-stack/usb/src/usb_cdc.c: 291:      setup->REQUEST.bmRequestType == 0x21) {;../m-st
      +                          ack/usb/src/usb_cdc.c: 292:   int8_t res;;../m-stack/usb/src/usb_cdc.c: 294:   res = app
      +                          _send_break_callback(interface,
 11151     0FE2  085F               	movf	process_cdc_setup_request@setup,w
 11152     0FE3  0086               	movwf	6
 11153     0FE4  0860               	movf	process_cdc_setup_request@setup+1,w
 11154     0FE5  0087               	movwf	7
 11155     0FE6  3142               	addfsr 1,2
 11156     0FE7  3F40               	moviw [0]fsr1
 11157     0FE8  00F0               	movwf	app_send_break_callback@duration
 11158     0FE9  3F41               	moviw [1]fsr1
 11159     0FEA  00F1               	movwf	app_send_break_callback@duration+1
 11160     0FEB  0021               	movlb	1	; select bank1
 11161     0FEC  0839               	movf	process_cdc_setup_request@interface^(0+128),w
 11162     0FED  3191  212E  318D   	fcall	_app_send_break_callback
 11163     0FF0  0021               	movlb	1	; select bank1
 11164     0FF1  00AE               	movwf	process_cdc_setup_request@res_931^(0+128)
 11165                           
 11166                           ;../m-stack/usb/src/usb_cdc.c: 296:   if (res < 0)
 11167     0FF2  1BAE               	btfsc	process_cdc_setup_request@res_931^(0+128),7
 11168     0FF3  2DC0               	goto	i1l3739
 11169                           
 11170                           ;../m-stack/usb/src/usb_cdc.c: 300:   usb_send_data_stage(((void*)0), 0, ((void*)0), ((v
      +                          oid*)0));
 11171     0FF4  3000               	movlw	0
 11172     0FF5  0020               	movlb	0	; select bank0
 11173     0FF6  00D8               	movwf	usb_send_data_stage@len
 11174     0FF7  00D9               	movwf	usb_send_data_stage@len+1
 11175     0FF8  3000               	movlw	0
 11176     0FF9  00DA               	movwf	usb_send_data_stage@callback
 11177     0FFA  00DB               	movwf	usb_send_data_stage@callback+1
 11178     0FFB  3000               	movlw	0
 11179     0FFC  00DC               	movwf	usb_send_data_stage@context
 11180     0FFD  00DD               	movwf	usb_send_data_stage@context+1
 11181     0FFE  0103               	clrw
 11182     0FFF  2F8F               	goto	L8
 11183     1000                     __end_of_process_cdc_setup_request:
 11184                           
 11185                           	psect	text52
 11186     1152                     __ptext52:	
 11187 ;; *************** function _usb_start_receive_ep0_data_stage *****************
 11188 ;; Defined at:
 11189 ;;		line 1677 in file "../m-stack/usb/src/usb.c"
 11190 ;; Parameters:    Size  Location     Type
 11191 ;;  buffer          1    wreg     PTR unsigned char 
 11192 ;;		 -> transfer_data(7), 
 11193 ;;  len             2    0[COMMON] unsigned int 
 11194 ;;  callback        2    2[COMMON] PTR FTN(_Bool ,PTR void 
 11195 ;;		 -> set_line_coding(1), set_or_clear_comm_feature_callback(1), 
 11196 ;;  context         2    4[COMMON] PTR void 
 11197 ;;		 -> NULL(0), 
 11198 ;; Auto vars:     Size  Location     Type
 11199 ;;  buffer          1    6[COMMON] PTR unsigned char 
 11200 ;;		 -> transfer_data(7), 
 11201 ;; Return value:  Size  Location     Type
 11202 ;;                  1    wreg      void 
 11203 ;; Registers used:
 11204 ;;		wreg, status,2, status,0, pclath, cstack
 11205 ;; Tracked objects:
 11206 ;;		On entry : 18/6
 11207 ;;		On exit  : 1F/1
 11208 ;;		Unchanged: 0/0
 11209 ;; Data sizes:     COMMON   BANK0   BANK1   BANK2   BANK3   BANK4   BANK5   BANK6   BANK7   BANK8   BANK9  BANK10  BANK1
      +1  BANK12
 11210 ;;      Params:         6       0       0       0       0       0       0       0       0       0       0       0       
      +0       0
 11211 ;;      Locals:         1       0       0       0       0       0       0       0       0       0       0       0       
      +0       0
 11212 ;;      Temps:          0       0       0       0       0       0       0       0       0       0       0       0       
      +0       0
 11213 ;;      Totals:         7       0       0       0       0       0       0       0       0       0       0       0       
      +0       0
 11214 ;;Total ram usage:        7 bytes
 11215 ;; Hardware stack levels used: 1
 11216 ;; Hardware stack levels required when called: 1
 11217 ;; This function calls:
 11218 ;;		i1_reset_ep0_data_stage
 11219 ;; This function is called by:
 11220 ;;		_process_cdc_setup_request
 11221 ;; This function uses a non-reentrant model
 11222 ;;
 11223                           
 11224     1152                     _usb_start_receive_ep0_data_stage:	
 11225                           ;psect for function _usb_start_receive_ep0_data_stage
 11226                           
 11227                           
 11228                           ;incstack = 0
 11229                           ; Regs used in _usb_start_receive_ep0_data_stage: [wreg+status,2+status,0+pclath+cstack]
 11230                           ;usb_start_receive_ep0_data_stage@buffer stored from wreg
 11231     1152  00F6               	movwf	usb_start_receive_ep0_data_stage@buffer
 11232                           
 11233                           ;../m-stack/usb/src/usb.c: 1677: void usb_start_receive_ep0_data_stage(char *buffer, siz
      +                          e_t len,;../m-stack/usb/src/usb.c: 1678:                                       usb_ep0_d
      +                          ata_stage_callback callback, void *context);../m-stack/usb/src/usb.c: 1679: {;../m-stack
      +                          /usb/src/usb.c: 1680:  reset_ep0_data_stage();
 11234     1153  3190  20A0         	fcall	i1_reset_ep0_data_stage
 11235                           
 11236                           ;../m-stack/usb/src/usb.c: 1682:  ep0_data_stage_callback = callback;
 11237     1155  0873               	movf	usb_start_receive_ep0_data_stage@callback+1,w
 11238     1156  00EE               	movwf	_ep0_data_stage_callback+1
 11239     1157  0872               	movf	usb_start_receive_ep0_data_stage@callback,w
 11240     1158  00ED               	movwf	_ep0_data_stage_callback
 11241                           
 11242                           ;../m-stack/usb/src/usb.c: 1683:  ep0_data_stage_out_buffer = buffer;
 11243     1159  0876               	movf	usb_start_receive_ep0_data_stage@buffer,w
 11244     115A  0021               	movlb	1	; select bank1
 11245     115B  00C8               	movwf	_ep0_data_stage_out_buffer^(0+128)
 11246                           
 11247                           ;../m-stack/usb/src/usb.c: 1684:  ep0_data_stage_buf_remaining = len;
 11248     115C  0871               	movf	usb_start_receive_ep0_data_stage@len+1,w
 11249     115D  00C5               	movwf	(_ep0_data_stage_buf_remaining+1)^(0+128)
 11250     115E  0870               	movf	usb_start_receive_ep0_data_stage@len,w
 11251     115F  00C4               	movwf	_ep0_data_stage_buf_remaining^(0+128)
 11252                           
 11253                           ;../m-stack/usb/src/usb.c: 1685:  ep0_data_stage_context = context;
 11254     1160  0875               	movf	usb_start_receive_ep0_data_stage@context+1,w
 11255     1161  00C3               	movwf	(_ep0_data_stage_context+1)^(0+128)
 11256     1162  0874               	movf	usb_start_receive_ep0_data_stage@context,w
 11257     1163  00C2               	movwf	_ep0_data_stage_context^(0+128)
 11258     1164  0008               	return
 11259     1165                     __end_of_usb_start_receive_ep0_data_stage:
 11260                           
 11261                           	psect	text53
 11262     1281                     __ptext53:	
 11263 ;; *************** function _usb_send_data_stage *****************
 11264 ;; Defined at:
 11265 ;;		line 1688 in file "../m-stack/usb/src/usb.c"
 11266 ;; Parameters:    Size  Location     Type
 11267 ;;  buffer          1    wreg     PTR unsigned char 
 11268 ;;		 -> transfer_data(7), NULL(0), 
 11269 ;;  len             2   16[BANK0 ] unsigned int 
 11270 ;;  callback        2   18[BANK0 ] PTR FTN(_Bool ,PTR void 
 11271 ;;		 -> NULL(1), 
 11272 ;;  context         2   20[BANK0 ] PTR void 
 11273 ;;		 -> NULL(0), 
 11274 ;; Auto vars:     Size  Location     Type
 11275 ;;  buffer          1   22[BANK0 ] PTR unsigned char 
 11276 ;;		 -> transfer_data(7), NULL(0), 
 11277 ;; Return value:  Size  Location     Type
 11278 ;;                  1    wreg      void 
 11279 ;; Registers used:
 11280 ;;		wreg, fsr0l, fsr0h, fsr1l, fsr1h, status,2, status,0, pclath, cstack
 11281 ;; Tracked objects:
 11282 ;;		On entry : 1E/1
 11283 ;;		On exit  : 18/0
 11284 ;;		Unchanged: 0/0
 11285 ;; Data sizes:     COMMON   BANK0   BANK1   BANK2   BANK3   BANK4   BANK5   BANK6   BANK7   BANK8   BANK9  BANK10  BANK1
      +1  BANK12
 11286 ;;      Params:         0       6       0       0       0       0       0       0       0       0       0       0       
      +0       0
 11287 ;;      Locals:         0       1       0       0       0       0       0       0       0       0       0       0       
      +0       0
 11288 ;;      Temps:          0       0       0       0       0       0       0       0       0       0       0       0       
      +0       0
 11289 ;;      Totals:         0       7       0       0       0       0       0       0       0       0       0       0       
      +0       0
 11290 ;;Total ram usage:        7 bytes
 11291 ;; Hardware stack levels used: 1
 11292 ;; Hardware stack levels required when called: 4
 11293 ;; This function calls:
 11294 ;;		_start_control_return
 11295 ;; This function is called by:
 11296 ;;		_process_cdc_setup_request
 11297 ;; This function uses a non-reentrant model
 11298 ;;
 11299                           
 11300     1281                     _usb_send_data_stage:	
 11301                           ;psect for function _usb_send_data_stage
 11302                           
 11303                           
 11304                           ;incstack = 0
 11305 ;; hardware stack exceeded
 11306                           ; Regs used in _usb_send_data_stage: [wreg-fsr1h+status,2+status,0+pclath+cstack]
 11307                           ;usb_send_data_stage@buffer stored from wreg
 11308     1281  0020               	movlb	0	; select bank0
 11309     1282  00DE               	movwf	usb_send_data_stage@buffer
 11310                           
 11311                           ;../m-stack/usb/src/usb.c: 1688: void usb_send_data_stage(char *buffer, size_t len,;../m
      +                          -stack/usb/src/usb.c: 1689:  usb_ep0_data_stage_callback callback, void *context);../m-s
      +                          tack/usb/src/usb.c: 1690: {;../m-stack/usb/src/usb.c: 1693:  ep0_data_stage_callback = c
      +                          allback;
 11312     1283  085B               	movf	usb_send_data_stage@callback+1,w
 11313     1284  00EE               	movwf	_ep0_data_stage_callback+1
 11314     1285  085A               	movf	usb_send_data_stage@callback,w
 11315     1286  00ED               	movwf	_ep0_data_stage_callback
 11316                           
 11317                           ;../m-stack/usb/src/usb.c: 1694:  ep0_data_stage_context = context;
 11318     1287  085D               	movf	usb_send_data_stage@context+1,w
 11319     1288  0021               	movlb	1	; select bank1
 11320     1289  00C3               	movwf	(_ep0_data_stage_context+1)^(0+128)
 11321     128A  0020               	movlb	0	; select bank0
 11322     128B  085C               	movf	usb_send_data_stage@context,w
 11323     128C  0021               	movlb	1	; select bank1
 11324     128D  00C2               	movwf	_ep0_data_stage_context^(0+128)
 11325                           
 11326                           ;../m-stack/usb/src/usb.c: 1695:  start_control_return(buffer, len, len);
 11327     128E  0020               	movlb	0	; select bank0
 11328     128F  085E               	movf	usb_send_data_stage@buffer,w
 11329     1290  00C9               	movwf	start_control_return@ptr
 11330     1291  39FF               	andlw	255
 11331     1292  1D03               	skipz
 11332     1293  3003               	movlw	3
 11333     1294  00CA               	movwf	start_control_return@ptr+1
 11334     1295  0859               	movf	usb_send_data_stage@len+1,w
 11335     1296  00CC               	movwf	start_control_return@len+1
 11336     1297  0858               	movf	usb_send_data_stage@len,w
 11337     1298  00CB               	movwf	start_control_return@len
 11338     1299  0859               	movf	usb_send_data_stage@len+1,w
 11339     129A  00CE               	movwf	start_control_return@bytes_asked_for+1
 11340     129B  0858               	movf	usb_send_data_stage@len,w
 11341     129C  00CD               	movwf	start_control_return@bytes_asked_for
 11342     129D  3197  2770         	fcall	_start_control_return
 11343     129F  0008               	return
 11344     12A0                     __end_of_usb_send_data_stage:
 11345                           
 11346                           	psect	text54
 11347     1770                     __ptext54:	
 11348 ;; *************** function _start_control_return *****************
 11349 ;; Defined at:
 11350 ;;		line 841 in file "../m-stack/usb/src/usb.c"
 11351 ;; Parameters:    Size  Location     Type
 11352 ;;  ptr             2    1[BANK0 ] PTR const void 
 11353 ;;		 -> func_serial_string(14), func_prog_string(30), serial_num_string(22), cdc_data_string(38), 
 11354 ;;		 -> cdc_interface_string(28), product_string(24), vendor_string(20), str00(4), 
 11355 ;;		 -> configuration_1(131), transfer_data(7), handle_standard_control_request@ret_617(1), handle_standard_control_requ
      +est@ret_614(2), 
 11356 ;;		 -> handle_standard_control_request@ret(2), this_device_descriptor(18), g_configuration(1), NULL(0), 
 11357 ;;  len             2    3[BANK0 ] unsigned int 
 11358 ;;  bytes_asked_    2    5[BANK0 ] unsigned int 
 11359 ;; Auto vars:     Size  Location     Type
 11360 ;;  bytes_to_sen    1   15[BANK0 ] unsigned char 
 11361 ;; Return value:  Size  Location     Type
 11362 ;;                  1    wreg      void 
 11363 ;; Registers used:
 11364 ;;		wreg, fsr0l, fsr0h, fsr1l, fsr1h, status,2, status,0, pclath, cstack
 11365 ;; Tracked objects:
 11366 ;;		On entry : 1F/0
 11367 ;;		On exit  : 18/0
 11368 ;;		Unchanged: 0/0
 11369 ;; Data sizes:     COMMON   BANK0   BANK1   BANK2   BANK3   BANK4   BANK5   BANK6   BANK7   BANK8   BANK9  BANK10  BANK1
      +1  BANK12
 11370 ;;      Params:         0       6       0       0       0       0       0       0       0       0       0       0       
      +0       0
 11371 ;;      Locals:         0       7       0       0       0       0       0       0       0       0       0       0       
      +0       0
 11372 ;;      Temps:          0       2       0       0       0       0       0       0       0       0       0       0       
      +0       0
 11373 ;;      Totals:         0      15       0       0       0       0       0       0       0       0       0       0       
      +0       0
 11374 ;;Total ram usage:       15 bytes
 11375 ;; Hardware stack levels used: 1
 11376 ;; Hardware stack levels required when called: 3
 11377 ;; This function calls:
 11378 ;;		_usb_send_in_buffer_0
 11379 ;;		i1_memcpy
 11380 ;; This function is called by:
 11381 ;;		_handle_standard_control_request
 11382 ;;		_usb_send_data_stage
 11383 ;; This function uses a non-reentrant model
 11384 ;;
 11385                           
 11386     1770                     _start_control_return:	
 11387                           ;psect for function _start_control_return
 11388                           
 11389                           
 11390                           ;../m-stack/usb/src/usb.c: 841: static void start_control_return(const void *ptr, size_t
      +                           len, size_t bytes_asked_for);../m-stack/usb/src/usb.c: 842: {;../m-stack/usb/src/usb.c:
      +                           843:  uint8_t bytes_to_send = (((len)<(8))?(len):(8));
 11391                           
 11392                           ;incstack = 0
 11393                           ; Regs used in _start_control_return: [wreg-fsr1h+status,2+status,0+pclath+cstack]
 11394     1770  3000               	movlw	0
 11395     1771  024C               	subwf	start_control_return@len+1,w
 11396     1772  3008               	movlw	8
 11397     1773  1903               	skipnz
 11398     1774  024B               	subwf	start_control_return@len,w
 11399     1775  1C03               	skipc
 11400     1776  2F7C               	goto	i1l3453
 11401     1777  3008               	movlw	8
 11402     1778  00D1               	movwf	_start_control_return$571
 11403     1779  3000               	movlw	0
 11404     177A  00D2               	movwf	_start_control_return$571+1
 11405     177B  2F80               	goto	i1l167
 11406     177C                     i1l3453:
 11407     177C  084C               	movf	start_control_return@len+1,w
 11408     177D  00D2               	movwf	_start_control_return$571+1
 11409     177E  084B               	movf	start_control_return@len,w
 11410     177F  00D1               	movwf	_start_control_return$571
 11411     1780                     i1l167:
 11412     1780  0851               	movf	_start_control_return$571,w
 11413     1781  00D7               	movwf	start_control_return@bytes_to_send
 11414                           
 11415                           ;../m-stack/usb/src/usb.c: 844:  bytes_to_send = (((bytes_to_send)<(bytes_asked_for))?(b
      +                          ytes_to_send):(bytes_asked_for));
 11416     1782  0857               	movf	start_control_return@bytes_to_send,w
 11417     1783  00CF               	movwf	??_start_control_return
 11418     1784  01D0               	clrf	??_start_control_return+1
 11419     1785  084E               	movf	start_control_return@bytes_asked_for+1,w
 11420     1786  0250               	subwf	??_start_control_return+1,w
 11421     1787  1D03               	skipz
 11422     1788  2F8B               	goto	u293_25
 11423     1789  084D               	movf	start_control_return@bytes_asked_for,w
 11424     178A  024F               	subwf	??_start_control_return,w
 11425     178B                     u293_25:
 11426     178B  1C03               	skipc
 11427     178C  2F92               	goto	i1l3457
 11428     178D  084E               	movf	start_control_return@bytes_asked_for+1,w
 11429     178E  00D4               	movwf	_start_control_return$572+1
 11430     178F  084D               	movf	start_control_return@bytes_asked_for,w
 11431     1790  00D3               	movwf	_start_control_return$572
 11432     1791  2F99               	goto	i1l171
 11433     1792                     i1l3457:
 11434     1792  0857               	movf	start_control_return@bytes_to_send,w
 11435     1793  00CF               	movwf	??_start_control_return
 11436     1794  01D0               	clrf	??_start_control_return+1
 11437     1795  084F               	movf	??_start_control_return,w
 11438     1796  00D3               	movwf	_start_control_return$572
 11439     1797  0850               	movf	??_start_control_return+1,w
 11440     1798  00D4               	movwf	_start_control_return$572+1
 11441     1799                     i1l171:
 11442     1799  0853               	movf	_start_control_return$572,w
 11443     179A  00D7               	movwf	start_control_return@bytes_to_send
 11444                           
 11445                           ;../m-stack/usb/src/usb.c: 845:  returning_short = len < bytes_asked_for;
 11446     179B  084E               	movf	start_control_return@bytes_asked_for+1,w
 11447     179C  024C               	subwf	start_control_return@len+1,w
 11448     179D  1D03               	skipz
 11449     179E  2FA1               	goto	u294_25
 11450     179F  084D               	movf	start_control_return@bytes_asked_for,w
 11451     17A0  024B               	subwf	start_control_return@len,w
 11452     17A1                     u294_25:
 11453     17A1  1803               	btfsc	3,0
 11454     17A2  2FA5               	goto	u294_20
 11455     17A3  3001               	movlw	1
 11456     17A4  2FA6               	goto	u295_20
 11457     17A5                     u294_20:
 11458     17A5  3000               	movlw	0
 11459     17A6                     u295_20:
 11460     17A6  0021               	movlb	1	; select bank1
 11461     17A7  00C9               	movwf	_returning_short^(0+128)
 11462                           
 11463                           ;../m-stack/usb/src/usb.c: 846:  if (bytes_to_send > 0)
 11464     17A8  0020               	movlb	0	; select bank0
 11465     17A9  0857               	movf	start_control_return@bytes_to_send,w
 11466     17AA  1903               	btfsc	3,2
 11467     17AB  2FC0               	goto	i1l3463
 11468                           
 11469                           ;../m-stack/usb/src/usb.c: 847:   memcpy(ep0_buf.in,ptr,bytes_to_send);;
 11470     17AC  0021               	movlb	1	; select bank1
 11471     17AD  084E               	movf	((_ep0_buf+1)^(0+128)+2),w
 11472     17AE  00F1               	movwf	i1memcpy@d1+1
 11473     17AF  084D               	movf	(_ep0_buf^(0+128)+2),w
 11474     17B0  00F0               	movwf	i1memcpy@d1
 11475     17B1  0020               	movlb	0	; select bank0
 11476     17B2  084A               	movf	start_control_return@ptr+1,w
 11477     17B3  00F3               	movwf	i1memcpy@s1+1
 11478     17B4  0849               	movf	start_control_return@ptr,w
 11479     17B5  00F2               	movwf	i1memcpy@s1
 11480     17B6  0857               	movf	start_control_return@bytes_to_send,w
 11481     17B7  00CF               	movwf	??_start_control_return
 11482     17B8  01D0               	clrf	??_start_control_return+1
 11483     17B9  084F               	movf	??_start_control_return,w
 11484     17BA  00F4               	movwf	i1memcpy@n
 11485     17BB  0850               	movf	??_start_control_return+1,w
 11486     17BC  00F5               	movwf	i1memcpy@n+1
 11487     17BD  3193  2329  3197   	fcall	i1_memcpy
 11488     17C0                     i1l3463:
 11489                           
 11490                           ;../m-stack/usb/src/usb.c: 848:  ep0_data_stage_in_buffer = ((char*)ptr) + bytes_to_send
      +                          ;
 11491     17C0  0857               	movf	start_control_return@bytes_to_send,w
 11492     17C1  00CF               	movwf	??_start_control_return
 11493     17C2  01D0               	clrf	??_start_control_return+1
 11494     17C3  084F               	movf	??_start_control_return,w
 11495     17C4  0749               	addwf	start_control_return@ptr,w
 11496     17C5  0026               	movlb	6	; select bank6
 11497     17C6  00A6               	movwf	_ep0_data_stage_in_buffer^(0+768)
 11498     17C7  0020               	movlb	0	; select bank0
 11499     17C8  0850               	movf	??_start_control_return+1,w
 11500     17C9  3D4A               	addwfc	start_control_return@ptr+1,w
 11501     17CA  0026               	movlb	6	; select bank6
 11502     17CB  00A7               	movwf	(_ep0_data_stage_in_buffer+1)^(0+768)
 11503                           
 11504                           ;../m-stack/usb/src/usb.c: 849:  ep0_data_stage_buf_remaining = (((bytes_asked_for)<(len
      +                          ))?(bytes_asked_for):(len)) - bytes_to_send;
 11505     17CC  0020               	movlb	0	; select bank0
 11506     17CD  084C               	movf	start_control_return@len+1,w
 11507     17CE  024E               	subwf	start_control_return@bytes_asked_for+1,w
 11508     17CF  1D03               	skipz
 11509     17D0  2FD3               	goto	u297_25
 11510     17D1  084B               	movf	start_control_return@len,w
 11511     17D2  024D               	subwf	start_control_return@bytes_asked_for,w
 11512     17D3                     u297_25:
 11513     17D3  1C03               	skipc
 11514     17D4  2FD9               	goto	i1l3469
 11515     17D5  084C               	movf	start_control_return@len+1,w
 11516     17D6  00D6               	movwf	_start_control_return$573+1
 11517     17D7  084B               	movf	start_control_return@len,w
 11518     17D8  2FDC               	goto	L10
 11519     17D9                     i1l3469:
 11520     17D9  084E               	movf	start_control_return@bytes_asked_for+1,w
 11521     17DA  00D6               	movwf	_start_control_return$573+1
 11522     17DB  084D               	movf	start_control_return@bytes_asked_for,w
 11523     17DC                     L10:
 11524     17DC  00D5               	movwf	_start_control_return$573
 11525     17DD  0857               	movf	start_control_return@bytes_to_send,w
 11526     17DE  00CF               	movwf	??_start_control_return
 11527     17DF  01D0               	clrf	??_start_control_return+1
 11528     17E0  084F               	movf	??_start_control_return,w
 11529     17E1  0255               	subwf	_start_control_return$573,w
 11530     17E2  0021               	movlb	1	; select bank1
 11531     17E3  00C4               	movwf	_ep0_data_stage_buf_remaining^(0+128)
 11532     17E4  0020               	movlb	0	; select bank0
 11533     17E5  0850               	movf	??_start_control_return+1,w
 11534     17E6  3B56               	subwfb	_start_control_return$573+1,w
 11535     17E7  0021               	movlb	1	; select bank1
 11536     17E8  00C5               	movwf	(_ep0_data_stage_buf_remaining+1)^(0+128)
 11537                           
 11538                           ;../m-stack/usb/src/usb.c: 850:  if (ep0_data_stage_buf_remaining == 0 && returning_shor
      +                          t)
 11539     17E9  0844               	movf	_ep0_data_stage_buf_remaining^(0+128),w
 11540     17EA  0445               	iorwf	(_ep0_data_stage_buf_remaining+1)^(0+128),w
 11541     17EB  1D03               	btfss	3,2
 11542     17EC  2FF3               	goto	i1l177
 11543     17ED  0849               	movf	_returning_short^(0+128),w
 11544     17EE  1903               	btfsc	3,2
 11545     17EF  2FF3               	goto	i1l177
 11546                           
 11547                           ;../m-stack/usb/src/usb.c: 851:   control_need_zlp = 1;
 11548     17F0  0026               	movlb	6	; select bank6
 11549     17F1  01AF               	clrf	_control_need_zlp^(0+768)
 11550     17F2  0AAF               	incf	_control_need_zlp^(0+768),f
 11551     17F3                     i1l177:
 11552                           
 11553                           ;../m-stack/usb/src/usb.c: 854:  ep0_buf.flags |= 0x8;
 11554     17F3  0021               	movlb	1	; select bank1
 11555     17F4  15CF               	bsf	(_ep0_buf^(0+128)+4),3
 11556                           
 11557                           ;../m-stack/usb/src/usb.c: 855:  usb_send_in_buffer_0(bytes_to_send);
 11558     17F5  0020               	movlb	0	; select bank0
 11559     17F6  0857               	movf	start_control_return@bytes_to_send,w
 11560     17F7  00CF               	movwf	??_start_control_return
 11561     17F8  01D0               	clrf	??_start_control_return+1
 11562     17F9  084F               	movf	??_start_control_return,w
 11563     17FA  00FB               	movwf	usb_send_in_buffer_0@len
 11564     17FB  0850               	movf	??_start_control_return+1,w
 11565     17FC  00FC               	movwf	usb_send_in_buffer_0@len+1
 11566     17FD  3192  22C0         	fcall	_usb_send_in_buffer_0
 11567     17FF  0008               	return
 11568     1800                     __end_of_start_control_return:
 11569                           
 11570                           	psect	text55
 11571     105E                     __ptext55:	
 11572 ;; *************** function _app_set_control_line_state_callback *****************
 11573 ;; Defined at:
 11574 ;;		line 366 in file "../main.c"
 11575 ;; Parameters:    Size  Location     Type
 11576 ;;  interface       1    wreg     unsigned char 
 11577 ;;  dtr             1    0[COMMON] _Bool 
 11578 ;;  dts             1    1[COMMON] _Bool 
 11579 ;; Auto vars:     Size  Location     Type
 11580 ;;  interface       1    0[COMMON] unsigned char 
 11581 ;; Return value:  Size  Location     Type
 11582 ;;                  1    wreg      char 
 11583 ;; Registers used:
 11584 ;;		wreg
 11585 ;; Tracked objects:
 11586 ;;		On entry : 1F/1
 11587 ;;		On exit  : 1F/1
 11588 ;;		Unchanged: 1F/0
 11589 ;; Data sizes:     COMMON   BANK0   BANK1   BANK2   BANK3   BANK4   BANK5   BANK6   BANK7   BANK8   BANK9  BANK10  BANK1
      +1  BANK12
 11590 ;;      Params:         2       0       0       0       0       0       0       0       0       0       0       0       
      +0       0
 11591 ;;      Locals:         0       0       0       0       0       0       0       0       0       0       0       0       
      +0       0
 11592 ;;      Temps:          0       0       0       0       0       0       0       0       0       0       0       0       
      +0       0
 11593 ;;      Totals:         2       0       0       0       0       0       0       0       0       0       0       0       
      +0       0
 11594 ;;Total ram usage:        2 bytes
 11595 ;; Hardware stack levels used: 1
 11596 ;; This function calls:
 11597 ;;		Nothing
 11598 ;; This function is called by:
 11599 ;;		_process_cdc_setup_request
 11600 ;; This function uses a non-reentrant model
 11601 ;;
 11602                           
 11603     105E                     _app_set_control_line_state_callback:	
 11604                           ;psect for function _app_set_control_line_state_callback
 11605                           
 11606                           
 11607                           ;../main.c: 366: int8_t app_set_control_line_state_callback(uint8_t interface,;../main.c
      +                          : 367:                                            _Bool dtr, _Bool dts);../main.c: 368: 
      +                          {;../main.c: 369:     return 0;
 11608                           
 11609                           ;incstack = 0
 11610                           ; Regs used in _app_set_control_line_state_callback: [wreg]
 11611     105E  3000               	movlw	0
 11612     105F  0008               	return
 11613     1060                     __end_of_app_set_control_line_state_callback:
 11614                           
 11615                           	psect	text56
 11616     105C                     __ptext56:	
 11617 ;; *************** function _app_send_encapsulated_command *****************
 11618 ;; Defined at:
 11619 ;;		line 309 in file "../main.c"
 11620 ;; Parameters:    Size  Location     Type
 11621 ;;  interface       1    wreg     unsigned char 
 11622 ;;  length          2    0[COMMON] unsigned short 
 11623 ;; Auto vars:     Size  Location     Type
 11624 ;;  interface       1    0[COMMON] unsigned char 
 11625 ;; Return value:  Size  Location     Type
 11626 ;;                  1    wreg      char 
 11627 ;; Registers used:
 11628 ;;		wreg
 11629 ;; Tracked objects:
 11630 ;;		On entry : 1F/1
 11631 ;;		On exit  : 1F/1
 11632 ;;		Unchanged: 1F/0
 11633 ;; Data sizes:     COMMON   BANK0   BANK1   BANK2   BANK3   BANK4   BANK5   BANK6   BANK7   BANK8   BANK9  BANK10  BANK1
      +1  BANK12
 11634 ;;      Params:         2       0       0       0       0       0       0       0       0       0       0       0       
      +0       0
 11635 ;;      Locals:         0       0       0       0       0       0       0       0       0       0       0       0       
      +0       0
 11636 ;;      Temps:          0       0       0       0       0       0       0       0       0       0       0       0       
      +0       0
 11637 ;;      Totals:         2       0       0       0       0       0       0       0       0       0       0       0       
      +0       0
 11638 ;;Total ram usage:        2 bytes
 11639 ;; Hardware stack levels used: 1
 11640 ;; This function calls:
 11641 ;;		Nothing
 11642 ;; This function is called by:
 11643 ;;		_process_cdc_setup_request
 11644 ;; This function uses a non-reentrant model
 11645 ;;
 11646                           
 11647     105C                     _app_send_encapsulated_command:	
 11648                           ;psect for function _app_send_encapsulated_command
 11649                           
 11650                           
 11651                           ;../main.c: 309: int8_t app_send_encapsulated_command(uint8_t interface, uint16_t length
      +                          );../main.c: 310: {;../main.c: 311:     return -1;
 11652                           
 11653                           ;incstack = 0
 11654                           ; Regs used in _app_send_encapsulated_command: [wreg]
 11655     105C  30FF               	movlw	255
 11656     105D  0008               	return
 11657     105E                     __end_of_app_send_encapsulated_command:
 11658                           
 11659                           	psect	text57
 11660     112E                     __ptext57:	
 11661 ;; *************** function _app_send_break_callback *****************
 11662 ;; Defined at:
 11663 ;;		line 372 in file "../main.c"
 11664 ;; Parameters:    Size  Location     Type
 11665 ;;  interface       1    wreg     unsigned char 
 11666 ;;  duration        2    0[COMMON] unsigned short 
 11667 ;; Auto vars:     Size  Location     Type
 11668 ;;  interface       1    2[COMMON] unsigned char 
 11669 ;; Return value:  Size  Location     Type
 11670 ;;                  1    wreg      char 
 11671 ;; Registers used:
 11672 ;;		wreg, status,2, status,0
 11673 ;; Tracked objects:
 11674 ;;		On entry : 1F/1
 11675 ;;		On exit  : 1D/1
 11676 ;;		Unchanged: 0/0
 11677 ;; Data sizes:     COMMON   BANK0   BANK1   BANK2   BANK3   BANK4   BANK5   BANK6   BANK7   BANK8   BANK9  BANK10  BANK1
      +1  BANK12
 11678 ;;      Params:         2       0       0       0       0       0       0       0       0       0       0       0       
      +0       0
 11679 ;;      Locals:         1       0       0       0       0       0       0       0       0       0       0       0       
      +0       0
 11680 ;;      Temps:          0       0       0       0       0       0       0       0       0       0       0       0       
      +0       0
 11681 ;;      Totals:         3       0       0       0       0       0       0       0       0       0       0       0       
      +0       0
 11682 ;;Total ram usage:        3 bytes
 11683 ;; Hardware stack levels used: 1
 11684 ;; This function calls:
 11685 ;;		Nothing
 11686 ;; This function is called by:
 11687 ;;		_process_cdc_setup_request
 11688 ;; This function uses a non-reentrant model
 11689 ;;
 11690                           
 11691     112E                     _app_send_break_callback:	
 11692                           ;psect for function _app_send_break_callback
 11693                           
 11694                           
 11695                           ;incstack = 0
 11696                           ; Regs used in _app_send_break_callback: [wreg+status,2+status,0]
 11697                           ;app_send_break_callback@interface stored from wreg
 11698     112E  00F2               	movwf	app_send_break_callback@interface
 11699                           
 11700                           ;../main.c: 372: int8_t app_send_break_callback(uint8_t interface, uint16_t duration);..
      +                          /main.c: 373: {;../main.c: 381:     if (interface == 2 && duration != 0) {
 11701     112F  3002               	movlw	2
 11702     1130  0672               	xorwf	app_send_break_callback@interface,w
 11703     1131  1D03               	btfss	3,2
 11704     1132  293E               	goto	i1l3569
 11705     1133  0870               	movf	app_send_break_callback@duration,w
 11706     1134  0471               	iorwf	app_send_break_callback@duration+1,w
 11707     1135  1903               	btfsc	3,2
 11708     1136  293E               	goto	i1l3569
 11709                           
 11710                           ;../main.c: 389:         SENDB = 1;
 11711     1137  0023               	movlb	3	; select bank3
 11712     1138  159E               	bsf	30,3	;volatile
 11713     1139                     i1l727:	
 11714                           ;../main.c: 391:             ;
 11715                           
 11716                           
 11717                           ;../main.c: 390:         while (!PIR1bits.TXIF)
 11718     1139  0020               	movlb	0	; select bank0
 11719     113A  1E11               	btfss	17,4	;volatile
 11720     113B  2939               	goto	i1l727
 11721                           
 11722                           ;../main.c: 392:         TXREG = 0x00;
 11723     113C  0023               	movlb	3	; select bank3
 11724     113D  019A               	clrf	26	;volatile
 11725     113E                     i1l3569:
 11726                           
 11727                           ;../main.c: 394:     return 0;
 11728     113E  3000               	movlw	0
 11729     113F  0008               	return
 11730     1140                     __end_of_app_send_break_callback:
 11731                           
 11732                           	psect	text58
 11733     110E                     __ptext58:	
 11734 ;; *************** function _app_get_line_coding_callback *****************
 11735 ;; Defined at:
 11736 ;;		line 358 in file "../main.c"
 11737 ;; Parameters:    Size  Location     Type
 11738 ;;  interface       1    wreg     unsigned char 
 11739 ;;  coding          1    0[COMMON] PTR struct cdc_line_codi
 11740 ;;		 -> transfer_data(7), 
 11741 ;; Auto vars:     Size  Location     Type
 11742 ;;  interface       1    0[COMMON] unsigned char 
 11743 ;; Return value:  Size  Location     Type
 11744 ;;                  1    wreg      char 
 11745 ;; Registers used:
 11746 ;;		wreg, fsr0l, fsr0h, fsr1l, fsr1h, status,2, status,0
 11747 ;; Tracked objects:
 11748 ;;		On entry : 1F/1
 11749 ;;		On exit  : 1F/1
 11750 ;;		Unchanged: 1F/0
 11751 ;; Data sizes:     COMMON   BANK0   BANK1   BANK2   BANK3   BANK4   BANK5   BANK6   BANK7   BANK8   BANK9  BANK10  BANK1
      +1  BANK12
 11752 ;;      Params:         1       0       0       0       0       0       0       0       0       0       0       0       
      +0       0
 11753 ;;      Locals:         0       0       0       0       0       0       0       0       0       0       0       0       
      +0       0
 11754 ;;      Temps:          1       0       0       0       0       0       0       0       0       0       0       0       
      +0       0
 11755 ;;      Totals:         2       0       0       0       0       0       0       0       0       0       0       0       
      +0       0
 11756 ;;Total ram usage:        2 bytes
 11757 ;; Hardware stack levels used: 1
 11758 ;; This function calls:
 11759 ;;		Nothing
 11760 ;; This function is called by:
 11761 ;;		_process_cdc_setup_request
 11762 ;; This function uses a non-reentrant model
 11763 ;;
 11764                           
 11765     110E                     _app_get_line_coding_callback:	
 11766                           ;psect for function _app_get_line_coding_callback
 11767                           
 11768                           
 11769                           ;../main.c: 358: int8_t app_get_line_coding_callback(uint8_t interface,;../main.c: 359: 
      +                                                              struct cdc_line_coding *coding);../main.c: 360: {;..
      +                          /main.c: 362:     *coding = line_coding;
 11770                           
 11771                           ;incstack = 0
 11772                           ; Regs used in _app_get_line_coding_callback: [wreg-fsr1h+status,2+status,0]
 11773     110E  3060               	movlw	low _line_coding
 11774     110F  0086               	movwf	6
 11775     1110  3003               	movlw	high _line_coding
 11776     1111  0087               	movwf	7
 11777     1112  0870               	movf	app_get_line_coding_callback@coding,w
 11778     1113  0084               	movwf	4
 11779     1114  3003               	movlw	3	; select bank6/7
 11780     1115  0085               	movwf	5
 11781     1116  3007               	movlw	7
 11782     1117  00F1               	movwf	??_app_get_line_coding_callback
 11783     1118                     u312_20:
 11784     1118  0016               	moviw fsr1++
 11785     1119  001A               	movwi fsr0++
 11786     111A  0BF1               	decfsz	??_app_get_line_coding_callback,f
 11787     111B  2918               	goto	u312_20
 11788                           
 11789                           ;../main.c: 363:     return 0;
 11790     111C  3000               	movlw	0
 11791     111D  0008               	return
 11792     111E                     __end_of_app_get_line_coding_callback:
 11793                           
 11794                           	psect	text59
 11795     1065                     __ptext59:	
 11796 ;; *************** function _app_get_encapsulated_response *****************
 11797 ;; Defined at:
 11798 ;;		line 314 in file "../main.c"
 11799 ;; Parameters:    Size  Location     Type
 11800 ;;  interface       1    wreg     unsigned char 
 11801 ;;  length          2    0[COMMON] unsigned short 
 11802 ;;  report          1    2[COMMON] PTR PTR const void 
 11803 ;;		 -> process_cdc_setup_request@response(2), 
 11804 ;;  callback        1    3[COMMON] PTR PTR FTN(_Bool ,PTR v
 11805 ;;		 -> process_cdc_setup_request@callback(2), 
 11806 ;;  context         1    4[COMMON] PTR PTR void 
 11807 ;;		 -> process_cdc_setup_request@context(2), 
 11808 ;; Auto vars:     Size  Location     Type
 11809 ;;  interface       1    0[COMMON] unsigned char 
 11810 ;; Return value:  Size  Location     Type
 11811 ;;                  2    0[COMMON] short 
 11812 ;; Registers used:
 11813 ;;		wreg
 11814 ;; Tracked objects:
 11815 ;;		On entry : 1F/1
 11816 ;;		On exit  : 1F/1
 11817 ;;		Unchanged: 1F/0
 11818 ;; Data sizes:     COMMON   BANK0   BANK1   BANK2   BANK3   BANK4   BANK5   BANK6   BANK7   BANK8   BANK9  BANK10  BANK1
      +1  BANK12
 11819 ;;      Params:         5       0       0       0       0       0       0       0       0       0       0       0       
      +0       0
 11820 ;;      Locals:         0       0       0       0       0       0       0       0       0       0       0       0       
      +0       0
 11821 ;;      Temps:          0       0       0       0       0       0       0       0       0       0       0       0       
      +0       0
 11822 ;;      Totals:         5       0       0       0       0       0       0       0       0       0       0       0       
      +0       0
 11823 ;;Total ram usage:        5 bytes
 11824 ;; Hardware stack levels used: 1
 11825 ;; This function calls:
 11826 ;;		Nothing
 11827 ;; This function is called by:
 11828 ;;		_process_cdc_setup_request
 11829 ;; This function uses a non-reentrant model
 11830 ;;
 11831                           
 11832     1065                     _app_get_encapsulated_response:	
 11833                           ;psect for function _app_get_encapsulated_response
 11834                           
 11835                           
 11836                           ;../main.c: 314: int16_t app_get_encapsulated_response(uint8_t interface,;../main.c: 315
      +                          :                                       uint16_t length, const void **report,;../main.c:
      +                           316:                                       usb_ep0_data_stage_callback *callback,;../ma
      +                          in.c: 317:                                       void **context);../main.c: 318: {;../ma
      +                          in.c: 319:     return -1;
 11837                           
 11838                           ;incstack = 0
 11839                           ; Regs used in _app_get_encapsulated_response: [wreg]
 11840     1065  30FF               	movlw	255
 11841     1066  00F0               	movwf	?_app_get_encapsulated_response
 11842     1067  30FF               	movlw	255
 11843     1068  00F1               	movwf	?_app_get_encapsulated_response+1
 11844     1069  0008               	return
 11845     106A                     __end_of_app_get_encapsulated_response:
 11846                           
 11847                           	psect	text60
 11848     105A                     __ptext60:	
 11849 ;; *************** function _app_get_comm_feature_callback *****************
 11850 ;; Defined at:
 11851 ;;		line 336 in file "../main.c"
 11852 ;; Parameters:    Size  Location     Type
 11853 ;;  interface       1    wreg     unsigned char 
 11854 ;;  idle_setting    1    0[COMMON] PTR _Bool 
 11855 ;;		 -> process_cdc_setup_request@idle_setting(1), 
 11856 ;;  data_multipl    1    1[COMMON] PTR _Bool 
 11857 ;;		 -> process_cdc_setup_request@data_multiplexed_state(1), 
 11858 ;; Auto vars:     Size  Location     Type
 11859 ;;  interface       1    0[COMMON] unsigned char 
 11860 ;; Return value:  Size  Location     Type
 11861 ;;                  1    wreg      char 
 11862 ;; Registers used:
 11863 ;;		wreg
 11864 ;; Tracked objects:
 11865 ;;		On entry : 1F/1
 11866 ;;		On exit  : 1F/1
 11867 ;;		Unchanged: 1F/0
 11868 ;; Data sizes:     COMMON   BANK0   BANK1   BANK2   BANK3   BANK4   BANK5   BANK6   BANK7   BANK8   BANK9  BANK10  BANK1
      +1  BANK12
 11869 ;;      Params:         2       0       0       0       0       0       0       0       0       0       0       0       
      +0       0
 11870 ;;      Locals:         0       0       0       0       0       0       0       0       0       0       0       0       
      +0       0
 11871 ;;      Temps:          0       0       0       0       0       0       0       0       0       0       0       0       
      +0       0
 11872 ;;      Totals:         2       0       0       0       0       0       0       0       0       0       0       0       
      +0       0
 11873 ;;Total ram usage:        2 bytes
 11874 ;; Hardware stack levels used: 1
 11875 ;; This function calls:
 11876 ;;		Nothing
 11877 ;; This function is called by:
 11878 ;;		_process_cdc_setup_request
 11879 ;; This function uses a non-reentrant model
 11880 ;;
 11881                           
 11882     105A                     _app_get_comm_feature_callback:	
 11883                           ;psect for function _app_get_comm_feature_callback
 11884                           
 11885                           
 11886                           ;../main.c: 336: int8_t app_get_comm_feature_callback(uint8_t interface,;../main.c: 337:
      +                                                                _Bool *idle_setting,;../main.c: 338:              
      +                                                  _Bool *data_multiplexed_state);../main.c: 339: {;../main.c: 340:
      +                               return -1;
 11887                           
 11888                           ;incstack = 0
 11889                           ; Regs used in _app_get_comm_feature_callback: [wreg]
 11890     105A  30FF               	movlw	255
 11891     105B  0008               	return
 11892     105C                     __end_of_app_get_comm_feature_callback:
 11893                           
 11894                           	psect	text61
 11895     08B7                     __ptext61:	
 11896 ;; *************** function _handle_ep0_out *****************
 11897 ;; Defined at:
 11898 ;;		line 1269 in file "../m-stack/usb/src/usb.c"
 11899 ;; Parameters:    Size  Location     Type
 11900 ;;		None
 11901 ;; Auto vars:     Size  Location     Type
 11902 ;;  res             1    2[BANK0 ] char 
 11903 ;;  bytes_to_cop    1    4[BANK0 ] unsigned char 
 11904 ;;  pkt_len         1    3[BANK0 ] unsigned char 
 11905 ;; Return value:  Size  Location     Type
 11906 ;;                  1    wreg      void 
 11907 ;; Registers used:
 11908 ;;		wreg, fsr0l, fsr0h, fsr1l, fsr1h, status,2, status,0, pclath, cstack
 11909 ;; Tracked objects:
 11910 ;;		On entry : 1F/1
 11911 ;;		On exit  : 1E/0
 11912 ;;		Unchanged: 0/0
 11913 ;; Data sizes:     COMMON   BANK0   BANK1   BANK2   BANK3   BANK4   BANK5   BANK6   BANK7   BANK8   BANK9  BANK10  BANK1
      +1  BANK12
 11914 ;;      Params:         0       0       0       0       0       0       0       0       0       0       0       0       
      +0       0
 11915 ;;      Locals:         0       5       0       0       0       0       0       0       0       0       0       0       
      +0       0
 11916 ;;      Temps:          2       0       0       0       0       0       0       0       0       0       0       0       
      +0       0
 11917 ;;      Totals:         2       5       0       0       0       0       0       0       0       0       0       0       
      +0       0
 11918 ;;Total ram usage:        7 bytes
 11919 ;; Hardware stack levels used: 1
 11920 ;; Hardware stack levels required when called: 2
 11921 ;; This function calls:
 11922 ;;		NULL
 11923 ;;		_send_zero_length_packet_ep0
 11924 ;;		_set_line_coding
 11925 ;;		_set_or_clear_comm_feature_callback
 11926 ;;		_stall_ep0
 11927 ;;		i1_memcpy
 11928 ;;		i1_reset_ep0_data_stage
 11929 ;; This function is called by:
 11930 ;;		_usb_service
 11931 ;; This function uses a non-reentrant model
 11932 ;;
 11933                           
 11934     08B7                     _handle_ep0_out:	
 11935                           ;psect for function _handle_ep0_out
 11936                           
 11937                           
 11938                           ;../m-stack/usb/src/usb.c: 1274:  uint8_t pkt_len = (bds[0].BDnCNT);
 11939                           
 11940                           ;incstack = 0
 11941                           ; Regs used in _handle_ep0_out: [wreg-fsr1h+status,2+status,0+pclath+cstack]
 11942     08B7  0020               	movlb	0	; select bank0
 11943     08B8  0821               	movf	33,w
 11944     08B9  00CB               	movwf	handle_ep0_out@pkt_len
 11945                           
 11946                           ;../m-stack/usb/src/usb.c: 1276:  if (ep0_data_stage_direc == 1 ) {
 11947     08BA  0021               	movlb	1	; select bank1
 11948     08BB  0347               	decf	_ep0_data_stage_direc^(0+128),w
 11949     08BC  1D03               	btfss	3,2
 11950     08BD  28D3               	goto	i1l4357
 11951                           
 11952                           ;../m-stack/usb/src/usb.c: 1282:   if (ep0_data_stage_callback)
 11953     08BE  0020               	movlb	0	; select bank0
 11954     08BF  086D               	movf	_ep0_data_stage_callback,w
 11955     08C0  046E               	iorwf	_ep0_data_stage_callback+1,w
 11956     08C1  1903               	btfsc	3,2
 11957     08C2  28D0               	goto	i1l4355
 11958                           
 11959                           ;../m-stack/usb/src/usb.c: 1283:    ep0_data_stage_callback(1 , ep0_data_stage_context);
 11960     08C3  01F2               	clrf	set_line_coding@transfer_ok
 11961     08C4  0AF2               	incf	set_line_coding@transfer_ok,f
 11962     08C5  0021               	movlb	1	; select bank1
 11963     08C6  0843               	movf	(_ep0_data_stage_context+1)^(0+128),w
 11964     08C7  00F4               	movwf	set_line_coding@context+1
 11965     08C8  0842               	movf	_ep0_data_stage_context^(0+128),w
 11966     08C9  00F3               	movwf	set_line_coding@context
 11967     08CA  0020               	movlb	0	; select bank0
 11968     08CB  086E               	movf	_ep0_data_stage_callback+1,w
 11969     08CC  008A               	movwf	10
 11970     08CD  086D               	movf	_ep0_data_stage_callback,w
 11971     08CE  000A               	callw
 11972     08CF  3188               	pagesel	$
 11973     08D0                     i1l4355:
 11974                           
 11975                           ;../m-stack/usb/src/usb.c: 1284:   reset_ep0_data_stage();
 11976     08D0  3190  20A0         	fcall	i1_reset_ep0_data_stage
 11977                           
 11978                           ;../m-stack/usb/src/usb.c: 1285:  }
 11979     08D2  0008               	return
 11980     08D3                     i1l4357:
 11981                           
 11982                           ;../m-stack/usb/src/usb.c: 1294:   if (ep0_data_stage_out_buffer) {
 11983     08D3  0848               	movf	_ep0_data_stage_out_buffer^(0+128),w
 11984     08D4  1903               	btfsc	3,2
 11985     08D5  0008               	return
 11986                           
 11987                           ;../m-stack/usb/src/usb.c: 1295:    uint8_t bytes_to_copy = (((pkt_len)<(ep0_data_stage_
      +                          buf_remaining))?(pkt_len):(ep0_data_stage_buf_remaining));
 11988     08D6  0020               	movlb	0	; select bank0
 11989     08D7  084B               	movf	handle_ep0_out@pkt_len,w
 11990     08D8  00FB               	movwf	??_handle_ep0_out
 11991     08D9  01FC               	clrf	??_handle_ep0_out+1
 11992     08DA  0021               	movlb	1	; select bank1
 11993     08DB  0845               	movf	(_ep0_data_stage_buf_remaining+1)^(0+128),w
 11994     08DC  027C               	subwf	??_handle_ep0_out+1,w
 11995     08DD  1D03               	skipz
 11996     08DE  28E1               	goto	u448_25
 11997     08DF  0844               	movf	_ep0_data_stage_buf_remaining^(0+128),w
 11998     08E0  027B               	subwf	??_handle_ep0_out,w
 11999     08E1                     u448_25:
 12000     08E1  1C03               	skipc
 12001     08E2  28EB               	goto	i1l4363
 12002     08E3  0845               	movf	(_ep0_data_stage_buf_remaining+1)^(0+128),w
 12003     08E4  0020               	movlb	0	; select bank0
 12004     08E5  00C9               	movwf	_handle_ep0_out$655+1
 12005     08E6  0021               	movlb	1	; select bank1
 12006     08E7  0844               	movf	_ep0_data_stage_buf_remaining^(0+128),w
 12007     08E8  0020               	movlb	0	; select bank0
 12008     08E9  00C8               	movwf	_handle_ep0_out$655
 12009     08EA  28F3               	goto	i1l266
 12010     08EB                     i1l4363:
 12011     08EB  0020               	movlb	0	; select bank0
 12012     08EC  084B               	movf	handle_ep0_out@pkt_len,w
 12013     08ED  00FB               	movwf	??_handle_ep0_out
 12014     08EE  01FC               	clrf	??_handle_ep0_out+1
 12015     08EF  087B               	movf	??_handle_ep0_out,w
 12016     08F0  00C8               	movwf	_handle_ep0_out$655
 12017     08F1  087C               	movf	??_handle_ep0_out+1,w
 12018     08F2  00C9               	movwf	_handle_ep0_out$655+1
 12019     08F3                     i1l266:
 12020     08F3  0848               	movf	_handle_ep0_out$655,w
 12021     08F4  00CC               	movwf	handle_ep0_out@bytes_to_copy
 12022                           
 12023                           ;../m-stack/usb/src/usb.c: 1302:    memcpy(ep0_data_stage_out_buffer, ep0_buf.out, bytes
      +                          _to_copy);
 12024     08F5  0021               	movlb	1	; select bank1
 12025     08F6  0848               	movf	_ep0_data_stage_out_buffer^(0+128),w
 12026     08F7  00F0               	movwf	i1memcpy@d1
 12027     08F8  39FF               	andlw	255
 12028     08F9  1D03               	skipz
 12029     08FA  3003               	movlw	3
 12030     08FB  00F1               	movwf	i1memcpy@d1+1
 12031     08FC  084C               	movf	(_ep0_buf+1)^(0+128),w
 12032     08FD  00F3               	movwf	i1memcpy@s1+1
 12033     08FE  084B               	movf	_ep0_buf^(0+128),w
 12034     08FF  00F2               	movwf	i1memcpy@s1
 12035     0900  0020               	movlb	0	; select bank0
 12036     0901  084C               	movf	handle_ep0_out@bytes_to_copy,w
 12037     0902  00FB               	movwf	??_handle_ep0_out
 12038     0903  01FC               	clrf	??_handle_ep0_out+1
 12039     0904  087B               	movf	??_handle_ep0_out,w
 12040     0905  00F4               	movwf	i1memcpy@n
 12041     0906  087C               	movf	??_handle_ep0_out+1,w
 12042     0907  00F5               	movwf	i1memcpy@n+1
 12043     0908  3193  2329  3188   	fcall	i1_memcpy
 12044                           
 12045                           ;../m-stack/usb/src/usb.c: 1304:    ep0_data_stage_out_buffer += bytes_to_copy;
 12046     090B  084C               	movf	handle_ep0_out@bytes_to_copy,w
 12047     090C  00FB               	movwf	??_handle_ep0_out
 12048     090D  087B               	movf	??_handle_ep0_out,w
 12049     090E  0021               	movlb	1	; select bank1
 12050     090F  07C8               	addwf	_ep0_data_stage_out_buffer^(0+128),f
 12051                           
 12052                           ;../m-stack/usb/src/usb.c: 1305:    ep0_data_stage_buf_remaining -= bytes_to_copy;
 12053     0910  0020               	movlb	0	; select bank0
 12054     0911  084C               	movf	handle_ep0_out@bytes_to_copy,w
 12055     0912  00FB               	movwf	??_handle_ep0_out
 12056     0913  01FC               	clrf	??_handle_ep0_out+1
 12057     0914  087B               	movf	??_handle_ep0_out,w
 12058     0915  0021               	movlb	1	; select bank1
 12059     0916  02C4               	subwf	_ep0_data_stage_buf_remaining^(0+128),f
 12060     0917  087C               	movf	??_handle_ep0_out+1,w
 12061     0918  3BC5               	subwfb	(_ep0_data_stage_buf_remaining+1)^(0+128),f
 12062                           
 12063                           ;../m-stack/usb/src/usb.c: 1310:    if (pkt_len < 8 || ep0_data_stage_buf_remaining == 0
      +                          ) {
 12064     0919  3008               	movlw	8
 12065     091A  0020               	movlb	0	; select bank0
 12066     091B  024B               	subwf	handle_ep0_out@pkt_len,w
 12067     091C  1C03               	skipc
 12068     091D  2923               	goto	i1l4375
 12069     091E  0021               	movlb	1	; select bank1
 12070     091F  0844               	movf	_ep0_data_stage_buf_remaining^(0+128),w
 12071     0920  0445               	iorwf	(_ep0_data_stage_buf_remaining+1)^(0+128),w
 12072     0921  1D03               	btfss	3,2
 12073     0922  0008               	return
 12074     0923                     i1l4375:
 12075                           
 12076                           ;../m-stack/usb/src/usb.c: 1315:     if (bytes_to_copy < pkt_len) {
 12077     0923  0020               	movlb	0	; select bank0
 12078     0924  084B               	movf	handle_ep0_out@pkt_len,w
 12079     0925  024C               	subwf	handle_ep0_out@bytes_to_copy,w
 12080     0926  1803               	skipnc
 12081     0927  293C               	goto	i1l4385
 12082                           
 12083                           ;../m-stack/usb/src/usb.c: 1317:      stall_ep0();
 12084     0928  3190  2084  3188   	fcall	_stall_ep0
 12085                           
 12086                           ;../m-stack/usb/src/usb.c: 1318:      if (ep0_data_stage_callback)
 12087     092B  086D               	movf	_ep0_data_stage_callback,w
 12088     092C  046E               	iorwf	_ep0_data_stage_callback+1,w
 12089     092D  1903               	btfsc	3,2
 12090     092E  28D0               	goto	i1l4355
 12091                           
 12092                           ;../m-stack/usb/src/usb.c: 1319:       ep0_data_stage_callback(0 , ep0_data_stage_contex
      +                          t);
 12093     092F  01F2               	clrf	set_line_coding@transfer_ok
 12094     0930  0021               	movlb	1	; select bank1
 12095     0931  0843               	movf	(_ep0_data_stage_context+1)^(0+128),w
 12096     0932  00F4               	movwf	set_line_coding@context+1
 12097     0933  0842               	movf	_ep0_data_stage_context^(0+128),w
 12098     0934  00F3               	movwf	set_line_coding@context
 12099     0935  0020               	movlb	0	; select bank0
 12100     0936  086E               	movf	_ep0_data_stage_callback+1,w
 12101     0937  008A               	movwf	10
 12102     0938  086D               	movf	_ep0_data_stage_callback,w
 12103     0939  000A               	callw
 12104     093A  3188               	pagesel	$
 12105     093B  28D0               	goto	i1l4355
 12106     093C                     i1l4385:
 12107                           
 12108                           ;../m-stack/usb/src/usb.c: 1326:      int8_t res = 0;
 12109     093C  01CA               	clrf	handle_ep0_out@res
 12110                           
 12111                           ;../m-stack/usb/src/usb.c: 1328:      if (ep0_data_stage_callback)
 12112     093D  086D               	movf	_ep0_data_stage_callback,w
 12113     093E  046E               	iorwf	_ep0_data_stage_callback+1,w
 12114     093F  1903               	btfsc	3,2
 12115     0940  2950               	goto	i1l4391
 12116                           
 12117                           ;../m-stack/usb/src/usb.c: 1329:       res = ep0_data_stage_callback(1 , ep0_data_stage_
      +                          context);
 12118     0941  01F2               	clrf	set_line_coding@transfer_ok
 12119     0942  0AF2               	incf	set_line_coding@transfer_ok,f
 12120     0943  0021               	movlb	1	; select bank1
 12121     0944  0843               	movf	(_ep0_data_stage_context+1)^(0+128),w
 12122     0945  00F4               	movwf	set_line_coding@context+1
 12123     0946  0842               	movf	_ep0_data_stage_context^(0+128),w
 12124     0947  00F3               	movwf	set_line_coding@context
 12125     0948  0020               	movlb	0	; select bank0
 12126     0949  086E               	movf	_ep0_data_stage_callback+1,w
 12127     094A  008A               	movwf	10
 12128     094B  086D               	movf	_ep0_data_stage_callback,w
 12129     094C  000A               	callw
 12130     094D  3188               	pagesel	$
 12131     094E  0020               	movlb	0	; select bank0
 12132     094F  00CA               	movwf	handle_ep0_out@res
 12133     0950                     i1l4391:
 12134                           
 12135                           ;../m-stack/usb/src/usb.c: 1331:      if (res < 0) {
 12136     0950  1FCA               	btfss	handle_ep0_out@res,7
 12137     0951  2956               	goto	i1l4395
 12138                           
 12139                           ;../m-stack/usb/src/usb.c: 1334:       stall_ep0();
 12140     0952  3190  2084  3188   	fcall	_stall_ep0
 12141                           
 12142                           ;../m-stack/usb/src/usb.c: 1335:      }
 12143     0955  2958               	goto	i1l4397
 12144     0956                     i1l4395:
 12145                           
 12146                           ;../m-stack/usb/src/usb.c: 1339:       send_zero_length_packet_ep0();
 12147     0956  3190  207E         	fcall	_send_zero_length_packet_ep0
 12148     0958                     i1l4397:
 12149                           
 12150                           ;../m-stack/usb/src/usb.c: 1345:      ep0_data_stage_callback = ((void*)0);
 12151     0958  01ED               	clrf	_ep0_data_stage_callback
 12152     0959  01EE               	clrf	_ep0_data_stage_callback+1
 12153     095A  0008               	return
 12154     095B                     __end_of_handle_ep0_out:
 12155                           
 12156                           	psect	text62
 12157     1084                     __ptext62:	
 12158 ;; *************** function _stall_ep0 *****************
 12159 ;; Defined at:
 12160 ;;		line 704 in file "../m-stack/usb/src/usb.c"
 12161 ;; Parameters:    Size  Location     Type
 12162 ;;		None
 12163 ;; Auto vars:     Size  Location     Type
 12164 ;;		None
 12165 ;; Return value:  Size  Location     Type
 12166 ;;                  1    wreg      void 
 12167 ;; Registers used:
 12168 ;;		wreg
 12169 ;; Tracked objects:
 12170 ;;		On entry : 1E/1
 12171 ;;		On exit  : 1F/0
 12172 ;;		Unchanged: 0/0
 12173 ;; Data sizes:     COMMON   BANK0   BANK1   BANK2   BANK3   BANK4   BANK5   BANK6   BANK7   BANK8   BANK9  BANK10  BANK1
      +1  BANK12
 12174 ;;      Params:         0       0       0       0       0       0       0       0       0       0       0       0       
      +0       0
 12175 ;;      Locals:         0       0       0       0       0       0       0       0       0       0       0       0       
      +0       0
 12176 ;;      Temps:          0       0       0       0       0       0       0       0       0       0       0       0       
      +0       0
 12177 ;;      Totals:         0       0       0       0       0       0       0       0       0       0       0       0       
      +0       0
 12178 ;;Total ram usage:        0 bytes
 12179 ;; Hardware stack levels used: 1
 12180 ;; This function calls:
 12181 ;;		Nothing
 12182 ;; This function is called by:
 12183 ;;		_handle_standard_control_request
 12184 ;;		_handle_ep0_setup
 12185 ;;		_handle_ep0_out
 12186 ;;		_usb_service
 12187 ;; This function uses a non-reentrant model
 12188 ;;
 12189                           
 12190     1084                     _stall_ep0:	
 12191                           ;psect for function _stall_ep0
 12192                           
 12193                           
 12194                           ;incstack = 0
 12195                           ; Regs used in _stall_ep0: [wreg]
 12196                           ;../m-stack/usb/src/usb.c: 712:  do { (bds[1]).BDnCNT = (8); (bds[1]).STAT.BDnSTAT = (0x
      +                          80|0x04); } while(0);
 12197     1084  3008               	movlw	8
 12198     1085  0020               	movlb	0	; select bank0
 12199     1086  00A5               	movwf	37
 12200     1087  3084               	movlw	132
 12201     1088  00A4               	movwf	36
 12202     1089  0008               	return
 12203     108A                     __end_of_stall_ep0:
 12204                           
 12205                           	psect	text63
 12206     107E                     __ptext63:	
 12207 ;; *************** function _send_zero_length_packet_ep0 *****************
 12208 ;; Defined at:
 12209 ;;		line 757 in file "../m-stack/usb/src/usb.c"
 12210 ;; Parameters:    Size  Location     Type
 12211 ;;		None
 12212 ;; Auto vars:     Size  Location     Type
 12213 ;;		None
 12214 ;; Return value:  Size  Location     Type
 12215 ;;                  1    wreg      void 
 12216 ;; Registers used:
 12217 ;;		wreg, status,2
 12218 ;; Tracked objects:
 12219 ;;		On entry : 0/6
 12220 ;;		On exit  : 1F/0
 12221 ;;		Unchanged: 0/0
 12222 ;; Data sizes:     COMMON   BANK0   BANK1   BANK2   BANK3   BANK4   BANK5   BANK6   BANK7   BANK8   BANK9  BANK10  BANK1
      +1  BANK12
 12223 ;;      Params:         0       0       0       0       0       0       0       0       0       0       0       0       
      +0       0
 12224 ;;      Locals:         0       0       0       0       0       0       0       0       0       0       0       0       
      +0       0
 12225 ;;      Temps:          0       0       0       0       0       0       0       0       0       0       0       0       
      +0       0
 12226 ;;      Totals:         0       0       0       0       0       0       0       0       0       0       0       0       
      +0       0
 12227 ;;Total ram usage:        0 bytes
 12228 ;; Hardware stack levels used: 1
 12229 ;; This function calls:
 12230 ;;		Nothing
 12231 ;; This function is called by:
 12232 ;;		_handle_standard_control_request
 12233 ;;		_handle_ep0_out
 12234 ;; This function uses a non-reentrant model
 12235 ;;
 12236                           
 12237     107E                     _send_zero_length_packet_ep0:	
 12238                           ;psect for function _send_zero_length_packet_ep0
 12239                           
 12240                           
 12241                           ;../m-stack/usb/src/usb.c: 765:  bds[1].STAT.BDnSTAT = 0;
 12242                           
 12243                           ;incstack = 0
 12244                           ; Regs used in _send_zero_length_packet_ep0: [wreg+status,2]
 12245     107E  0020               	movlb	0	; select bank0
 12246     107F  01A4               	clrf	36
 12247                           
 12248                           ;../m-stack/usb/src/usb.c: 766:  do { (bds[1]).BDnCNT = (0); (bds[1]).STAT.BDnSTAT = (0x
      +                          80|0x40|0x08); } while(0);
 12249     1080  01A5               	clrf	37
 12250     1081  30C8               	movlw	200
 12251     1082  00A4               	movwf	36
 12252     1083  0008               	return
 12253     1084                     __end_of_send_zero_length_packet_ep0:
 12254                           
 12255                           	psect	text64
 12256     16E0                     __ptext64:	
 12257 ;; *************** function _handle_ep0_in *****************
 12258 ;; Defined at:
 12259 ;;		line 1352 in file "../m-stack/usb/src/usb.c"
 12260 ;; Parameters:    Size  Location     Type
 12261 ;;		None
 12262 ;; Auto vars:     Size  Location     Type
 12263 ;;  bytes_to_sen    1    5[BANK0 ] unsigned char 
 12264 ;; Return value:  Size  Location     Type
 12265 ;;                  1    wreg      void 
 12266 ;; Registers used:
 12267 ;;		wreg, fsr0l, fsr0h, fsr1l, fsr1h, status,2, status,0, pclath, cstack
 12268 ;; Tracked objects:
 12269 ;;		On entry : 1F/1D
 12270 ;;		On exit  : 18/0
 12271 ;;		Unchanged: 0/0
 12272 ;; Data sizes:     COMMON   BANK0   BANK1   BANK2   BANK3   BANK4   BANK5   BANK6   BANK7   BANK8   BANK9  BANK10  BANK1
      +1  BANK12
 12273 ;;      Params:         0       0       0       0       0       0       0       0       0       0       0       0       
      +0       0
 12274 ;;      Locals:         0       3       0       0       0       0       0       0       0       0       0       0       
      +0       0
 12275 ;;      Temps:          0       2       0       0       0       0       0       0       0       0       0       0       
      +0       0
 12276 ;;      Totals:         0       5       0       0       0       0       0       0       0       0       0       0       
      +0       0
 12277 ;;Total ram usage:        5 bytes
 12278 ;; Hardware stack levels used: 1
 12279 ;; Hardware stack levels required when called: 3
 12280 ;; This function calls:
 12281 ;;		NULL
 12282 ;;		_set_line_coding
 12283 ;;		_set_or_clear_comm_feature_callback
 12284 ;;		_usb_send_in_buffer_0
 12285 ;;		i1_memcpy
 12286 ;;		i1_reset_ep0_data_stage
 12287 ;; This function is called by:
 12288 ;;		_usb_service
 12289 ;; This function uses a non-reentrant model
 12290 ;;
 12291                           
 12292     16E0                     _handle_ep0_in:	
 12293                           ;psect for function _handle_ep0_in
 12294                           
 12295                           
 12296                           ;../m-stack/usb/src/usb.c: 1354:  if (addr_pending) {
 12297                           
 12298                           ;incstack = 0
 12299                           ; Regs used in _handle_ep0_in: [wreg-fsr1h+status,2+status,0+pclath+cstack]
 12300     16E0  0026               	movlb	6	; select bank6
 12301     16E1  0831               	movf	_addr_pending^(0+768),w
 12302     16E2  1903               	btfsc	3,2
 12303     16E3  2EE9               	goto	i1l4405
 12304                           
 12305                           ;../m-stack/usb/src/usb.c: 1355:   UADDR = addr;
 12306     16E4  0830               	movf	_addr^(0+768),w
 12307     16E5  003D               	movlb	29	; select bank29
 12308     16E6  0096               	movwf	22	;volatile
 12309                           
 12310                           ;../m-stack/usb/src/usb.c: 1356:   addr_pending = 0;
 12311     16E7  0026               	movlb	6	; select bank6
 12312     16E8  01B1               	clrf	_addr_pending^(0+768)
 12313     16E9                     i1l4405:
 12314                           
 12315                           ;../m-stack/usb/src/usb.c: 1359:  if (ep0_data_stage_buf_remaining) {
 12316     16E9  0021               	movlb	1	; select bank1
 12317     16EA  0844               	movf	_ep0_data_stage_buf_remaining^(0+128),w
 12318     16EB  0445               	iorwf	(_ep0_data_stage_buf_remaining+1)^(0+128),w
 12319     16EC  1903               	btfsc	3,2
 12320     16ED  2F4A               	goto	i1l4429
 12321                           
 12322                           ;../m-stack/usb/src/usb.c: 1361:   uint8_t bytes_to_send = (((ep0_data_stage_buf_remaini
      +                          ng)<(8))?(ep0_data_stage_buf_remaining):(8));
 12323     16EE  3000               	movlw	0
 12324     16EF  0245               	subwf	(_ep0_data_stage_buf_remaining+1)^(0+128),w
 12325     16F0  3008               	movlw	8
 12326     16F1  1903               	skipnz
 12327     16F2  0244               	subwf	_ep0_data_stage_buf_remaining^(0+128),w
 12328     16F3  1C03               	skipc
 12329     16F4  2EFB               	goto	i1l4411
 12330     16F5  3008               	movlw	8
 12331     16F6  0020               	movlb	0	; select bank0
 12332     16F7  00CB               	movwf	_handle_ep0_in$660
 12333     16F8  3000               	movlw	0
 12334     16F9  00CC               	movwf	_handle_ep0_in$660+1
 12335     16FA  2F02               	goto	i1l284
 12336     16FB                     i1l4411:
 12337     16FB  0845               	movf	(_ep0_data_stage_buf_remaining+1)^(0+128),w
 12338     16FC  0020               	movlb	0	; select bank0
 12339     16FD  00CC               	movwf	_handle_ep0_in$660+1
 12340     16FE  0021               	movlb	1	; select bank1
 12341     16FF  0844               	movf	_ep0_data_stage_buf_remaining^(0+128),w
 12342     1700  0020               	movlb	0	; select bank0
 12343     1701  00CB               	movwf	_handle_ep0_in$660
 12344     1702                     i1l284:
 12345     1702  084B               	movf	_handle_ep0_in$660,w
 12346     1703  00CD               	movwf	handle_ep0_in@bytes_to_send
 12347                           
 12348                           ;../m-stack/usb/src/usb.c: 1363:   memcpy(ep0_buf.in,ep0_data_stage_in_buffer,bytes_to_s
      +                          end);;
 12349     1704  0021               	movlb	1	; select bank1
 12350     1705  084E               	movf	((_ep0_buf+1)^(0+128)+2),w
 12351     1706  00F1               	movwf	i1memcpy@d1+1
 12352     1707  084D               	movf	(_ep0_buf^(0+128)+2),w
 12353     1708  00F0               	movwf	i1memcpy@d1
 12354     1709  0026               	movlb	6	; select bank6
 12355     170A  0827               	movf	(_ep0_data_stage_in_buffer+1)^(0+768),w
 12356     170B  00F3               	movwf	i1memcpy@s1+1
 12357     170C  0826               	movf	_ep0_data_stage_in_buffer^(0+768),w
 12358     170D  00F2               	movwf	i1memcpy@s1
 12359     170E  0020               	movlb	0	; select bank0
 12360     170F  084D               	movf	handle_ep0_in@bytes_to_send,w
 12361     1710  00C9               	movwf	??_handle_ep0_in
 12362     1711  01CA               	clrf	??_handle_ep0_in+1
 12363     1712  0849               	movf	??_handle_ep0_in,w
 12364     1713  00F4               	movwf	i1memcpy@n
 12365     1714  084A               	movf	??_handle_ep0_in+1,w
 12366     1715  00F5               	movwf	i1memcpy@n+1
 12367     1716  3193  2329  3196   	fcall	i1_memcpy
 12368                           
 12369                           ;../m-stack/usb/src/usb.c: 1364:   ep0_data_stage_buf_remaining -= bytes_to_send;
 12370     1719  084D               	movf	handle_ep0_in@bytes_to_send,w
 12371     171A  00C9               	movwf	??_handle_ep0_in
 12372     171B  01CA               	clrf	??_handle_ep0_in+1
 12373     171C  0849               	movf	??_handle_ep0_in,w
 12374     171D  0021               	movlb	1	; select bank1
 12375     171E  02C4               	subwf	_ep0_data_stage_buf_remaining^(0+128),f
 12376     171F  0020               	movlb	0	; select bank0
 12377     1720  084A               	movf	??_handle_ep0_in+1,w
 12378     1721  0021               	movlb	1	; select bank1
 12379     1722  3BC5               	subwfb	(_ep0_data_stage_buf_remaining+1)^(0+128),f
 12380                           
 12381                           ;../m-stack/usb/src/usb.c: 1365:   ep0_data_stage_in_buffer += bytes_to_send;
 12382     1723  0020               	movlb	0	; select bank0
 12383     1724  084D               	movf	handle_ep0_in@bytes_to_send,w
 12384     1725  00C9               	movwf	??_handle_ep0_in
 12385     1726  01CA               	clrf	??_handle_ep0_in+1
 12386     1727  0849               	movf	??_handle_ep0_in,w
 12387     1728  0026               	movlb	6	; select bank6
 12388     1729  07A6               	addwf	_ep0_data_stage_in_buffer^(0+768),f
 12389     172A  0020               	movlb	0	; select bank0
 12390     172B  084A               	movf	??_handle_ep0_in+1,w
 12391     172C  0026               	movlb	6	; select bank6
 12392     172D  3DA7               	addwfc	(_ep0_data_stage_in_buffer+1)^(0+768),f
 12393                           
 12394                           ;../m-stack/usb/src/usb.c: 1370:   if (ep0_data_stage_buf_remaining == 0 &&
 12395     172E  0021               	movlb	1	; select bank1
 12396     172F  0844               	movf	_ep0_data_stage_buf_remaining^(0+128),w
 12397     1730  0445               	iorwf	(_ep0_data_stage_buf_remaining+1)^(0+128),w
 12398     1731  1D03               	btfss	3,2
 12399     1732  2F3F               	goto	i1l4427
 12400     1733  3008               	movlw	8
 12401     1734  0020               	movlb	0	; select bank0
 12402     1735  064D               	xorwf	handle_ep0_in@bytes_to_send,w
 12403     1736  1D03               	btfss	3,2
 12404     1737  2F3F               	goto	i1l4427
 12405     1738  0021               	movlb	1	; select bank1
 12406     1739  0849               	movf	_returning_short^(0+128),w
 12407     173A  1903               	btfsc	3,2
 12408     173B  2F3F               	goto	i1l4427
 12409                           
 12410                           ;../m-stack/usb/src/usb.c: 1373:    control_need_zlp = 1;
 12411     173C  0026               	movlb	6	; select bank6
 12412     173D  01AF               	clrf	_control_need_zlp^(0+768)
 12413     173E  0AAF               	incf	_control_need_zlp^(0+768),f
 12414     173F                     i1l4427:
 12415                           
 12416                           ;../m-stack/usb/src/usb.c: 1375:   usb_send_in_buffer_0(bytes_to_send);
 12417     173F  0020               	movlb	0	; select bank0
 12418     1740  084D               	movf	handle_ep0_in@bytes_to_send,w
 12419     1741  00C9               	movwf	??_handle_ep0_in
 12420     1742  01CA               	clrf	??_handle_ep0_in+1
 12421     1743  0849               	movf	??_handle_ep0_in,w
 12422     1744  00FB               	movwf	usb_send_in_buffer_0@len
 12423     1745  084A               	movf	??_handle_ep0_in+1,w
 12424     1746  00FC               	movwf	usb_send_in_buffer_0@len+1
 12425     1747  3192  22C0         	fcall	_usb_send_in_buffer_0
 12426                           
 12427                           ;../m-stack/usb/src/usb.c: 1376:  }
 12428     1749  0008               	return
 12429     174A                     i1l4429:
 12430     174A  0026               	movlb	6	; select bank6
 12431     174B  082F               	movf	_control_need_zlp^(0+768),w
 12432     174C  1903               	btfsc	3,2
 12433     174D  2F59               	goto	i1l4437
 12434                           
 12435                           ;../m-stack/usb/src/usb.c: 1378:   usb_send_in_buffer_0(0);
 12436     174E  3000               	movlw	0
 12437     174F  00FB               	movwf	usb_send_in_buffer_0@len
 12438     1750  00FC               	movwf	usb_send_in_buffer_0@len+1
 12439     1751  3192  22C0  3196   	fcall	_usb_send_in_buffer_0
 12440                           
 12441                           ;../m-stack/usb/src/usb.c: 1379:   control_need_zlp = 0;
 12442     1754  0026               	movlb	6	; select bank6
 12443     1755  01AF               	clrf	_control_need_zlp^(0+768)
 12444     1756                     i1l4435:
 12445                           
 12446                           ;../m-stack/usb/src/usb.c: 1380:   reset_ep0_data_stage();
 12447     1756  3190  20A0         	fcall	i1_reset_ep0_data_stage
 12448                           
 12449                           ;../m-stack/usb/src/usb.c: 1381:  }
 12450     1758  0008               	return
 12451     1759                     i1l4437:
 12452                           
 12453                           ;../m-stack/usb/src/usb.c: 1383:   if (ep0_data_stage_direc == 0 ) {
 12454     1759  0021               	movlb	1	; select bank1
 12455     175A  0847               	movf	_ep0_data_stage_direc^(0+128),w
 12456     175B  1D03               	btfss	3,2
 12457     175C  0008               	return
 12458                           
 12459                           ;../m-stack/usb/src/usb.c: 1388:    if (ep0_data_stage_callback)
 12460     175D  0020               	movlb	0	; select bank0
 12461     175E  086D               	movf	_ep0_data_stage_callback,w
 12462     175F  046E               	iorwf	_ep0_data_stage_callback+1,w
 12463     1760  1903               	btfsc	3,2
 12464     1761  2F56               	goto	i1l4435
 12465                           
 12466                           ;../m-stack/usb/src/usb.c: 1389:     ep0_data_stage_callback(1 , ep0_data_stage_context)
      +                          ;
 12467     1762  01F2               	clrf	set_line_coding@transfer_ok
 12468     1763  0AF2               	incf	set_line_coding@transfer_ok,f
 12469     1764  0021               	movlb	1	; select bank1
 12470     1765  0843               	movf	(_ep0_data_stage_context+1)^(0+128),w
 12471     1766  00F4               	movwf	set_line_coding@context+1
 12472     1767  0842               	movf	_ep0_data_stage_context^(0+128),w
 12473     1768  00F3               	movwf	set_line_coding@context
 12474     1769  0020               	movlb	0	; select bank0
 12475     176A  086E               	movf	_ep0_data_stage_callback+1,w
 12476     176B  008A               	movwf	10
 12477     176C  086D               	movf	_ep0_data_stage_callback,w
 12478     176D  000A               	callw
 12479     176E  3196               	pagesel	$
 12480     176F  2F56               	goto	i1l4435
 12481     1770                     __end_of_handle_ep0_in:
 12482                           
 12483                           	psect	text65
 12484     10A0                     __ptext65:	
 12485 ;; *************** function i1_reset_ep0_data_stage *****************
 12486 ;; Defined at:
 12487 ;;		line 474 in file "../m-stack/usb/src/usb.c"
 12488 ;; Parameters:    Size  Location     Type
 12489 ;;		None
 12490 ;; Auto vars:     Size  Location     Type
 12491 ;;		None
 12492 ;; Return value:  Size  Location     Type
 12493 ;;                  1    wreg      void 
 12494 ;; Registers used:
 12495 ;;		status,2
 12496 ;; Tracked objects:
 12497 ;;		On entry : 0/1D
 12498 ;;		On exit  : 1F/0
 12499 ;;		Unchanged: 0/0
 12500 ;; Data sizes:     COMMON   BANK0   BANK1   BANK2   BANK3   BANK4   BANK5   BANK6   BANK7   BANK8   BANK9  BANK10  BANK1
      +1  BANK12
 12501 ;;      Params:         0       0       0       0       0       0       0       0       0       0       0       0       
      +0       0
 12502 ;;      Locals:         0       0       0       0       0       0       0       0       0       0       0       0       
      +0       0
 12503 ;;      Temps:          0       0       0       0       0       0       0       0       0       0       0       0       
      +0       0
 12504 ;;      Totals:         0       0       0       0       0       0       0       0       0       0       0       0       
      +0       0
 12505 ;;Total ram usage:        0 bytes
 12506 ;; Hardware stack levels used: 1
 12507 ;; This function calls:
 12508 ;;		Nothing
 12509 ;; This function is called by:
 12510 ;;		_handle_ep0_setup
 12511 ;;		_handle_ep0_out
 12512 ;;		_handle_ep0_in
 12513 ;;		_usb_start_receive_ep0_data_stage
 12514 ;;		i1_usb_init
 12515 ;; This function uses a non-reentrant model
 12516 ;;
 12517                           
 12518     10A0                     i1_reset_ep0_data_stage:	
 12519                           ;psect for function i1_reset_ep0_data_stage
 12520                           
 12521                           
 12522                           ;../m-stack/usb/src/usb.c: 476:  ep0_data_stage_in_buffer = ((void*)0);
 12523                           
 12524                           ;incstack = 0
 12525                           ; Regs used in i1_reset_ep0_data_stage: [status,2]
 12526     10A0  0026               	movlb	6	; select bank6
 12527     10A1  01A6               	clrf	_ep0_data_stage_in_buffer^(0+768)
 12528     10A2  01A7               	clrf	(_ep0_data_stage_in_buffer+1)^(0+768)
 12529                           
 12530                           ;../m-stack/usb/src/usb.c: 477:  ep0_data_stage_out_buffer = ((void*)0);
 12531     10A3  0021               	movlb	1	; select bank1
 12532     10A4  01C8               	clrf	_ep0_data_stage_out_buffer^(0+128)
 12533                           
 12534                           ;../m-stack/usb/src/usb.c: 478:  ep0_data_stage_buf_remaining = 0;
 12535     10A5  01C4               	clrf	_ep0_data_stage_buf_remaining^(0+128)
 12536     10A6  01C5               	clrf	(_ep0_data_stage_buf_remaining+1)^(0+128)
 12537                           
 12538                           ;../m-stack/usb/src/usb.c: 479:  ep0_data_stage_callback = ((void*)0);
 12539     10A7  0020               	movlb	0	; select bank0
 12540     10A8  01ED               	clrf	_ep0_data_stage_callback
 12541     10A9  01EE               	clrf	_ep0_data_stage_callback+1
 12542     10AA  0008               	return
 12543     10AB                     __end_ofi1_reset_ep0_data_stage:
 12544                           
 12545                           	psect	text66
 12546     1329                     __ptext66:	
 12547 ;; *************** function i1_memcpy *****************
 12548 ;; Defined at:
 12549 ;;		line 4 in file "/opt/microchip/xc8/v2.45/pic/sources/c99/common/memcpy.c"
 12550 ;; Parameters:    Size  Location     Type
 12551 ;;  d1              2    0[COMMON] PTR void 
 12552 ;;		 -> transfer_data(7), NULL(0), ep_buffers(294), 
 12553 ;;  s1              2    2[COMMON] PTR const void 
 12554 ;;		 -> usb_send_debug_hex@buf(8), pp_res_buf(32), uart_rx_buf(32), func_serial_string(14), 
 12555 ;;		 -> func_prog_string(30), serial_num_string(22), cdc_data_string(38), cdc_interface_string(28), 
 12556 ;;		 -> product_string(24), vendor_string(20), str00(4), configuration_1(131), 
 12557 ;;		 -> transfer_data(7), handle_standard_control_request@ret_617(1), handle_standard_control_request@ret_614(2), handle
      +_standard_control_request@ret(2), 
 12558 ;;		 -> this_device_descriptor(18), g_configuration(1), NULL(0), ep_buffers(294), 
 12559 ;;  n               2    4[COMMON] unsigned int 
 12560 ;; Auto vars:     Size  Location     Type
 12561 ;;  s               2    8[COMMON] PTR const unsigned char 
 12562 ;;		 -> usb_send_debug_hex@buf(8), pp_res_buf(32), uart_rx_buf(32), func_serial_string(14), 
 12563 ;;		 -> func_prog_string(30), serial_num_string(22), cdc_data_string(38), cdc_interface_string(28), 
 12564 ;;		 -> product_string(24), vendor_string(20), str00(4), configuration_1(131), 
 12565 ;;		 -> transfer_data(7), handle_standard_control_request@ret_617(1), handle_standard_control_request@ret_614(2), handle
      +_standard_control_request@ret(2), 
 12566 ;;		 -> this_device_descriptor(18), g_configuration(1), NULL(0), ep_buffers(294), 
 12567 ;;  d               2    6[COMMON] PTR unsigned char 
 12568 ;;		 -> transfer_data(7), NULL(0), ep_buffers(294), 
 12569 ;;  tmp             1   10[COMMON] unsigned char 
 12570 ;; Return value:  Size  Location     Type
 12571 ;;                  2    0[COMMON] PTR void 
 12572 ;; Registers used:
 12573 ;;		wreg, fsr0l, fsr0h, fsr1l, fsr1h, status,2, status,0, pclath
 12574 ;; Tracked objects:
 12575 ;;		On entry : 1F/0
 12576 ;;		On exit  : 1F/0
 12577 ;;		Unchanged: 1F/0
 12578 ;; Data sizes:     COMMON   BANK0   BANK1   BANK2   BANK3   BANK4   BANK5   BANK6   BANK7   BANK8   BANK9  BANK10  BANK1
      +1  BANK12
 12579 ;;      Params:         6       0       0       0       0       0       0       0       0       0       0       0       
      +0       0
 12580 ;;      Locals:         5       0       0       0       0       0       0       0       0       0       0       0       
      +0       0
 12581 ;;      Temps:          0       0       0       0       0       0       0       0       0       0       0       0       
      +0       0
 12582 ;;      Totals:        11       0       0       0       0       0       0       0       0       0       0       0       
      +0       0
 12583 ;;Total ram usage:       11 bytes
 12584 ;; Hardware stack levels used: 1
 12585 ;; This function calls:
 12586 ;;		Nothing
 12587 ;; This function is called by:
 12588 ;;		_start_control_return
 12589 ;;		_handle_ep0_out
 12590 ;;		_handle_ep0_in
 12591 ;; This function uses a non-reentrant model
 12592 ;;
 12593                           
 12594     1329                     i1_memcpy:	
 12595                           ;psect for function i1_memcpy
 12596                           
 12597                           
 12598                           ;incstack = 0
 12599                           ; Regs used in i1_memcpy: [wreg-fsr1h+status,2+status,0+pclath]
 12600     1329  0873               	movf	i1memcpy@s1+1,w
 12601     132A  00F9               	movwf	i1memcpy@s+1
 12602     132B  0872               	movf	i1memcpy@s1,w
 12603     132C  00F8               	movwf	i1memcpy@s
 12604     132D  0871               	movf	i1memcpy@d1+1,w
 12605     132E  00F7               	movwf	i1memcpy@d+1
 12606     132F  0870               	movf	i1memcpy@d1,w
 12607     1330  00F6               	movwf	i1memcpy@d
 12608     1331                     i1l3443:
 12609     1331  3001               	movlw	1
 12610     1332  02F4               	subwf	i1memcpy@n,f
 12611     1333  3000               	movlw	0
 12612     1334  3BF5               	subwfb	i1memcpy@n+1,f
 12613     1335  0A74               	incf	i1memcpy@n,w
 12614     1336  1903               	btfsc	3,2
 12615     1337  0A75               	incf	i1memcpy@n+1,w
 12616     1338  1903               	btfsc	3,2
 12617     1339  0008               	return
 12618     133A  0878               	movf	i1memcpy@s,w
 12619     133B  0084               	movwf	4
 12620     133C  0879               	movf	i1memcpy@s+1,w
 12621     133D  0085               	movwf	5
 12622     133E  0800               	movf	0,w	;code access
 12623     133F  00FA               	movwf	i1memcpy@tmp
 12624     1340  3001               	movlw	1
 12625     1341  07F8               	addwf	i1memcpy@s,f
 12626     1342  3000               	movlw	0
 12627     1343  3DF9               	addwfc	i1memcpy@s+1,f
 12628     1344  0876               	movf	i1memcpy@d,w
 12629     1345  0086               	movwf	6
 12630     1346  0877               	movf	i1memcpy@d+1,w
 12631     1347  0087               	movwf	7
 12632     1348  087A               	movf	i1memcpy@tmp,w
 12633     1349  0081               	movwf	1
 12634     134A  3001               	movlw	1
 12635     134B  07F6               	addwf	i1memcpy@d,f
 12636     134C  3000               	movlw	0
 12637     134D  3DF7               	addwfc	i1memcpy@d+1,f
 12638     134E  2B31               	goto	i1l3443
 12639     134F                     __end_ofi1_memcpy:
 12640                           
 12641                           	psect	text67
 12642     12C0                     __ptext67:	
 12643 ;; *************** function _usb_send_in_buffer_0 *****************
 12644 ;; Defined at:
 12645 ;;		line 770 in file "../m-stack/usb/src/usb.c"
 12646 ;; Parameters:    Size  Location     Type
 12647 ;;  len             2   11[COMMON] unsigned int 
 12648 ;; Auto vars:     Size  Location     Type
 12649 ;;  pid             1    0[BANK0 ] unsigned char 
 12650 ;; Return value:  Size  Location     Type
 12651 ;;                  1    wreg      void 
 12652 ;; Registers used:
 12653 ;;		wreg, fsr1l, fsr1h, status,2, status,0, pclath, cstack
 12654 ;; Tracked objects:
 12655 ;;		On entry : 19/0
 12656 ;;		On exit  : 18/0
 12657 ;;		Unchanged: 0/0
 12658 ;; Data sizes:     COMMON   BANK0   BANK1   BANK2   BANK3   BANK4   BANK5   BANK6   BANK7   BANK8   BANK9  BANK10  BANK1
      +1  BANK12
 12659 ;;      Params:         2       0       0       0       0       0       0       0       0       0       0       0       
      +0       0
 12660 ;;      Locals:         0       1       0       0       0       0       0       0       0       0       0       0       
      +0       0
 12661 ;;      Temps:          1       0       0       0       0       0       0       0       0       0       0       0       
      +0       0
 12662 ;;      Totals:         3       1       0       0       0       0       0       0       0       0       0       0       
      +0       0
 12663 ;;Total ram usage:        4 bytes
 12664 ;; Hardware stack levels used: 1
 12665 ;; Hardware stack levels required when called: 2
 12666 ;; This function calls:
 12667 ;;		i1_usb_in_endpoint_halted
 12668 ;; This function is called by:
 12669 ;;		_start_control_return
 12670 ;;		_handle_ep0_in
 12671 ;; This function uses a non-reentrant model
 12672 ;;
 12673                           
 12674     12C0                     _usb_send_in_buffer_0:	
 12675                           ;psect for function _usb_send_in_buffer_0
 12676                           
 12677                           
 12678                           ;../m-stack/usb/src/usb.c: 770: static void usb_send_in_buffer_0(size_t len);../m-stack/
      +                          usb/src/usb.c: 771: {;../m-stack/usb/src/usb.c: 772:  if (!usb_in_endpoint_halted(0)) {
 12679                           
 12680                           ;incstack = 0
 12681                           ; Regs used in _usb_send_in_buffer_0: [wreg+fsr1l+fsr1h+status,2+status,0+pclath+cstack]
 12682     12C0  3000               	movlw	0
 12683     12C1  3191  21DB  3192   	fcall	i1_usb_in_endpoint_halted
 12684     12C4  3A00               	xorlw	0
 12685     12C5  1D03               	skipz
 12686     12C6  0008               	return
 12687                           
 12688                           ;../m-stack/usb/src/usb.c: 790:   uint8_t pid;;../m-stack/usb/src/usb.c: 791:   pid = (e
      +                          p0_buf.flags & 0x8)? 1 : 0;
 12689     12C7  0021               	movlb	1	; select bank1
 12690     12C8  1DCF               	btfss	(_ep0_buf^(0+128)+4),3
 12691     12C9  2ACC               	goto	u284_20
 12692     12CA  3001               	movlw	1
 12693     12CB  2ACD               	goto	u285_20
 12694     12CC                     u284_20:
 12695     12CC  3000               	movlw	0
 12696     12CD                     u285_20:
 12697     12CD  0020               	movlb	0	; select bank0
 12698     12CE  00C8               	movwf	usb_send_in_buffer_0@pid
 12699                           
 12700                           ;../m-stack/usb/src/usb.c: 792:   bds[1].STAT.BDnSTAT = 0;
 12701     12CF  01A4               	clrf	36
 12702                           
 12703                           ;../m-stack/usb/src/usb.c: 794:   if (pid)
 12704     12D0  0848               	movf	usb_send_in_buffer_0@pid,w
 12705     12D1  1903               	btfsc	3,2
 12706     12D2  2AD7               	goto	i1l3415
 12707     12D3  087B               	movf	usb_send_in_buffer_0@len,w
 12708     12D4  00A5               	movwf	37
 12709     12D5  30C8               	movlw	200
 12710     12D6  2ADA               	goto	L11
 12711     12D7                     i1l3415:
 12712     12D7  087B               	movf	usb_send_in_buffer_0@len,w
 12713     12D8  00A5               	movwf	37
 12714     12D9  3088               	movlw	136
 12715     12DA                     L11:
 12716     12DA  00A4               	movwf	36
 12717                           
 12718                           ;../m-stack/usb/src/usb.c: 801:   ep0_buf.flags ^= 0x8;
 12719     12DB  3008               	movlw	8
 12720     12DC  00FD               	movwf	??_usb_send_in_buffer_0
 12721     12DD  087D               	movf	??_usb_send_in_buffer_0,w
 12722     12DE  0021               	movlb	1	; select bank1
 12723     12DF  06CF               	xorwf	(_ep0_buf^(0+128)+4),f
 12724     12E0  0008               	return
 12725     12E1                     __end_of_usb_send_in_buffer_0:
 12726                           
 12727                           	psect	text68
 12728     11DB                     __ptext68:	
 12729 ;; *************** function i1_usb_in_endpoint_halted *****************
 12730 ;; Defined at:
 12731 ;;		line 1594 in file "../m-stack/usb/src/usb.c"
 12732 ;; Parameters:    Size  Location     Type
 12733 ;;  endpoint        1    wreg     unsigned char 
 12734 ;; Auto vars:     Size  Location     Type
 12735 ;;  endpoint        1   10[COMMON] unsigned char 
 12736 ;; Return value:  Size  Location     Type
 12737 ;;                  1    wreg      _Bool 
 12738 ;; Registers used:
 12739 ;;		wreg, fsr1l, fsr1h, status,2, status,0, pclath, cstack
 12740 ;; Tracked objects:
 12741 ;;		On entry : 19/0
 12742 ;;		On exit  : 18/0
 12743 ;;		Unchanged: 18/0
 12744 ;; Data sizes:     COMMON   BANK0   BANK1   BANK2   BANK3   BANK4   BANK5   BANK6   BANK7   BANK8   BANK9  BANK10  BANK1
      +1  BANK12
 12745 ;;      Params:         0       0       0       0       0       0       0       0       0       0       0       0       
      +0       0
 12746 ;;      Locals:         1       0       0       0       0       0       0       0       0       0       0       0       
      +0       0
 12747 ;;      Temps:          4       0       0       0       0       0       0       0       0       0       0       0       
      +0       0
 12748 ;;      Totals:         5       0       0       0       0       0       0       0       0       0       0       0       
      +0       0
 12749 ;;Total ram usage:        5 bytes
 12750 ;; Hardware stack levels used: 1
 12751 ;; Hardware stack levels required when called: 1
 12752 ;; This function calls:
 12753 ;;		i1___wmul
 12754 ;; This function is called by:
 12755 ;;		_usb_send_in_buffer_0
 12756 ;; This function uses a non-reentrant model
 12757 ;;
 12758                           
 12759     11DB                     i1_usb_in_endpoint_halted:	
 12760                           ;psect for function i1_usb_in_endpoint_halted
 12761                           
 12762                           
 12763                           ;incstack = 0
 12764                           ; Regs used in i1_usb_in_endpoint_halted: [wreg+fsr1l+fsr1h+status,2+status,0+pclath+cst
      +                          ack]
 12765                           ;i1usb_in_endpoint_halted@endpoint stored from wreg
 12766     11DB  00FA               	movwf	i1usb_in_endpoint_halted@endpoint
 12767                           
 12768                           ;../m-stack/usb/src/usb.c: 1594: _Bool usb_in_endpoint_halted(uint8_t endpoint);../m-sta
      +                          ck/usb/src/usb.c: 1595: {;../m-stack/usb/src/usb.c: 1596:  return ep_buf[endpoint].flags
      +                           & 0x2;
 12769     11DC  087A               	movf	i1usb_in_endpoint_halted@endpoint,w
 12770     11DD  00F6               	movwf	??i1_usb_in_endpoint_halted
 12771     11DE  01F7               	clrf	??i1_usb_in_endpoint_halted+1
 12772     11DF  0876               	movf	??i1_usb_in_endpoint_halted,w
 12773     11E0  00F0               	movwf	i1___wmul@multiplier
 12774     11E1  0877               	movf	??i1_usb_in_endpoint_halted+1,w
 12775     11E2  00F1               	movwf	i1___wmul@multiplier+1
 12776     11E3  3007               	movlw	7
 12777     11E4  00F2               	movwf	i1___wmul@multiplicand
 12778     11E5  3000               	movlw	0
 12779     11E6  00F3               	movwf	i1___wmul@multiplicand+1
 12780     11E7  3191  21C0         	fcall	i1___wmul
 12781     11E9  30A6               	movlw	low (_ep_buf+6)
 12782     11EA  00F8               	movwf	??i1_usb_in_endpoint_halted+2
 12783     11EB  3003               	movlw	high (_ep_buf+6)
 12784     11EC  00F9               	movwf	??i1_usb_in_endpoint_halted+3
 12785     11ED  0870               	movf	?i1___wmul,w
 12786     11EE  0778               	addwf	??i1_usb_in_endpoint_halted+2,w
 12787     11EF  0086               	movwf	6
 12788     11F0  0871               	movf	?i1___wmul+1,w
 12789     11F1  3D79               	addwfc	??i1_usb_in_endpoint_halted+3,w
 12790     11F2  0087               	movwf	7
 12791     11F3  0801               	movf	1,w
 12792     11F4  3902               	andlw	2
 12793     11F5  0008               	return
 12794     11F6                     __end_ofi1_usb_in_endpoint_halted:
 12795                           
 12796                           	psect	text69
 12797     11C0                     __ptext69:	
 12798 ;; *************** function i1___wmul *****************
 12799 ;; Defined at:
 12800 ;;		line 15 in file "/opt/microchip/xc8/v2.45/pic/sources/c99/common/Umul16.c"
 12801 ;; Parameters:    Size  Location     Type
 12802 ;;  multiplier      2    0[COMMON] unsigned int 
 12803 ;;  multiplicand    2    2[COMMON] unsigned int 
 12804 ;; Auto vars:     Size  Location     Type
 12805 ;;  product         2    4[COMMON] unsigned int 
 12806 ;; Return value:  Size  Location     Type
 12807 ;;                  2    0[COMMON] unsigned int 
 12808 ;; Registers used:
 12809 ;;		wreg, status,2, status,0
 12810 ;; Tracked objects:
 12811 ;;		On entry : 18/0
 12812 ;;		On exit  : 18/0
 12813 ;;		Unchanged: 18/0
 12814 ;; Data sizes:     COMMON   BANK0   BANK1   BANK2   BANK3   BANK4   BANK5   BANK6   BANK7   BANK8   BANK9  BANK10  BANK1
      +1  BANK12
 12815 ;;      Params:         4       0       0       0       0       0       0       0       0       0       0       0       
      +0       0
 12816 ;;      Locals:         2       0       0       0       0       0       0       0       0       0       0       0       
      +0       0
 12817 ;;      Temps:          0       0       0       0       0       0       0       0       0       0       0       0       
      +0       0
 12818 ;;      Totals:         6       0       0       0       0       0       0       0       0       0       0       0       
      +0       0
 12819 ;;Total ram usage:        6 bytes
 12820 ;; Hardware stack levels used: 1
 12821 ;; This function calls:
 12822 ;;		Nothing
 12823 ;; This function is called by:
 12824 ;;		_stall_ep_in
 12825 ;;		_handle_standard_control_request
 12826 ;;		_usb_service
 12827 ;;		_usb_halt_ep_in
 12828 ;;		_usb_halt_ep_out
 12829 ;;		i1_pic16_linear_addr
 12830 ;;		i1_init_endpoints
 12831 ;;		i1_usb_in_endpoint_halted
 12832 ;; This function uses a non-reentrant model
 12833 ;;
 12834                           
 12835     11C0                     i1___wmul:	
 12836                           ;psect for function i1___wmul
 12837                           
 12838                           
 12839                           ;incstack = 0
 12840                           ; Regs used in i1___wmul: [wreg+status,2+status,0]
 12841     11C0  01F4               	clrf	i1___wmul@product
 12842     11C1  01F5               	clrf	i1___wmul@product+1
 12843     11C2                     i1l3389:
 12844     11C2  1C70               	btfss	i1___wmul@multiplier,0
 12845     11C3  29C8               	goto	i1l1121
 12846     11C4  0872               	movf	i1___wmul@multiplicand,w
 12847     11C5  07F4               	addwf	i1___wmul@product,f
 12848     11C6  0873               	movf	i1___wmul@multiplicand+1,w
 12849     11C7  3DF5               	addwfc	i1___wmul@product+1,f
 12850     11C8                     i1l1121:
 12851     11C8  3001               	movlw	1
 12852     11C9                     u280_25:
 12853     11C9  35F2               	lslf	i1___wmul@multiplicand,f
 12854     11CA  0DF3               	rlf	i1___wmul@multiplicand+1,f
 12855     11CB  0B89               	decfsz	9,f
 12856     11CC  29C9               	goto	u280_25
 12857     11CD  3001               	movlw	1
 12858     11CE                     u281_25:
 12859     11CE  36F1               	lsrf	i1___wmul@multiplier+1,f
 12860     11CF  0CF0               	rrf	i1___wmul@multiplier,f
 12861     11D0  0B89               	decfsz	9,f
 12862     11D1  29CE               	goto	u281_25
 12863     11D2  0870               	movf	i1___wmul@multiplier,w
 12864     11D3  0471               	iorwf	i1___wmul@multiplier+1,w
 12865     11D4  1D03               	btfss	3,2
 12866     11D5  29C2               	goto	i1l3389
 12867     11D6  0875               	movf	i1___wmul@product+1,w
 12868     11D7  00F1               	movwf	?i1___wmul+1
 12869     11D8  0874               	movf	i1___wmul@product,w
 12870     11D9  00F0               	movwf	?i1___wmul
 12871     11DA  0008               	return
 12872     11DB                     __end_ofi1___wmul:
 12873                           
 12874                           	psect	text70
 12875     10CC                     __ptext70:	
 12876 ;; *************** function _set_line_coding *****************
 12877 ;; Defined at:
 12878 ;;		line 110 in file "../m-stack/usb/src/usb_cdc.c"
 12879 ;; Parameters:    Size  Location     Type
 12880 ;;  transfer_ok     1    2[COMMON] _Bool 
 12881 ;;  context         2    3[COMMON] PTR void 
 12882 ;;		 -> NULL(0), 
 12883 ;; Auto vars:     Size  Location     Type
 12884 ;;		None
 12885 ;; Return value:  Size  Location     Type
 12886 ;;                  1    wreg      char 
 12887 ;; Registers used:
 12888 ;;		wreg, fsr0l, fsr0h, fsr1l, fsr1h, status,2, status,0, pclath, cstack
 12889 ;; Tracked objects:
 12890 ;;		On entry : 1F/0
 12891 ;;		On exit  : 1E/0
 12892 ;;		Unchanged: 0/0
 12893 ;; Data sizes:     COMMON   BANK0   BANK1   BANK2   BANK3   BANK4   BANK5   BANK6   BANK7   BANK8   BANK9  BANK10  BANK1
      +1  BANK12
 12894 ;;      Params:         3       0       0       0       0       0       0       0       0       0       0       0       
      +0       0
 12895 ;;      Locals:         0       0       0       0       0       0       0       0       0       0       0       0       
      +0       0
 12896 ;;      Temps:          0       0       0       0       0       0       0       0       0       0       0       0       
      +0       0
 12897 ;;      Totals:         3       0       0       0       0       0       0       0       0       0       0       0       
      +0       0
 12898 ;;Total ram usage:        3 bytes
 12899 ;; Hardware stack levels used: 1
 12900 ;; Hardware stack levels required when called: 1
 12901 ;; This function calls:
 12902 ;;		_app_set_line_coding_callback
 12903 ;; This function is called by:
 12904 ;;		_process_cdc_setup_request
 12905 ;;		_handle_ep0_setup
 12906 ;;		_handle_ep0_out
 12907 ;;		_handle_ep0_in
 12908 ;; This function uses a non-reentrant model
 12909 ;;
 12910                           
 12911     10CC                     _set_line_coding:	
 12912                           ;psect for function _set_line_coding
 12913                           
 12914                           
 12915                           ;../m-stack/usb/src/usb_cdc.c: 111:  if (!transfer_ok)
 12916                           
 12917                           ;incstack = 0
 12918                           ; Regs used in _set_line_coding: [wreg-fsr1h+status,2+status,0+pclath+cstack]
 12919     10CC  0872               	movf	set_line_coding@transfer_ok,w
 12920     10CD  1D03               	btfss	3,2
 12921     10CE  28D1               	goto	i1l4221
 12922                           
 12923                           ;../m-stack/usb/src/usb_cdc.c: 112:   return -1;
 12924     10CF  30FF               	movlw	255
 12925     10D0  0008               	return
 12926     10D1                     i1l4221:
 12927                           
 12928                           ;../m-stack/usb/src/usb_cdc.c: 114:  return app_set_line_coding_callback(transfer_interf
      +                          ace,
 12929     10D1  303D               	movlw	(low (_transfer_data| (0+768)))& (0+255)
 12930     10D2  00F0               	movwf	app_set_line_coding_callback@coding
 12931     10D3  0021               	movlb	1	; select bank1
 12932     10D4  0846               	movf	_transfer_interface^(0+128),w
 12933     10D5  3190  20FE         	fcall	_app_set_line_coding_callback
 12934     10D7  0008               	return
 12935     10D8                     __end_of_set_line_coding:
 12936                           
 12937                           	psect	text71
 12938     13C3                     __ptext71:	
 12939 ;; *************** function _set_or_clear_comm_feature_callback *****************
 12940 ;; Defined at:
 12941 ;;		line 84 in file "../m-stack/usb/src/usb_cdc.c"
 12942 ;; Parameters:    Size  Location     Type
 12943 ;;  transfer_ok     1    2[COMMON] _Bool 
 12944 ;;  context         2    3[COMMON] PTR void 
 12945 ;;		 -> NULL(0), 
 12946 ;; Auto vars:     Size  Location     Type
 12947 ;;  data_multipl    1    6[COMMON] _Bool 
 12948 ;;  idle_setting    1    5[COMMON] _Bool 
 12949 ;; Return value:  Size  Location     Type
 12950 ;;                  1    wreg      char 
 12951 ;; Registers used:
 12952 ;;		wreg, status,2, status,0, pclath, cstack
 12953 ;; Tracked objects:
 12954 ;;		On entry : 1F/0
 12955 ;;		On exit  : 1E/0
 12956 ;;		Unchanged: 0/0
 12957 ;; Data sizes:     COMMON   BANK0   BANK1   BANK2   BANK3   BANK4   BANK5   BANK6   BANK7   BANK8   BANK9  BANK10  BANK1
      +1  BANK12
 12958 ;;      Params:         3       0       0       0       0       0       0       0       0       0       0       0       
      +0       0
 12959 ;;      Locals:         2       0       0       0       0       0       0       0       0       0       0       0       
      +0       0
 12960 ;;      Temps:          0       0       0       0       0       0       0       0       0       0       0       0       
      +0       0
 12961 ;;      Totals:         5       0       0       0       0       0       0       0       0       0       0       0       
      +0       0
 12962 ;;Total ram usage:        5 bytes
 12963 ;; Hardware stack levels used: 1
 12964 ;; Hardware stack levels required when called: 1
 12965 ;; This function calls:
 12966 ;;		_app_clear_comm_feature_callback
 12967 ;;		_app_set_comm_feature_callback
 12968 ;; This function is called by:
 12969 ;;		_process_cdc_setup_request
 12970 ;;		_handle_ep0_setup
 12971 ;;		_handle_ep0_out
 12972 ;;		_handle_ep0_in
 12973 ;; This function uses a non-reentrant model
 12974 ;;
 12975                           
 12976     13C3                     _set_or_clear_comm_feature_callback:	
 12977                           ;psect for function _set_or_clear_comm_feature_callback
 12978                           
 12979                           
 12980                           ;../m-stack/usb/src/usb_cdc.c: 84: static int8_t set_or_clear_comm_feature_callback(_Boo
      +                          l transfer_ok, void *context);../m-stack/usb/src/usb_cdc.c: 85: {;../m-stack/usb/src/usb
      +                          _cdc.c: 88:  if (!transfer_ok)
 12981                           
 12982                           ;incstack = 0
 12983                           ; Regs used in _set_or_clear_comm_feature_callback: [wreg+status,2+status,0+pclath+cstac
      +                          k]
 12984     13C3  0872               	movf	set_or_clear_comm_feature_callback@transfer_ok,w
 12985     13C4  1D03               	btfss	3,2
 12986     13C5  2BC8               	goto	i1l4197
 12987                           
 12988                           ;../m-stack/usb/src/usb_cdc.c: 89:   return -1;
 12989     13C6  30FF               	movlw	255
 12990     13C7  0008               	return
 12991     13C8                     i1l4197:
 12992                           
 12993                           ;../m-stack/usb/src/usb_cdc.c: 91:  _Bool idle_setting = (transfer_data.comm_feature & 1
      +                          ) != 0;
 12994     13C8  0026               	movlb	6	; select bank6
 12995     13C9  1C3D               	btfss	_transfer_data^(0+768),0
 12996     13CA  2BCD               	goto	u419_20
 12997     13CB  3001               	movlw	1
 12998     13CC  2BCE               	goto	u420_20
 12999     13CD                     u419_20:
 13000     13CD  3000               	movlw	0
 13001     13CE                     u420_20:
 13002     13CE  00F5               	movwf	set_or_clear_comm_feature_callback@idle_setting
 13003                           
 13004                           ;../m-stack/usb/src/usb_cdc.c: 92:  _Bool data_multiplexed_state = (transfer_data.comm_f
      +                          eature & 2) != 0;
 13005     13CF  1CBD               	btfss	_transfer_data^(0+768),1
 13006     13D0  2BD3               	goto	u421_20
 13007     13D1  3001               	movlw	1
 13008     13D2  2BD4               	goto	u422_20
 13009     13D3                     u421_20:
 13010     13D3  3000               	movlw	0
 13011     13D4                     u422_20:
 13012     13D4  00F6               	movwf	set_or_clear_comm_feature_callback@data_multiplexed_state
 13013                           
 13014                           ;../m-stack/usb/src/usb_cdc.c: 94:  if (set_or_clear_request == CDC_SET_COMM_FEATURE) {
 13015     13D5  3002               	movlw	2
 13016     13D6  062E               	xorwf	_set_or_clear_request^(0+768),w
 13017     13D7  1D03               	btfss	3,2
 13018     13D8  2BE2               	goto	i1l4207
 13019                           
 13020                           ;../m-stack/usb/src/usb_cdc.c: 95:   return app_set_comm_feature_callback(transfer_inter
      +                          face,
 13021     13D9  0875               	movf	set_or_clear_comm_feature_callback@idle_setting,w
 13022     13DA  00F0               	movwf	app_set_comm_feature_callback@idle_setting
 13023     13DB  0876               	movf	set_or_clear_comm_feature_callback@data_multiplexed_state,w
 13024     13DC  00F1               	movwf	app_set_comm_feature_callback@data_multiplexed_state
 13025     13DD  0021               	movlb	1	; select bank1
 13026     13DE  0846               	movf	_transfer_interface^(0+128),w
 13027     13DF  3190  2058         	fcall	_app_set_comm_feature_callback
 13028     13E1  0008               	return
 13029     13E2                     i1l4207:
 13030                           
 13031                           ;../m-stack/usb/src/usb_cdc.c: 101:   return app_clear_comm_feature_callback(transfer_in
      +                          terface,
 13032     13E2  0875               	movf	set_or_clear_comm_feature_callback@idle_setting,w
 13033     13E3  00F0               	movwf	app_clear_comm_feature_callback@idle_setting
 13034     13E4  0876               	movf	set_or_clear_comm_feature_callback@data_multiplexed_state,w
 13035     13E5  00F1               	movwf	app_clear_comm_feature_callback@data_multiplexed_state
 13036     13E6  0021               	movlb	1	; select bank1
 13037     13E7  0846               	movf	_transfer_interface^(0+128),w
 13038     13E8  3190  2056         	fcall	_app_clear_comm_feature_callback
 13039     13EA  0008               	return
 13040     13EB                     __end_of_set_or_clear_comm_feature_callback:
 13041                           
 13042                           	psect	text72
 13043     1058                     __ptext72:	
 13044 ;; *************** function _app_set_comm_feature_callback *****************
 13045 ;; Defined at:
 13046 ;;		line 322 in file "../main.c"
 13047 ;; Parameters:    Size  Location     Type
 13048 ;;  interface       1    wreg     unsigned char 
 13049 ;;  idle_setting    1    0[COMMON] _Bool 
 13050 ;;  data_multipl    1    1[COMMON] _Bool 
 13051 ;; Auto vars:     Size  Location     Type
 13052 ;;  interface       1    0[COMMON] unsigned char 
 13053 ;; Return value:  Size  Location     Type
 13054 ;;                  1    wreg      char 
 13055 ;; Registers used:
 13056 ;;		wreg
 13057 ;; Tracked objects:
 13058 ;;		On entry : 1F/1
 13059 ;;		On exit  : 1F/1
 13060 ;;		Unchanged: 1F/0
 13061 ;; Data sizes:     COMMON   BANK0   BANK1   BANK2   BANK3   BANK4   BANK5   BANK6   BANK7   BANK8   BANK9  BANK10  BANK1
      +1  BANK12
 13062 ;;      Params:         2       0       0       0       0       0       0       0       0       0       0       0       
      +0       0
 13063 ;;      Locals:         0       0       0       0       0       0       0       0       0       0       0       0       
      +0       0
 13064 ;;      Temps:          0       0       0       0       0       0       0       0       0       0       0       0       
      +0       0
 13065 ;;      Totals:         2       0       0       0       0       0       0       0       0       0       0       0       
      +0       0
 13066 ;;Total ram usage:        2 bytes
 13067 ;; Hardware stack levels used: 1
 13068 ;; This function calls:
 13069 ;;		Nothing
 13070 ;; This function is called by:
 13071 ;;		_set_or_clear_comm_feature_callback
 13072 ;; This function uses a non-reentrant model
 13073 ;;
 13074                           
 13075     1058                     _app_set_comm_feature_callback:	
 13076                           ;psect for function _app_set_comm_feature_callback
 13077                           
 13078                           
 13079                           ;../main.c: 322: int8_t app_set_comm_feature_callback(uint8_t interface,;../main.c: 323:
      +                                                                _Bool idle_setting,;../main.c: 324:               
      +                                                 _Bool data_multiplexed_state);../main.c: 325: {;../main.c: 326:  
      +                             return -1;
 13080                           
 13081                           ;incstack = 0
 13082                           ; Regs used in _app_set_comm_feature_callback: [wreg]
 13083     1058  30FF               	movlw	255
 13084     1059  0008               	return
 13085     105A                     __end_of_app_set_comm_feature_callback:
 13086                           
 13087                           	psect	text73
 13088     1056                     __ptext73:	
 13089 ;; *************** function _app_clear_comm_feature_callback *****************
 13090 ;; Defined at:
 13091 ;;		line 329 in file "../main.c"
 13092 ;; Parameters:    Size  Location     Type
 13093 ;;  interface       1    wreg     unsigned char 
 13094 ;;  idle_setting    1    0[COMMON] _Bool 
 13095 ;;  data_multipl    1    1[COMMON] _Bool 
 13096 ;; Auto vars:     Size  Location     Type
 13097 ;;  interface       1    0[COMMON] unsigned char 
 13098 ;; Return value:  Size  Location     Type
 13099 ;;                  1    wreg      char 
 13100 ;; Registers used:
 13101 ;;		wreg
 13102 ;; Tracked objects:
 13103 ;;		On entry : 1F/1
 13104 ;;		On exit  : 1F/1
 13105 ;;		Unchanged: 1F/0
 13106 ;; Data sizes:     COMMON   BANK0   BANK1   BANK2   BANK3   BANK4   BANK5   BANK6   BANK7   BANK8   BANK9  BANK10  BANK1
      +1  BANK12
 13107 ;;      Params:         2       0       0       0       0       0       0       0       0       0       0       0       
      +0       0
 13108 ;;      Locals:         0       0       0       0       0       0       0       0       0       0       0       0       
      +0       0
 13109 ;;      Temps:          0       0       0       0       0       0       0       0       0       0       0       0       
      +0       0
 13110 ;;      Totals:         2       0       0       0       0       0       0       0       0       0       0       0       
      +0       0
 13111 ;;Total ram usage:        2 bytes
 13112 ;; Hardware stack levels used: 1
 13113 ;; This function calls:
 13114 ;;		Nothing
 13115 ;; This function is called by:
 13116 ;;		_set_or_clear_comm_feature_callback
 13117 ;; This function uses a non-reentrant model
 13118 ;;
 13119                           
 13120     1056                     _app_clear_comm_feature_callback:	
 13121                           ;psect for function _app_clear_comm_feature_callback
 13122                           
 13123                           
 13124                           ;../main.c: 329: int8_t app_clear_comm_feature_callback(uint8_t interface,;../main.c: 33
      +                          0:                                        _Bool idle_setting,;../main.c: 331:           
      +                                                       _Bool data_multiplexed_state);../main.c: 332: {;../main.c: 
      +                          333:     return -1;
 13125                           
 13126                           ;incstack = 0
 13127                           ; Regs used in _app_clear_comm_feature_callback: [wreg]
 13128     1056  30FF               	movlw	255
 13129     1057  0008               	return
 13130     1058                     __end_of_app_clear_comm_feature_callback:
 13131                           
 13132                           	psect	text74
 13133     10FE                     __ptext74:	
 13134 ;; *************** function _app_set_line_coding_callback *****************
 13135 ;; Defined at:
 13136 ;;		line 351 in file "../main.c"
 13137 ;; Parameters:    Size  Location     Type
 13138 ;;  interface       1    wreg     unsigned char 
 13139 ;;  coding          1    0[COMMON] PTR const struct cdc_lin
 13140 ;;		 -> transfer_data(7), 
 13141 ;; Auto vars:     Size  Location     Type
 13142 ;;  interface       1    0[COMMON] unsigned char 
 13143 ;; Return value:  Size  Location     Type
 13144 ;;                  1    wreg      char 
 13145 ;; Registers used:
 13146 ;;		wreg, fsr0l, fsr0h, fsr1l, fsr1h, status,2, status,0
 13147 ;; Tracked objects:
 13148 ;;		On entry : 1F/1
 13149 ;;		On exit  : 1F/1
 13150 ;;		Unchanged: 1F/0
 13151 ;; Data sizes:     COMMON   BANK0   BANK1   BANK2   BANK3   BANK4   BANK5   BANK6   BANK7   BANK8   BANK9  BANK10  BANK1
      +1  BANK12
 13152 ;;      Params:         1       0       0       0       0       0       0       0       0       0       0       0       
      +0       0
 13153 ;;      Locals:         0       0       0       0       0       0       0       0       0       0       0       0       
      +0       0
 13154 ;;      Temps:          1       0       0       0       0       0       0       0       0       0       0       0       
      +0       0
 13155 ;;      Totals:         2       0       0       0       0       0       0       0       0       0       0       0       
      +0       0
 13156 ;;Total ram usage:        2 bytes
 13157 ;; Hardware stack levels used: 1
 13158 ;; This function calls:
 13159 ;;		Nothing
 13160 ;; This function is called by:
 13161 ;;		_set_line_coding
 13162 ;; This function uses a non-reentrant model
 13163 ;;
 13164                           
 13165     10FE                     _app_set_line_coding_callback:	
 13166                           ;psect for function _app_set_line_coding_callback
 13167                           
 13168                           
 13169                           ;../main.c: 351: int8_t app_set_line_coding_callback(uint8_t interface,;../main.c: 352: 
      +                                                              const struct cdc_line_coding *coding);../main.c: 353
      +                          : {;../main.c: 354:     line_coding = *coding;
 13170                           
 13171                           ;incstack = 0
 13172                           ; Regs used in _app_set_line_coding_callback: [wreg-fsr1h+status,2+status,0]
 13173     10FE  0870               	movf	app_set_line_coding_callback@coding,w
 13174     10FF  0086               	movwf	6
 13175     1100  3003               	movlw	3	; select bank6/7
 13176     1101  0087               	movwf	7
 13177     1102  3060               	movlw	low _line_coding
 13178     1103  0084               	movwf	4
 13179     1104  3003               	movlw	high _line_coding
 13180     1105  0085               	movwf	5
 13181     1106  3007               	movlw	7
 13182     1107  00F1               	movwf	??_app_set_line_coding_callback
 13183     1108                     u332_20:
 13184     1108  0016               	moviw fsr1++
 13185     1109  001A               	movwi fsr0++
 13186     110A  0BF1               	decfsz	??_app_set_line_coding_callback,f
 13187     110B  2908               	goto	u332_20
 13188                           
 13189                           ;../main.c: 355:     return 0;
 13190     110C  3000               	movlw	0
 13191     110D  0008               	return
 13192     110E                     __end_of_app_set_line_coding_callback:
 13193                           
 13194                           	psect	text75
 13195     1054                     __ptext75:	
 13196 ;; *************** function _app_usb_reset_callback *****************
 13197 ;; Defined at:
 13198 ;;		line 302 in file "../main.c"
 13199 ;; Parameters:    Size  Location     Type
 13200 ;;		None
 13201 ;; Auto vars:     Size  Location     Type
 13202 ;;		None
 13203 ;; Return value:  Size  Location     Type
 13204 ;;                  1    wreg      void 
 13205 ;; Registers used:
 13206 ;;		None
 13207 ;; Tracked objects:
 13208 ;;		On entry : 1F/1D
 13209 ;;		On exit  : 1F/1D
 13210 ;;		Unchanged: 1E/0
 13211 ;; Data sizes:     COMMON   BANK0   BANK1   BANK2   BANK3   BANK4   BANK5   BANK6   BANK7   BANK8   BANK9  BANK10  BANK1
      +1  BANK12
 13212 ;;      Params:         0       0       0       0       0       0       0       0       0       0       0       0       
      +0       0
 13213 ;;      Locals:         0       0       0       0       0       0       0       0       0       0       0       0       
      +0       0
 13214 ;;      Temps:          0       0       0       0       0       0       0       0       0       0       0       0       
      +0       0
 13215 ;;      Totals:         0       0       0       0       0       0       0       0       0       0       0       0       
      +0       0
 13216 ;;Total ram usage:        0 bytes
 13217 ;; Hardware stack levels used: 1
 13218 ;; This function calls:
 13219 ;;		Nothing
 13220 ;; This function is called by:
 13221 ;;		_usb_service
 13222 ;; This function uses a non-reentrant model
 13223 ;;
 13224                           
 13225     1054                     _app_usb_reset_callback:	
 13226                           ;psect for function _app_usb_reset_callback
 13227                           
 13228                           
 13229                           ;incstack = 0
 13230                           ; Regs used in _app_usb_reset_callback: []
 13231     1054  0008               	return
 13232     1055                     __end_of_app_usb_reset_callback:
 13233                           
 13234                           	psect	text76
 13235     1053                     __ptext76:	
 13236 ;; *************** function _app_start_of_frame_callback *****************
 13237 ;; Defined at:
 13238 ;;		line 297 in file "../main.c"
 13239 ;; Parameters:    Size  Location     Type
 13240 ;;		None
 13241 ;; Auto vars:     Size  Location     Type
 13242 ;;		None
 13243 ;; Return value:  Size  Location     Type
 13244 ;;                  1    wreg      void 
 13245 ;; Registers used:
 13246 ;;		None
 13247 ;; Tracked objects:
 13248 ;;		On entry : 1F/1D
 13249 ;;		On exit  : 1F/1D
 13250 ;;		Unchanged: 1E/0
 13251 ;; Data sizes:     COMMON   BANK0   BANK1   BANK2   BANK3   BANK4   BANK5   BANK6   BANK7   BANK8   BANK9  BANK10  BANK1
      +1  BANK12
 13252 ;;      Params:         0       0       0       0       0       0       0       0       0       0       0       0       
      +0       0
 13253 ;;      Locals:         0       0       0       0       0       0       0       0       0       0       0       0       
      +0       0
 13254 ;;      Temps:          0       0       0       0       0       0       0       0       0       0       0       0       
      +0       0
 13255 ;;      Totals:         0       0       0       0       0       0       0       0       0       0       0       0       
      +0       0
 13256 ;;Total ram usage:        0 bytes
 13257 ;; Hardware stack levels used: 1
 13258 ;; This function calls:
 13259 ;;		Nothing
 13260 ;; This function is called by:
 13261 ;;		_usb_service
 13262 ;; This function uses a non-reentrant model
 13263 ;;
 13264                           
 13265     1053                     _app_start_of_frame_callback:	
 13266                           ;psect for function _app_start_of_frame_callback
 13267                           
 13268                           
 13269                           ;incstack = 0
 13270                           ; Regs used in _app_start_of_frame_callback: []
 13271     1053  0008               	return
 13272     1054                     __end_of_app_start_of_frame_callback:
 13273                           
 13274                           	psect	text77
 13275     1052                     __ptext77:	
 13276 ;; *************** function _app_out_transaction_callback *****************
 13277 ;; Defined at:
 13278 ;;		line 269 in file "../main.c"
 13279 ;; Parameters:    Size  Location     Type
 13280 ;;  endpoint        1    wreg     unsigned char 
 13281 ;; Auto vars:     Size  Location     Type
 13282 ;;  endpoint        1    0[COMMON] unsigned char 
 13283 ;; Return value:  Size  Location     Type
 13284 ;;                  1    wreg      void 
 13285 ;; Registers used:
 13286 ;;		wreg
 13287 ;; Tracked objects:
 13288 ;;		On entry : 1F/0
 13289 ;;		On exit  : 1F/0
 13290 ;;		Unchanged: 1F/0
 13291 ;; Data sizes:     COMMON   BANK0   BANK1   BANK2   BANK3   BANK4   BANK5   BANK6   BANK7   BANK8   BANK9  BANK10  BANK1
      +1  BANK12
 13292 ;;      Params:         0       0       0       0       0       0       0       0       0       0       0       0       
      +0       0
 13293 ;;      Locals:         0       0       0       0       0       0       0       0       0       0       0       0       
      +0       0
 13294 ;;      Temps:          0       0       0       0       0       0       0       0       0       0       0       0       
      +0       0
 13295 ;;      Totals:         0       0       0       0       0       0       0       0       0       0       0       0       
      +0       0
 13296 ;;Total ram usage:        0 bytes
 13297 ;; Hardware stack levels used: 1
 13298 ;; This function calls:
 13299 ;;		Nothing
 13300 ;; This function is called by:
 13301 ;;		_usb_service
 13302 ;; This function uses a non-reentrant model
 13303 ;;
 13304                           
 13305     1052                     _app_out_transaction_callback:	
 13306                           ;psect for function _app_out_transaction_callback
 13307                           
 13308                           
 13309                           ;incstack = 0
 13310                           ; Regs used in _app_out_transaction_callback: [wreg]
 13311     1052  0008               	return
 13312     1053                     __end_of_app_out_transaction_callback:
 13313                           
 13314                           	psect	text78
 13315     1051                     __ptext78:	
 13316 ;; *************** function _app_in_transaction_complete_callback *****************
 13317 ;; Defined at:
 13318 ;;		line 274 in file "../main.c"
 13319 ;; Parameters:    Size  Location     Type
 13320 ;;  endpoint        1    wreg     unsigned char 
 13321 ;; Auto vars:     Size  Location     Type
 13322 ;;  endpoint        1    0[COMMON] unsigned char 
 13323 ;; Return value:  Size  Location     Type
 13324 ;;                  1    wreg      void 
 13325 ;; Registers used:
 13326 ;;		wreg
 13327 ;; Tracked objects:
 13328 ;;		On entry : 1F/0
 13329 ;;		On exit  : 1F/0
 13330 ;;		Unchanged: 1F/0
 13331 ;; Data sizes:     COMMON   BANK0   BANK1   BANK2   BANK3   BANK4   BANK5   BANK6   BANK7   BANK8   BANK9  BANK10  BANK1
      +1  BANK12
 13332 ;;      Params:         0       0       0       0       0       0       0       0       0       0       0       0       
      +0       0
 13333 ;;      Locals:         0       0       0       0       0       0       0       0       0       0       0       0       
      +0       0
 13334 ;;      Temps:          0       0       0       0       0       0       0       0       0       0       0       0       
      +0       0
 13335 ;;      Totals:         0       0       0       0       0       0       0       0       0       0       0       0       
      +0       0
 13336 ;;Total ram usage:        0 bytes
 13337 ;; Hardware stack levels used: 1
 13338 ;; This function calls:
 13339 ;;		Nothing
 13340 ;; This function is called by:
 13341 ;;		_usb_service
 13342 ;; This function uses a non-reentrant model
 13343 ;;
 13344                           
 13345     1051                     _app_in_transaction_complete_callback:	
 13346                           ;psect for function _app_in_transaction_complete_callback
 13347                           
 13348                           
 13349                           ;incstack = 0
 13350                           ; Regs used in _app_in_transaction_complete_callback: [wreg]
 13351     1051  0008               	return
 13352     1052                     __end_of_app_in_transaction_complete_callback:
 13353     007E                     btemp	set	126	;btemp
 13354     007E                     int$flags	set	126
 13355     007E                     wtemp0	set	126
 13356     22D8                     
 13357                           	psect	idloc
 13358                           
 13359                           ;Config register IDLOC0 @ 0x8000
 13360                           ;	unspecified, using default values
 13361     8000                     	org	32768
 13362     8000  3FFF               	dw	16383
 13363                           
 13364                           ;Config register IDLOC1 @ 0x8001
 13365                           ;	unspecified, using default values
 13366     8001                     	org	32769
 13367     8001  3FFF               	dw	16383
 13368                           
 13369                           ;Config register IDLOC2 @ 0x8002
 13370                           ;	unspecified, using default values
 13371     8002                     	org	32770
 13372     8002  3FFF               	dw	16383
 13373                           
 13374                           ;Config register IDLOC3 @ 0x8003
 13375                           ;	unspecified, using default values
 13376     8003                     	org	32771
 13377     8003  3FFF               	dw	16383
 13378                           
 13379                           	psect	config
 13380                           
 13381                           ;Config register CONFIG1 @ 0x8007
 13382                           ;	Oscillator Selection Bits
 13383                           ;	FOSC = INTOSC, INTOSC oscillator: I/O function on CLKIN pin
 13384                           ;	Watchdog Timer Enable
 13385                           ;	WDTE = OFF, WDT disabled
 13386                           ;	Power-up Timer Enable
 13387                           ;	PWRTE = OFF, PWRT disabled
 13388                           ;	MCLR Pin Function Select
 13389                           ;	MCLRE = ON, MCLR/VPP pin function is MCLR
 13390                           ;	Flash Program Memory Code Protection
 13391                           ;	CP = OFF, Program memory code protection is disabled
 13392                           ;	Brown-out Reset Enable
 13393                           ;	BOREN = ON, Brown-out Reset enabled
 13394                           ;	Clock Out Enable
 13395                           ;	CLKOUTEN = OFF, CLKOUT function is disabled. I/O or oscillator function on the CLKOUT 
      +                          pin
 13396                           ;	Internal/External Switchover Mode
 13397                           ;	IESO = OFF, Internal/External Switchover Mode is disabled
 13398                           ;	Fail-Safe Clock Monitor Enable
 13399                           ;	FCMEN = OFF, Fail-Safe Clock Monitor is disabled
 13400     8007                     	org	32775
 13401     8007  0FE4               	dw	4068
 13402                           
 13403                           ;Config register CONFIG2 @ 0x8008
 13404                           ;	Flash Memory Self-Write Protection
 13405                           ;	WRT = OFF, Write protection off
 13406                           ;	CPU System Clock Selection Bit
 13407                           ;	CPUDIV = NOCLKDIV, NO CPU system divide
 13408                           ;	USB Low Speed Clock Selection bit
 13409                           ;	USBLSCLK = 48MHz, System clock expects 48 MHz, FS/LS USB CLKENs divide-by is set to 8.
 13410                           ;	PLL Multiplier Selection Bit
 13411                           ;	PLLMULT = 3x, 3x Output Frequency Selected
 13412                           ;	PLL Enable Bit
 13413                           ;	PLLEN = ENABLED, 3x or 4x PLL Enabled
 13414                           ;	Stack Overflow/Underflow Reset Enable
 13415                           ;	STVREN = ON, Stack Overflow or Underflow will cause a Reset
 13416                           ;	Brown-out Reset Voltage Selection
 13417                           ;	BORV = LO, Brown-out Reset Voltage (Vbor), low trip point selected.
 13418                           ;	Low-Power Brown Out Reset
 13419                           ;	LPBOR = ON, Low-Power BOR is enabled
 13420                           ;	Low-Voltage Programming Enable
 13421                           ;	LVP = ON, Low-voltage programming enabled
 13422     8008                     	org	32776
 13423     8008  37CF               	dw	14287

Data Sizes:
    Strings     17
    Constant    329
    Data        51
    BSS         114
    Persistent  32
    Stack       0

Auto Spaces:
    Space          Size  Autos    Used
    COMMON           14     14      14
    BANK0            40     37      40
    BANK1            48     34      48
    BANK2             0      0       0
    BANK3             0      0       0
    BANK4             0      0       0
    BANK5            58     49      49
    BANK6            80     26      75
    BANK7            80      0      67
    BANK8            80      0      32
    BANK9             8      0       0
    BANK10            0      0       0
    BANK11            0      0       0
    BANK12            0      0       0

Pointer List with Targets:

    app_get_comm_feature_callback@data_multiplexed_state	PTR _Bool  size(1) Largest target is 1
		 -> process_cdc_setup_request@data_multiplexed_state(BANK1[1]), 

    app_get_comm_feature_callback@idle_setting	PTR _Bool  size(1) Largest target is 1
		 -> process_cdc_setup_request@idle_setting(BANK1[1]), 

    app_get_encapsulated_response@callback	PTR PTR FTN(_Bool ,PTR void ,)char  size(1) Largest target is 2
		 -> process_cdc_setup_request@callback(BANK1[2]), 

    app_get_encapsulated_response@context	PTR PTR void  size(1) Largest target is 2
		 -> process_cdc_setup_request@context(BANK1[2]), 

    app_get_encapsulated_response@report	PTR PTR const void  size(1) Largest target is 2
		 -> process_cdc_setup_request@response(BANK1[2]), 

    app_get_line_coding_callback@coding	PTR struct cdc_line_coding size(1) Largest target is 7
		 -> transfer_data(BANK6[7]), 

    app_set_line_coding_callback@coding	PTR const struct cdc_line_coding size(1) Largest target is 7
		 -> transfer_data(BANK6[7]), 

    app_unknown_get_descriptor_callback@descriptor	PTR PTR const void  size(1) Largest target is 2
		 -> handle_standard_control_request@desc_605(BANK1[2]), 

    app_unknown_get_descriptor_callback@pkt	PTR const struct setup_packet size(2) Largest target is 294
		 -> ep_buffers(BIGRAM[294]), 

    app_unknown_setup_request_callback@setup	PTR const struct setup_packet size(2) Largest target is 294
		 -> ep_buffers(BIGRAM[294]), 

    callback$1	PTR void  size(2) Largest target is 0
		 -> NULL(NULL[0]), 

    ep0_buf$in	const PTR unsigned char  size(2) Largest target is 294
		 -> ep_buffers(BIGRAM[294]), 

    ep0_buf$out	const PTR unsigned char  size(2) Largest target is 294
		 -> ep_buffers(BIGRAM[294]), 

    ep0_data_stage_callback	PTR FTN(_Bool ,PTR void ,)char  size(2) Largest target is 1
		 -> set_line_coding(), set_or_clear_comm_feature_callback(), NULL(), NULL(NULL[0]), 

    ep0_data_stage_callback$1	PTR void  size(2) Largest target is 0
		 -> NULL(NULL[0]), 

    ep0_data_stage_context	PTR void  size(2) Largest target is 0
		 -> NULL(NULL[0]), 

    ep0_data_stage_in_buffer	PTR unsigned char  size(2) Largest target is 131
		 -> cdc_data_string(CODE[38]), cdc_interface_string(CODE[28]), configuration_1(CODE[131]), func_prog_string(CODE[30]), 
		 -> func_serial_string(CODE[14]), g_configuration(BANK1[1]), handle_standard_control_request@ret(BANK1[2]), handle_standard_control_request@ret_614(BANK1[2]), 
		 -> handle_standard_control_request@ret_617(BANK1[1]), product_string(CODE[24]), serial_num_string(CODE[22]), str00(CODE[4]), 
		 -> this_device_descriptor(CODE[18]), transfer_data(BANK6[7]), vendor_string(CODE[20]), NULL(NULL[0]), 

    ep0_data_stage_out_buffer	PTR unsigned char  size(1) Largest target is 7
		 -> transfer_data(BANK6[7]), NULL(NULL[0]), 

    ep_buf$in	const PTR unsigned char  size(2) Largest target is 294
		 -> ep_buffers(BIGRAM[294]), NULL(NULL[0]), 

    ep_buf$out	const PTR unsigned char  size(2) Largest target is 294
		 -> ep_buffers(BIGRAM[294]), NULL(NULL[0]), 

    exec_ops@endp	PTR unsigned char  size(2) Largest target is 280
		 -> pp_buf(BIGRAM[280]), 

    exec_ops@ops	PTR unsigned char  size(2) Largest target is 280
		 -> pp_buf(BIGRAM[280]), 

    handle_ep0_setup@setup	PTR struct setup_packet size(2) Largest target is 294
		 -> ep_buffers(BIGRAM[294]), 

    handle_standard_control_request@desc	PTR const struct configuration_descriptor size(2) Largest target is 131
		 -> configuration_1(CODE[131]), 

    handle_standard_control_request@desc_602	PTR const void  size(2) Largest target is 38
		 -> cdc_data_string(CODE[38]), cdc_interface_string(CODE[28]), func_prog_string(CODE[30]), func_serial_string(CODE[14]), 
		 -> product_string(CODE[24]), serial_num_string(CODE[22]), str00(CODE[4]), vendor_string(CODE[20]), 

    handle_standard_control_request@setup	PTR struct setup_packet size(2) Largest target is 294
		 -> ep_buffers(BIGRAM[294]), 

    i1_init_endpoints$2399	const PTR void  size(2) Largest target is 294
		 -> ep_buffers(BIGRAM[294]), NULL(NULL[0]), 

    init_endpoints$2319	const PTR void  size(2) Largest target is 294
		 -> ep_buffers(BIGRAM[294]), NULL(NULL[0]), 

    main@out_buf	PTR const unsigned char  size(2) Largest target is 294
		 -> ep_buffers(BIGRAM[294]), NULL(NULL[0]), 

    memcpy@d	PTR unsigned char  size(2) Largest target is 294
		 -> ep_buffers(BIGRAM[294]), transfer_data(BANK6[7]), NULL(NULL[0]), 

    memcpy@d1	PTR void  size(2) Largest target is 294
		 -> ep_buffers(BIGRAM[294]), transfer_data(BANK6[7]), NULL(NULL[0]), 

    memcpy@s	PTR const unsigned char  size(2) Largest target is 294
		 -> cdc_data_string(CODE[38]), cdc_interface_string(CODE[28]), configuration_1(CODE[131]), ep_buffers(BIGRAM[294]), 
		 -> func_prog_string(CODE[30]), func_serial_string(CODE[14]), g_configuration(BANK1[1]), handle_standard_control_request@ret(BANK1[2]), 
		 -> handle_standard_control_request@ret_614(BANK1[2]), handle_standard_control_request@ret_617(BANK1[1]), pp_res_buf(BANK8[32]), product_string(CODE[24]), 
		 -> serial_num_string(CODE[22]), str00(CODE[4]), this_device_descriptor(CODE[18]), transfer_data(BANK6[7]), 
		 -> uart_rx_buf(BANK7[32]), usb_send_debug_hex@buf(COMMON[8]), vendor_string(CODE[20]), NULL(NULL[0]), 

    memcpy@s1	PTR const void  size(2) Largest target is 294
		 -> cdc_data_string(CODE[38]), cdc_interface_string(CODE[28]), configuration_1(CODE[131]), ep_buffers(BIGRAM[294]), 
		 -> func_prog_string(CODE[30]), func_serial_string(CODE[14]), g_configuration(BANK1[1]), handle_standard_control_request@ret(BANK1[2]), 
		 -> handle_standard_control_request@ret_614(BANK1[2]), handle_standard_control_request@ret_617(BANK1[1]), pp_res_buf(BANK8[32]), product_string(CODE[24]), 
		 -> serial_num_string(CODE[22]), str00(CODE[4]), this_device_descriptor(CODE[18]), transfer_data(BANK6[7]), 
		 -> uart_rx_buf(BANK7[32]), usb_send_debug_hex@buf(COMMON[8]), vendor_string(CODE[20]), NULL(NULL[0]), 

    memset@dest	PTR void  size(2) Largest target is 40
		 -> bds(BANK0[40]), pp_params(BANK6[11]), UEP0(SFR29[1]), 

    memset@p	PTR unsigned char  size(2) Largest target is 40
		 -> bds(BANK0[40]), pp_params(BANK6[11]), UEP0(SFR29[1]), 

    NULL$1	PTR void  size(2) Largest target is 0
		 -> NULL(NULL[0]), 

    pic16_linear_addr@ptr	PTR void  size(2) Largest target is 294
		 -> ep_buffers(BIGRAM[294]), NULL(NULL[0]), 

    pp_init@sendbackp	PTR FTN(unsigned char ,)void  size(2) Largest target is 1
		 -> pp_send_res_byte(), 

    pp_process@data	PTR const unsigned char  size(2) Largest target is 294
		 -> ep_buffers(BIGRAM[294]), NULL(NULL[0]), 

    process_cdc_setup_request@setup	PTR const struct setup_packet size(2) Largest target is 294
		 -> ep_buffers(BIGRAM[294]), 

    S68ep0_buf$in	const PTR unsigned char  size(2) Largest target is 294
		 -> ep_buffers(BIGRAM[294]), 

    S68ep0_buf$out	const PTR unsigned char  size(2) Largest target is 294
		 -> ep_buffers(BIGRAM[294]), 

    S74ep_buf$in	const PTR unsigned char  size(2) Largest target is 294
		 -> ep_buffers(BIGRAM[294]), NULL(NULL[0]), 

    S74ep_buf$out	const PTR unsigned char  size(2) Largest target is 294
		 -> ep_buffers(BIGRAM[294]), NULL(NULL[0]), 

    sendback	PTR FTN(unsigned char ,)void  size(2) Largest target is 1
		 -> pp_send_res_byte(), NULL(), 

    set_line_coding@context	PTR void  size(2) Largest target is 0
		 -> NULL(NULL[0]), 

    set_or_clear_comm_feature_callback@context	PTR void  size(2) Largest target is 0
		 -> NULL(NULL[0]), 

    sp__memcpy	PTR void  size(2) Largest target is 294
		 -> ep_buffers(BIGRAM[294]), transfer_data(BANK6[7]), NULL(NULL[0]), 

    sp__memset	PTR void  size(2) Largest target is 40
		 -> bds(BANK0[40]), pp_params(BANK6[11]), UEP0(SFR29[1]), 

    sp__usb_get_in_buffer	PTR unsigned char  size(2) Largest target is 294
		 -> ep_buffers(BIGRAM[294]), NULL(NULL[0]), 

    start_control_return@ptr	PTR const void  size(2) Largest target is 131
		 -> cdc_data_string(CODE[38]), cdc_interface_string(CODE[28]), configuration_1(CODE[131]), func_prog_string(CODE[30]), 
		 -> func_serial_string(CODE[14]), g_configuration(BANK1[1]), handle_standard_control_request@ret(BANK1[2]), handle_standard_control_request@ret_614(BANK1[2]), 
		 -> handle_standard_control_request@ret_617(BANK1[1]), product_string(CODE[24]), serial_num_string(CODE[22]), str00(CODE[4]), 
		 -> this_device_descriptor(CODE[18]), transfer_data(BANK6[7]), vendor_string(CODE[20]), NULL(NULL[0]), 

    uart_tx_buf	PTR const unsigned char  size(2) Largest target is 294
		 -> ep_buffers(BIGRAM[294]), NULL(NULL[0]), 

    usb_application_config_descs	PTR const struct configuration_descriptor[1] size(2) Largest target is 131
		 -> configuration_1(CODE[131]), 

    usb_application_get_string@ptr	PTR PTR const void  size(1) Largest target is 2
		 -> handle_standard_control_request@desc_602(BANK1[2]), 

    usb_get_out_buffer@buf	PTR PTR const unsigned char  size(2) Largest target is 2
		 -> main@out_buf(BANK5[2]), uart_tx_buf(BANK6[2]), 

    usb_init@ep	PTR volatile struct . size(2) Largest target is 1
		 -> UEP0(SFR29[1]), 

    usb_send_data@buf	PTR unsigned char  size(2) Largest target is 294
		 -> ep_buffers(BIGRAM[294]), NULL(NULL[0]), 

    usb_send_data@data	PTR unsigned char  size(2) Largest target is 32
		 -> pp_res_buf(BANK8[32]), uart_rx_buf(BANK7[32]), usb_send_debug_hex@buf(COMMON[8]), 

    usb_send_data_stage@buffer	PTR unsigned char  size(1) Largest target is 7
		 -> transfer_data(BANK6[7]), NULL(NULL[0]), 

    usb_send_data_stage@callback	PTR FTN(_Bool ,PTR void ,)char  size(2) Largest target is 1
		 -> NULL(), 

    usb_send_data_stage@context	PTR void  size(2) Largest target is 0
		 -> NULL(NULL[0]), 

    usb_send_debug_hex@hex	PTR const unsigned char  size(2) Largest target is 17
		 -> STR_1(CODE[17]), 

    usb_send_in_buffer@bd	PTR struct buffer_descriptor size(1) Largest target is 40
		 -> bds(BANK0[40]), 

    usb_service@ep	PTR volatile struct . size(2) Largest target is 1
		 -> UEP0(SFR29[1]), 

    usb_start_receive_ep0_data_stage@buffer	PTR unsigned char  size(1) Largest target is 7
		 -> transfer_data(BANK6[7]), 

    usb_start_receive_ep0_data_stage@callback	PTR FTN(_Bool ,PTR void ,)char  size(2) Largest target is 1
		 -> set_line_coding(), set_or_clear_comm_feature_callback(), 

    usb_start_receive_ep0_data_stage@context	PTR void  size(2) Largest target is 0
		 -> NULL(NULL[0]), 


Critical Paths under _main in COMMON

    None.

Critical Paths under _isr in COMMON

    _usb_service->i1_usb_init
    i1_init_endpoints->i1_pic16_linear_addr
    i1_pic16_linear_addr->i1___wmul
    _usb_halt_ep_out->i1___wmul
    _usb_halt_ep_in->_stall_ep_in
    _stall_ep_in->i1___wmul
    _start_control_return->_usb_send_in_buffer_0
    _handle_ep0_out->i1_memcpy
    _handle_ep0_in->_usb_send_in_buffer_0
    _usb_send_in_buffer_0->i1_usb_in_endpoint_halted
    i1_usb_in_endpoint_halted->i1___wmul
    _set_or_clear_comm_feature_callback->_app_clear_comm_feature_callback
    _set_or_clear_comm_feature_callback->_app_set_comm_feature_callback
    _set_line_coding->_app_set_line_coding_callback

Critical Paths under _main in BANK0

    None.

Critical Paths under _isr in BANK0

    _isr->_usb_service
    _usb_service->_handle_ep0_setup
    i1_usb_init->i1_init_endpoints
    _handle_ep0_setup->_app_unknown_setup_request_callback
    _handle_standard_control_request->i1_init_endpoints
    i1_init_endpoints->i1_pic16_linear_addr
    _app_unknown_setup_request_callback->_process_cdc_setup_request
    _process_cdc_setup_request->_usb_send_data_stage
    _usb_send_data_stage->_start_control_return
    _start_control_return->_usb_send_in_buffer_0
    _handle_ep0_in->_usb_send_in_buffer_0

Critical Paths under _main in BANK1

    None.

Critical Paths under _isr in BANK1

    _isr->_usb_service
    _handle_ep0_setup->_handle_standard_control_request
    _app_unknown_setup_request_callback->_process_cdc_setup_request

Critical Paths under _main in BANK2

    None.

Critical Paths under _isr in BANK2

    None.

Critical Paths under _main in BANK3

    None.

Critical Paths under _isr in BANK3

    None.

Critical Paths under _main in BANK4

    None.

Critical Paths under _isr in BANK4

    None.

Critical Paths under _main in BANK5

    _main->_pp_process
    _usb_out_endpoint_halted->___wmul
    _usb_init->_init_endpoints
    _init_endpoints->_pic16_linear_addr
    _pic16_linear_addr->___wmul
    _usb_get_out_buffer->___wmul
    _usb_arm_out_endpoint->___wmul
    _pp_process->_exec_ops
    _exec_ops->_pp_send_res_byte
    _pp_send_res_byte->_usb_send_data
    _pp_flush_res_byte->_usb_send_data
    _usb_send_data->_usb_send_in_buffer
    _usb_send_in_buffer->_usb_in_endpoint_halted
    _usb_in_endpoint_halted->___wmul
    _usb_get_in_buffer->___wmul

Critical Paths under _isr in BANK5

    None.

Critical Paths under _main in BANK6

    _main->_pp_process
    _pp_process->_exec_ops

Critical Paths under _isr in BANK6

    None.

Critical Paths under _main in BANK7

    None.

Critical Paths under _isr in BANK7

    None.

Critical Paths under _main in BANK8

    None.

Critical Paths under _isr in BANK8

    None.

Critical Paths under _main in BANK9

    None.

Critical Paths under _isr in BANK9

    None.

Critical Paths under _main in BANK10

    None.

Critical Paths under _isr in BANK10

    None.

Critical Paths under _main in BANK11

    None.

Critical Paths under _isr in BANK11

    None.

Critical Paths under _main in BANK12

    None.

Critical Paths under _isr in BANK12

    None.

Call Graph Tables:

 ---------------------------------------------------------------------------------
 (Depth) Function   	        Calls       Base Space   Used Autos Params    Refs
 ---------------------------------------------------------------------------------
 (0) _main                                                 7     7      0  137603
                                             42 BANK5      7     7      0
                      _hardware_init
                           _led_init
                  _pp_flush_res_byte
                            _pp_init
                         _pp_process
                         _timer_init
                          _uart_init
               _usb_arm_out_endpoint
              _usb_get_configuration
                 _usb_get_out_buffer
             _usb_in_endpoint_halted
                           _usb_init
            _usb_out_endpoint_halted
          _usb_out_endpoint_has_data
                      _usb_send_data
 ---------------------------------------------------------------------------------
 (1) _usb_out_endpoint_has_data                            2     2      0      31
                                              0 BANK5      2     2      0
 ---------------------------------------------------------------------------------
 (1) _usb_out_endpoint_halted                              5     5      0    5497
                                              6 BANK5      5     5      0
                             ___wmul
 ---------------------------------------------------------------------------------
 (1) _usb_init                                             5     5      0   14556
                                             33 BANK5      5     5      0
                     _init_endpoints
                             _memset
               _reset_ep0_data_stage
 ---------------------------------------------------------------------------------
 (2) _reset_ep0_data_stage                                 0     0      0       0
 ---------------------------------------------------------------------------------
 (2) _init_endpoints                                       9     9      0   13226
                                             24 BANK5      9     9      0
                             ___wmul
                             _memset
                  _pic16_linear_addr
 ---------------------------------------------------------------------------------
 (3) _pic16_linear_addr                                   18    16      2    6142
                                              6 BANK5     18    16      2
                             ___wmul
 ---------------------------------------------------------------------------------
 (1) _usb_get_out_buffer                                   7     5      2    5834
                                              6 BANK5      7     5      2
                             ___wmul
 ---------------------------------------------------------------------------------
 (1) _usb_get_configuration                                0     0      0       0
 ---------------------------------------------------------------------------------
 (1) _usb_arm_out_endpoint                                 7     7      0    5748
                                              6 BANK5      7     7      0
                             ___wmul
 ---------------------------------------------------------------------------------
 (1) _uart_init                                            2     2      0      68
                                              0 BANK5      2     2      0
 ---------------------------------------------------------------------------------
 (1) _timer_init                                           0     0      0       0
 ---------------------------------------------------------------------------------
 (1) _pp_process                                           9     5      4   61035
                                             37 BANK5      5     5      0
                                             22 BANK6      4     0      4
                                NULL *
                           _exec_ops
                   _pp_send_res_byte *
 ---------------------------------------------------------------------------------
 (2) _exec_ops                                            29    25      4   35048
                                             31 BANK5      6     2      4
                                              0 BANK6     22    22      0
                                NULL *
                             ___wmul
                        _dummy_locks
                             _memset
                   _pp_send_res_byte *
                          _send_bits
 ---------------------------------------------------------------------------------
 (3) _send_bits                                            4     3      1     549
                                              0 BANK5      4     3      1
 ---------------------------------------------------------------------------------
 (2) _pp_send_res_byte                                     3     2      1   25646
                                             28 BANK5      3     2      1
             _usb_in_endpoint_halted
                      _usb_send_data
 ---------------------------------------------------------------------------------
 (2) _memset                                               8     2      6    1073
                                              0 BANK5      8     2      6
 ---------------------------------------------------------------------------------
 (3) _dummy_locks                                          3     3      0      68
                                              0 BANK5      3     3      0
 ---------------------------------------------------------------------------------
 (11) NULL(Fake)                                           3     0      3       0
 ---------------------------------------------------------------------------------
 (1) _pp_init                                              2     0      2     135
                                              0 BANK5      2     0      2
 ---------------------------------------------------------------------------------
 (1) _pp_flush_res_byte                                    2     2      0   19502
                                             28 BANK5      2     2      0
                      _usb_send_data
 ---------------------------------------------------------------------------------
 (1) _usb_send_data                                        7     3      4   19502
                                             21 BANK5      7     3      4
                             _memcpy
                  _usb_get_in_buffer
               _usb_in_endpoint_busy
                 _usb_send_in_buffer
 ---------------------------------------------------------------------------------
 (2) _usb_send_in_buffer                                  10     8      2   11445
                                             11 BANK5     10     8      2
                             ___wmul
             _usb_in_endpoint_halted
 ---------------------------------------------------------------------------------
 (3) _usb_in_endpoint_halted                               5     5      0    5497
                                              6 BANK5      5     5      0
                             ___wmul
 ---------------------------------------------------------------------------------
 (2) _usb_in_endpoint_busy                                 2     2      0      31
                                              0 BANK5      2     2      0
 ---------------------------------------------------------------------------------
 (2) _usb_get_in_buffer                                    7     5      2    5497
                                              6 BANK5      7     5      2
                             ___wmul
 ---------------------------------------------------------------------------------
 (4) ___wmul                                               6     2      4    5466
                                              0 BANK5      6     2      4
 ---------------------------------------------------------------------------------
 (2) _memcpy                                              11     5      6    1141
                                              0 BANK5     11     5      6
 ---------------------------------------------------------------------------------
 (1) _led_init                                             0     0      0       0
 ---------------------------------------------------------------------------------
 (1) _hardware_init                                        0     0      0       0
 ---------------------------------------------------------------------------------
 Estimated maximum stack depth 11
 ---------------------------------------------------------------------------------
 (Depth) Function   	        Calls       Base Space   Used Autos Params    Refs
 ---------------------------------------------------------------------------------
 (8) _isr                                                  0     0      0   37534
                        _usb_service
 ---------------------------------------------------------------------------------
 (9) _usb_service                                         10    10      0   37534
                                             32 BANK0      5     5      0
                                             29 BANK1      5     5      0
_app_in_transaction_complete_callbac
       _app_out_transaction_callback
        _app_start_of_frame_callback
             _app_usb_reset_callback
                      _handle_ep0_in
                     _handle_ep0_out
                   _handle_ep0_setup
                      _reset_bd0_out
                          _stall_ep0
                        _stall_ep_in
                       _stall_ep_out
                           i1___wmul
                         i1_usb_init
 ---------------------------------------------------------------------------------
 (10) i1_usb_init                                          5     5      0    3507
                                             12 COMMON     2     2      0
                                             21 BANK0      3     3      0
                   i1_init_endpoints
                           i1_memset
             i1_reset_ep0_data_stage
 ---------------------------------------------------------------------------------
 (10) _reset_bd0_out                                       0     0      0       0
 ---------------------------------------------------------------------------------
 (10) _handle_ep0_setup                                    3     3      0   26566
                                             29 BANK0      3     3      0
                                NULL *
 _app_unknown_setup_request_callback
                    _clear_ep0_stall
    _handle_standard_control_request
                    _set_line_coding *
 _set_or_clear_comm_feature_callback *
                          _stall_ep0
             i1_reset_ep0_data_stage
 ---------------------------------------------------------------------------------
 (11) _handle_standard_control_request                    34    34      0   15080
                                             21 BANK0      5     5      0
                                              0 BANK1     29    29      0
         _app_endpoint_halt_callback
     _app_get_device_status_callback
         _app_get_interface_callback
     _app_set_configuration_callback
         _app_set_interface_callback
_app_unknown_get_descriptor_callback
        _send_zero_length_packet_ep0
                          _stall_ep0
               _start_control_return
         _usb_application_get_string
                     _usb_halt_ep_in
                    _usb_halt_ep_out
                           i1___wmul
                   i1_init_endpoints
 ---------------------------------------------------------------------------------
 (11) i1_init_endpoints                                    9     9      0    3076
                                             12 BANK0      9     9      0
                           i1___wmul
                           i1_memset
                i1_pic16_linear_addr
 ---------------------------------------------------------------------------------
 (12) i1_pic16_linear_addr                                18    16      2    1364
                                              6 COMMON     6     4      2
                                              0 BANK0     12    12      0
                           i1___wmul
 ---------------------------------------------------------------------------------
 (11) i1_memset                                            8     2      6     252
                                              0 COMMON     8     2      6
 ---------------------------------------------------------------------------------
 (12) _usb_halt_ep_out                                     5     5      0    1212
                                              6 COMMON     5     5      0
                       _stall_ep_out
                           i1___wmul
 ---------------------------------------------------------------------------------
 (10) _stall_ep_out                                        2     2      0      44
                                              0 COMMON     2     2      0
 ---------------------------------------------------------------------------------
 (12) _usb_halt_ep_in                                      5     5      0    2314
                                             12 COMMON     1     1      0
                                              0 BANK0      4     4      0
                        _stall_ep_in
                           i1___wmul
 ---------------------------------------------------------------------------------
 (10) _stall_ep_in                                         6     6      0    1146
                                              6 COMMON     6     6      0
                           i1___wmul
 ---------------------------------------------------------------------------------
 (12) _usb_application_get_string                          3     1      2     441
                                              0 COMMON     3     1      2
 ---------------------------------------------------------------------------------
 (12) _app_unknown_get_descriptor_callback                 3     0      3     178
                                              0 COMMON     3     0      3
 ---------------------------------------------------------------------------------
 (12) _app_set_interface_callback                          2     1      1      89
                                              0 COMMON     1     0      1
 ---------------------------------------------------------------------------------
 (12) _app_set_configuration_callback                      1     1      0       0
 ---------------------------------------------------------------------------------
 (12) _app_get_interface_callback                          1     1      0       0
 ---------------------------------------------------------------------------------
 (12) _app_get_device_status_callback                      2     0      2       0
                                              0 COMMON     2     0      2
 ---------------------------------------------------------------------------------
 (12) _app_endpoint_halt_callback                          2     1      1      89
                                              0 COMMON     1     0      1
 ---------------------------------------------------------------------------------
 (11) _clear_ep0_stall                                     0     0      0       0
 ---------------------------------------------------------------------------------
 (11) _app_unknown_setup_request_callback                  2     0      2   10132
                                             27 BANK0      2     0      2
          _process_cdc_setup_request
 ---------------------------------------------------------------------------------
 (12) _process_cdc_setup_request                          30    28      2   10021
                                             23 BANK0      4     2      2
                                              0 BANK1     26    26      0
      _app_get_comm_feature_callback
      _app_get_encapsulated_response
       _app_get_line_coding_callback
            _app_send_break_callback
      _app_send_encapsulated_command
_app_set_control_line_state_callback
                _usb_send_data_stage
   _usb_start_receive_ep0_data_stage
 ---------------------------------------------------------------------------------
 (13) _usb_start_receive_ep0_data_stage                    7     1      6     997
                                              0 COMMON     7     1      6
             i1_reset_ep0_data_stage
 ---------------------------------------------------------------------------------
 (13) _usb_send_data_stage                                 7     1      6    6333
                                             16 BANK0      7     1      6
               _start_control_return
 ---------------------------------------------------------------------------------
 (12) _start_control_return                               15     9      6    4708
                                              1 BANK0     15     9      6
               _usb_send_in_buffer_0
                           i1_memcpy
 ---------------------------------------------------------------------------------
 (13) _app_set_control_line_state_callback                 3     1      2     178
                                              0 COMMON     2     0      2
 ---------------------------------------------------------------------------------
 (13) _app_send_encapsulated_command                       3     1      2      89
                                              0 COMMON     2     0      2
 ---------------------------------------------------------------------------------
 (13) _app_send_break_callback                             3     1      2     133
                                              0 COMMON     3     1      2
 ---------------------------------------------------------------------------------
 (13) _app_get_line_coding_callback                        3     2      1     111
                                              0 COMMON     2     1      1
 ---------------------------------------------------------------------------------
 (13) _app_get_encapsulated_response                       6     1      5     356
                                              0 COMMON     5     0      5
 ---------------------------------------------------------------------------------
 (13) _app_get_comm_feature_callback                       3     1      2     178
                                              0 COMMON     2     0      2
 ---------------------------------------------------------------------------------
 (10) _handle_ep0_out                                      7     7      0    1844
                                             11 COMMON     2     2      0
                                              0 BANK0      5     5      0
                                NULL *
        _send_zero_length_packet_ep0
                    _set_line_coding *
 _set_or_clear_comm_feature_callback *
                          _stall_ep0
                           i1_memcpy
             i1_reset_ep0_data_stage
 ---------------------------------------------------------------------------------
 (10) _stall_ep0                                           0     0      0       0
 ---------------------------------------------------------------------------------
 (12) _send_zero_length_packet_ep0                         0     0      0       0
 ---------------------------------------------------------------------------------
 (10) _handle_ep0_in                                       5     5      0    3189
                                              1 BANK0      5     5      0
                                NULL *
                    _set_line_coding *
 _set_or_clear_comm_feature_callback *
               _usb_send_in_buffer_0
                           i1_memcpy
             i1_reset_ep0_data_stage
 ---------------------------------------------------------------------------------
 (11) i1_reset_ep0_data_stage                              0     0      0       0
 ---------------------------------------------------------------------------------
 (13) i1_memcpy                                           11     5      6     377
                                              0 COMMON    11     5      6
 ---------------------------------------------------------------------------------
 (13) _usb_send_in_buffer_0                                4     2      2    1436
                                             11 COMMON     3     1      2
                                              0 BANK0      1     1      0
           i1_usb_in_endpoint_halted
 ---------------------------------------------------------------------------------
 (14) i1_usb_in_endpoint_halted                            5     5      0    1102
                                              6 COMMON     5     5      0
                           i1___wmul
 ---------------------------------------------------------------------------------
 (13) i1___wmul                                            6     2      4    1080
                                              0 COMMON     6     2      4
 ---------------------------------------------------------------------------------
 (11) _set_or_clear_comm_feature_callback                  5     2      3     468
                                              2 COMMON     5     2      3
    _app_clear_comm_feature_callback
      _app_set_comm_feature_callback
 ---------------------------------------------------------------------------------
 (12) _app_set_comm_feature_callback                       3     1      2     178
                                              0 COMMON     2     0      2
 ---------------------------------------------------------------------------------
 (12) _app_clear_comm_feature_callback                     3     1      2     178
                                              0 COMMON     2     0      2
 ---------------------------------------------------------------------------------
 (11) _set_line_coding                                     3     0      3     773
                                              2 COMMON     3     0      3
       _app_set_line_coding_callback
 ---------------------------------------------------------------------------------
 (12) _app_set_line_coding_callback                        3     2      1     111
                                              0 COMMON     2     1      1
 ---------------------------------------------------------------------------------
 (11) NULL(Fake)                                           3     0      3       0
 ---------------------------------------------------------------------------------
 (10) _app_usb_reset_callback                              0     0      0       0
 ---------------------------------------------------------------------------------
 (10) _app_start_of_frame_callback                         0     0      0       0
 ---------------------------------------------------------------------------------
 (10) _app_out_transaction_callback                        1     1      0       0
 ---------------------------------------------------------------------------------
 (10) _app_in_transaction_complete_callback                1     1      0       0
 ---------------------------------------------------------------------------------
 Estimated maximum stack depth 14
 ---------------------------------------------------------------------------------

 Call Graph Graphs:

 _main (ROOT)
   _hardware_init
   _led_init
   _pp_flush_res_byte
     _usb_send_data
       _memcpy
       _usb_get_in_buffer
         ___wmul
       _usb_in_endpoint_busy
       _usb_send_in_buffer
         ___wmul
         _usb_in_endpoint_halted
           ___wmul
   _pp_init
   _pp_process
     NULL(Fake) *
     _exec_ops *
       NULL(Fake) *
       ___wmul *
       _dummy_locks *
       _memset *
       _pp_send_res_byte *
         _usb_in_endpoint_halted
         _usb_send_data
       _send_bits *
     _pp_send_res_byte *
   _timer_init
   _uart_init
   _usb_arm_out_endpoint
     ___wmul
   _usb_get_configuration
   _usb_get_out_buffer
     ___wmul
   _usb_in_endpoint_halted
   _usb_init
     _init_endpoints
       ___wmul
       _memset
       _pic16_linear_addr
         ___wmul
     _memset
     _reset_ep0_data_stage
   _usb_out_endpoint_halted
     ___wmul
   _usb_out_endpoint_has_data
   _usb_send_data

 _isr (ROOT)
   _usb_service
     _app_in_transaction_complete_callback
     _app_out_transaction_callback
     _app_start_of_frame_callback
     _app_usb_reset_callback
     _handle_ep0_in
       NULL(Fake) *
       _set_line_coding *
         _app_set_line_coding_callback
       _set_or_clear_comm_feature_callback *
         _app_clear_comm_feature_callback
         _app_set_comm_feature_callback
       _usb_send_in_buffer_0 *
         i1_usb_in_endpoint_halted
           i1___wmul
       i1_memcpy *
       i1_reset_ep0_data_stage *
     _handle_ep0_out
       NULL(Fake) *
       _send_zero_length_packet_ep0 *
       _set_line_coding *
       _set_or_clear_comm_feature_callback *
       _stall_ep0 *
       i1_memcpy *
       i1_reset_ep0_data_stage *
     _handle_ep0_setup
       NULL(Fake) *
       _app_unknown_setup_request_callback *
         _process_cdc_setup_request
           _app_get_comm_feature_callback
           _app_get_encapsulated_response
           _app_get_line_coding_callback
           _app_send_break_callback
           _app_send_encapsulated_command
           _app_set_control_line_state_callback
           _usb_send_data_stage
             _start_control_return
               _usb_send_in_buffer_0
               i1_memcpy
           _usb_start_receive_ep0_data_stage
             i1_reset_ep0_data_stage
       _clear_ep0_stall *
       _handle_standard_control_request *
         _app_endpoint_halt_callback
         _app_get_device_status_callback
         _app_get_interface_callback
         _app_set_configuration_callback
         _app_set_interface_callback
         _app_unknown_get_descriptor_callback
         _send_zero_length_packet_ep0
         _stall_ep0
         _start_control_return
         _usb_application_get_string
         _usb_halt_ep_in
           _stall_ep_in
             i1___wmul
           i1___wmul
         _usb_halt_ep_out
           _stall_ep_out
           i1___wmul
         i1___wmul
         i1_init_endpoints
           i1___wmul
           i1_memset
           i1_pic16_linear_addr
             i1___wmul
       _set_line_coding *
       _set_or_clear_comm_feature_callback *
       _stall_ep0 *
       i1_reset_ep0_data_stage *
     _reset_bd0_out
     _stall_ep0
     _stall_ep_in
     _stall_ep_out
     i1___wmul
     i1_usb_init
       i1_init_endpoints
       i1_memset
       i1_reset_ep0_data_stage

 Address spaces:
Name               Size   Autos  Total    Cost      Usage
BIGRAM             3F0      0       0       0        0.0%
NULL                 0      0       0       0        0.0%
CODE                 0      0       0       0        0.0%
BITCOMMON            E      0       0       1        0.0%
BITSFR0              0      0       0       1        0.0%
SFR0                 0      0       0       1        0.0%
COMMON               E      E       E       2      100.0%
BITSFR1              0      0       0       2        0.0%
SFR1                 0      0       0       2        0.0%
BITSFR2              0      0       0       3        0.0%
SFR2                 0      0       0       3        0.0%
STACK                0      0       0       3        0.0%
BITBANK0            28      0       0       4        0.0%
BITSFR3              0      0       0       4        0.0%
SFR3                 0      0       0       4        0.0%
BANK0               28     25      28       5      100.0%
BITSFR4              0      0       0       5        0.0%
SFR4                 0      0       0       5        0.0%
BITBANK1            50      0       0       6        0.0%
BITSFR5              0      0       0       6        0.0%
SFR5                 0      0       0       6        0.0%
BANK1               30     22      30       7      100.0%
BITSFR6              0      0       0       7        0.0%
SFR6                 0      0       0       7        0.0%
BITBANK2            50      0       0       8        0.0%
BITSFR7              0      0       0       8        0.0%
SFR7                 0      0       0       8        0.0%
BITSFR8              0      0       0       9        0.0%
SFR8                 0      0       0       9        0.0%
BANK2                0      0       0       9        0.0%
BITBANK3            50      0       0      10        0.0%
BITSFR9              0      0       0      10        0.0%
SFR9                 0      0       0      10        0.0%
BITSFR10             0      0       0      11        0.0%
SFR10                0      0       0      11        0.0%
BANK3                0      0       0      11        0.0%
BITBANK4            50      0       0      12        0.0%
BITSFR11             0      0       0      12        0.0%
SFR11                0      0       0      12        0.0%
BITSFR12             0      0       0      13        0.0%
SFR12                0      0       0      13        0.0%
BANK4                0      0       0      13        0.0%
BITBANK5            50      0       0      14        0.0%
BITSFR13             0      0       0      14        0.0%
SFR13                0      0       0      14        0.0%
BANK5               3A     31      31      15       84.5%
BITSFR14             0      0       0      15        0.0%
SFR14                0      0       0      15        0.0%
BITBANK6            50      0       0      16        0.0%
BITSFR15             0      0       0      16        0.0%
SFR15                0      0       0      16        0.0%
BANK6               50     1A      4B      17       93.8%
BITSFR16             0      0       0      17        0.0%
SFR16                0      0       0      17        0.0%
BITBANK7            50      0       0      18        0.0%
BITSFR17             0      0       0      18        0.0%
SFR17                0      0       0      18        0.0%
BANK7               50      0      43      19       83.8%
BITSFR18             0      0       0      19        0.0%
SFR18                0      0       0      19        0.0%
BITSFR19             0      0       0      20        0.0%
SFR19                0      0       0      20        0.0%
ABS                  0      0     145      20        0.0%
BITBANK8            50      0       0      21        0.0%
BITSFR20             0      0       0      21        0.0%
SFR20                0      0       0      21        0.0%
BANK8               50      0      20      22       40.0%
BITSFR21             0      0       0      22        0.0%
SFR21                0      0       0      22        0.0%
BITBANK9            50      0       0      23        0.0%
BITSFR22             0      0       0      23        0.0%
SFR22                0      0       0      23        0.0%
BANK9                8      0       0      24        0.0%
BITSFR23             0      0       0      24        0.0%
SFR23                0      0       0      24        0.0%
BITBANK10           50      0       0      25        0.0%
BITSFR24             0      0       0      25        0.0%
SFR24                0      0       0      25        0.0%
BITSFR25             0      0       0      26        0.0%
SFR25                0      0       0      26        0.0%
BANK10               0      0       0      26        0.0%
BITBANK11           50      0       0      27        0.0%
BITSFR26             0      0       0      27        0.0%
SFR26                0      0       0      27        0.0%
BITSFR27             0      0       0      28        0.0%
SFR27                0      0       0      28        0.0%
BANK11               0      0       0      28        0.0%
BITBANK12           30      0       0      29        0.0%
BITSFR28             0      0       0      29        0.0%
SFR28                0      0       0      29        0.0%
BITSFR29             0      0       0      30        0.0%
SFR29                0      0       0      30        0.0%
BANK12               0      0       0      30        0.0%
BITSFR30             0      0       0      31        0.0%
SFR30                0      0       0      31        0.0%
DATA                 0      0     145      31        0.0%
BITSFR31             0      0       0      32        0.0%
SFR31                0      0       0      32        0.0%


Microchip Technology PIC Macro Assembler V2.45 build 20230818022343 
Symbol Table                                                                                   Wed Sep  3 12:12:33 2025

                                             _stall_ep_in 1417  
                                 usb_arm_out_endpoint@pid 02C1  
                                            _stall_ep_out 11F6  
                                     ??_pic16_linear_addr 02BE  
                              ??i1_usb_in_endpoint_halted 0076  
                                    _usb_in_endpoint_busy 111E  
                                     ___wmul@multiplicand 02B8  
                                        i1___wmul@product 0074  
                                  ??_start_control_return 004F  
                                             _usb_service 0B4F  
                                                     l621 0A6B  
                                                     l631 0AEA  
                                                     l911 046F  
                                                     l825 12B1  
                                                     l913 0476  
                                                     l905 0457  
                                                     l931 0497  
                                                     l851 03E9  
                                                     l862 0407  
                                                     l880 0424  
                                                     l873 0417  
                                                     l857 03FE  
                                                     l866 0411  
                                                     l939 04B2  
                                                     l891 0432  
                                                     l980 0565  
                                                     l972 054A  
                                                     l877 0421  
                                                     l869 0414  
                                                     _GIE 005F  
                                                     _UIE 0E92  
                                                     _UIR 0E90  
                                  set_line_coding@context 0073  
                                    _set_or_clear_request 032E  
                                                     _bds 0020  
                            ?_app_start_of_frame_callback 0070  
                                                     _isr 0004  
                           __end_of_usb_get_configuration 07FF  
                          ?_app_set_comm_feature_callback 0070  
                                                     wreg 0009  
                                          _usb_halt_ep_in 1375  
                          __end_ofi1_reset_ep0_data_stage 10AB  
                         __end_of_app_send_break_callback 1140  
                  __end_of_app_set_configuration_callback 0800  
                          _app_set_configuration_callback 07FF  
                   app_get_encapsulated_response@callback 0073  
                    __end_of_app_get_line_coding_callback 111E  
                            _app_get_line_coding_callback 110E  
                                                    l1010 05DC  
                                                    l1040 0627  
                                                    l1121 1219  
                                                    l1018 05E9  
                                                    l6003 0B25  
                                                    l5213 1636  
                                                    l5223 139D  
                                                    l6111 0A35  
                                                    l6113 0665  
                                                    l6017 0B4B  
                                                    l5411 04EF  
                                                    l5261 1414  
                                                    l5501 05FB  
                                                    l5341 0427  
                                                    l6109 09D4  
                                                    l5237 145B  
                                                    l5167 1213  
                                                    l5511 0632  
                                                    l5431 0530  
                                                    l5423 0511  
                                                    l5407 04E8  
                                                    l5319 06FC  
                                                    l5193 1357  
                                                    l5281 1168  
                                                    l5249 1194  
                                                    l5505 061D  
                                                    l5425 051B  
                                                    l5409 04BD  
                                                    l5521 0658  
                                                    l5275 12A6  
                                                    l5515 0645  
                                                    l5507 0612  
                                                    l5419 050A  
                                                    l5523 068E  
                                                    l5445 055B  
                                                    l5437 0531  
                                                    l5429 0526  
                                                    l5381 048B  
                                                    l5357 042B  
                                                    l5701 09DF  
                                                    l5293 069A  
                                                    l5471 05AA  
                                                    l5455 0586  
                                                    l5439 0497  
                                                    l5383 048D  
                                                    l5711 0A28  
                                                    l5481 05BD  
                                                    l5465 05A1  
                                                    l5705 09E7  
                                                    l5713 0A3D  
                               __end_of_pic16_linear_addr 1492  
                                                    l5483 05C7  
                                                    l5475 05B3  
                                                    l5379 0459  
                                                    l5707 0A13  
                                                    l5619 0869  
                                                    l5493 05DF  
                                                    l5469 057B  
                                                    l5389 04A8  
                                                    l5661 095C  
                                                    l5573 15B7  
                                                    l5487 05D2  
                                                    l5671 0977  
                                                    l5497 05F1  
                                                    l5489 054A  
                                                    l5499 05E9  
                                                    l5683 09A0  
                                                    ?_isr 0070  
                                                    l5685 09A5  
                                                    l5943 0A6D  
                                                    l5699 09CF  
                                                    l5939 0A64  
                                                    l5981 0AE8  
                                                    l5957 0AAB  
                                                    l5991 0B07  
                                                    l5967 0AB8  
                                                    l5983 0AEC  
                                                    l5969 0ABB  
                                                    l5979 0AE5  
                                                    STR_1 1915  
                                    _ep0_data_stage_direc 00C7  
                                                    u6130 0584  
                                                    _PEIE 005E  
                                                    u6300 0832  
                                                    u6070 04FA  
                                                    u6310 0833  
                                  _usb_in_endpoint_halted 122C  
                                                    u6075 04F8  
                                                    u5710 1478  
                                                    u6335 083A  
                                                    u5720 1479  
                                                    u6265 03F3  
                                                    u6345 085F  
                                                    u5650 1623  
                                                    u6355 086C  
                                                    u5660 1624  
                                                    u5645 1600  
                                                    u6365 0891  
                                                    u5910 040F  
                                                    u5815 0722  
                                                    u6295 1144  
                                                    u5760 12AF  
                                                    u5585 121A  
                                                    u5825 0731  
                                                    u5595 121F  
                                                    u5835 0756  
                                                    u5940 041F  
                                                    u5685 1122  
                                                    u5845 0786  
                                                    u5855 0795  
                                                    u5880 0404  
                                                    u6585 07F2  
                                                    u5865 07BA  
                                                    u5980 0474  
                                                    _UEP0 0E98  
                                                    _UEIE 0E97  
                                                    _addr 0330  
                                                    _main 0A49  
                                                    fsr0h 0005  
                                                    fsr1h 0007  
                                                    indf0 0000  
                                                    fsr0l 0004  
                                                    indf1 0001  
                                                    fsr1l 0006  
                                                    btemp 007E  
         process_cdc_setup_request@data_multiplexed_state 00B6  
                                             main@out_buf 02E5  
                                                    start 001A  
                                           _usb_send_data 139C  
                                         _usb_halt_ep_out 1304  
                                              i1_usb_init 152E  
                                       ?_pp_send_res_byte 02D2  
                                       handle_ep0_out@res 004A  
                                           _transfer_data 033D  
                                   ?_usb_in_endpoint_busy 0070  
                                                   ??_isr 007E  
                                 __end_of_set_line_coding 10D8  
                                      ??_pp_send_res_byte 02D3  
                         ??_app_get_encapsulated_response 0075  
                 usb_start_receive_ep0_data_stage@context 0074  
                                       i1init_endpoints@i 005C  
                                                   ?_main 0070  
                    __end_of_app_set_line_coding_callback 110E  
                            _app_set_line_coding_callback 10FE  
                                                   _LATA4 0864  
                                                   _LATA5 0865  
                                                   _LATC2 0872  
                                                   _LATC3 0873  
                                                   i1l221 03DB  
                                                   i1l301 0BBA  
                               ??_usb_out_endpoint_halted 02BC  
                                                   i1l223 02B3  
                                                   i1l306 0C53  
                                                   i1l171 1799  
                                                   i1l253 152B  
                                                   i1l167 1780  
                                                   i1l177 17F3  
                                                   i1l266 08F3  
                                              i1memcpy@d1 0070  
                                                   i1l284 1702  
                                                   i1l295 0B8F  
                                                   i1l298 0C55  
                                                   i1l727 1139  
                                                   i1l736 000F  
                              ?_usb_out_endpoint_has_data 0070  
                                              i1memcpy@s1 0072  
                                                   _UADDR 0E96  
                                                   _RCREG 0199  
                                                   _SENDB 0CF3  
                     app_send_encapsulated_command@length 0070  
                                                   _RCSTA 019D  
                                            ?_dummy_locks 0070  
                                         ??_hardware_init 0000  
                                  __end_of_usb_halt_ep_in 139C  
                                                   _SPBRG 019B  
                                                   _TXREG 019A  
                                                   _TXSTA 019E  
                                             _turn_on_led 0329  
                           ??_app_start_of_frame_callback 0070  
                                                   _str00 1911  
                                      _usb_send_in_buffer 15F0  
                                                   main@c 02E4  
                                         __end_of_pp_init 10FE  
                                                   pclath 000A  
                           ?_app_get_line_coding_callback 0070  
                                        __end_ofi1___wmul 11DB  
                              usb_send_data_stage@context 005C  
                                                   status 0003  
                                     i1___wmul@multiplier 0070  
                                                   wtemp0 007E  
                                        __end_ofi1_memcpy 134F  
                                        __end_ofi1_memset 1190  
                       start_control_return@bytes_to_send 0057  
                                     ?_usb_send_in_buffer 02C1  
                              usb_get_out_buffer@endpoint 02C2  
                                          ?_usb_send_data 02CB  
                                   handle_ep0_out@pkt_len 004B  
                      process_cdc_setup_request@interface 00B9  
                                __end_ofi1_init_endpoints 0D96  
                                         __initialization 001C  
                                            __end_of_main 0B4F  
                         usb_out_endpoint_halted@endpoint 02C0  
                               usb_get_in_buffer@endpoint 02C2  
                                             exec_ops@n10 034C  
                                                  ??_main 02E0  
                                   handle_ep0_setup@setup 0066  
                                             exec_ops@len 02D7  
                                             exec_ops@ops 02D5  
                                     _usb_send_data_stage 1281  
                                    ??_usb_send_in_buffer 02C3  
                                         ?_usb_halt_ep_in 0070  
                           ?_app_set_line_coding_callback 0070  
                                         _cdc_data_string 1883  
                             ??_process_cdc_setup_request 0061  
                                            _addr_pending 0331  
                              pp_process@bytes_to_receive 0328  
                                                  _ANSELA 018C  
                                                  _ANSELC 018E  
                                                  i1l1121 11C8  
                                                  i1l4101 022B  
                                                  i1l4113 0258  
                                                  i1l4033 00D6  
                                                  i1l4123 0275  
                                                  i1l4035 00DA  
                                                  i1l4221 10D1  
                                                  i1l4133 02A2  
                                                  i1l4029 00CF  
                                                  i1l4207 13E2  
                                                  i1l3415 12D7  
                                                  i1l4063 017C  
                                                  i1l4039 010C  
                                                  i1l4153 02EC  
                                                  i1l4081 01BF  
                                                  i1l4065 0180  
                                                  i1l4049 013A  
                                                  i1l4057 0167  
                                                  i1l3443 1331  
                                                  i1l4411 16FB  
                                                  i1l4155 02F1  
                                                  i1l4331 1509  
                                                  i1l4405 16E9  
                                                  i1l3453 177C  
                                                  i1l4165 034C  
                                                  i1l4173 03BF  
                                                  i1l4077 019E  
                                                  i1l4341 151E  
                                                  i1l4333 150C  
                                                  i1l4325 14F3  
                                                  i1l3463 17C0  
                                                  i1l4183 03DD  
                                                  i1l3457 1792  
                                                  i1l3609 166C  
                                                  i1l4177 03D7  
                                                  i1l4089 01EF  
                                                  i1l5081 0014  
                                                  i1l4435 1756  
                                                  i1l4427 173F  
                                                  i1l4363 08EB  
                                                  i1l4355 08D0  
                                                  i1l3811 0FAD  
                                                  i1l3619 167B  
                                                  i1l5083 0016  
                                                  i1l4197 13C8  
                                                  i1l3389 11C2  
                                                  i1l4437 1759  
                                                  i1l4429 174A  
                                                  i1l4357 08D3  
                                                  i1l3469 17D9  
                                                  i1l3813 0E84  
                                                  i1l3629 168B  
                                                  i1l4391 0950  
                                                  i1l4375 0923  
                                                  i1l3743 0F91  
                                                  i1l3639 169B  
                                                  i1l3591 117C  
                                                  i1l4385 093C  
                                                  i1l3569 113E  
                                                  i1l3905 0FD1  
                                                  i1l3649 16AB  
                                                  i1l4801 0BAC  
                                                  i1l4395 0956  
                                                  i1l3835 0ECA  
                                                  i1l3843 0FB6  
                                                  i1l3763 0E05  
                                                  i1l3771 0F9B  
                                                  i1l3739 0DC0  
                                                  i1l3747 0F93  
                                                  i1l3659 16BB  
                                                  i1l3579 14A2  
                                                  i1l4811 0BBE  
                                                  i1l4397 0958  
                                                  i1l3853 0EFC  
                                                  i1l3845 0EDA  
                                                  i1l3861 0FBF  
                                                  i1l3837 0ED4  
                                                  i1l3773 0E24  
                                                  i1l3765 0E09  
                                                  i1l3749 0DC2  
                                                  i1l3677 16DB  
                                                  i1l3669 16CB  
                                                  u300_25 141B  
                                                  i1l3863 0F16  
                                                  i1l3855 0F06  
                                                  i1l3791 0FA4  
                                                  i1l3793 0E54  
                                                  i1l3945 0C66  
                                                  i1l4833 0C49  
                                                  i1l4817 0BCF  
                                                  i1l4809 0BB7  
                                                  i1l3971 0CBE  
                                                  i1l4827 0C13  
                                                  i1l3877 0F3F  
                                                  i1l3885 0FC8  
                                                  u301_25 1440  
                                                  i1l4829 0C1E  
                                                  i1l3887 0F58  
                                                  i1l3879 0F49  
                                                  i1l4679 1555  
                                                  i1l4839 0C5B  
                                                  i1l4783 0B61  
                                                  i1l4777 0B5A  
                                                  u302_25 11FA  
                                _start_control_return$571 0051  
                                _start_control_return$572 0053  
                                _start_control_return$573 0055  
                                                  u303_25 1206  
                                                  u312_20 1118  
                                                  u411_25 02F8  
                                                  u332_20 1108  
                                                  u420_20 13CE  
                                                  u412_25 0322  
                                                  u421_20 13D3  
                                                  u317_20 14C0  
                                                  u413_25 0350  
                                                  u422_20 13D4  
                                                  u318_20 14C1  
                            ??_app_set_interface_callback 0071  
                                                  u414_25 037A  
                                                  u415_20 03CB  
                                                  u360_20 0F69  
                                                  u416_20 03CC  
                                                  u280_25 11C9  
                                                  u361_20 0F6A  
                                                  u281_25 11CE  
                                                  u362_20 0F76  
                                                  u370_25 0CE6  
                                                  u419_20 13CD  
                                                  u363_20 0F77  
                                                  u339_25 0DF7  
                                                  u371_25 0CF5  
                                                  u507_25 0B8B  
                                                  u284_20 12CC  
                                                  u372_25 0D1B  
                                                  u285_20 12CD  
                                                  u293_25 178B  
                                                  u373_25 0D4D  
                                                  u294_20 17A5  
                                                  u294_25 17A1  
                                                  u374_25 0D5C  
                                                  u295_20 17A6  
                                                  u375_25 0D82  
                                                  u448_25 08E1  
                                                  u297_25 17D3  
                                                  u397_20 023D  
                                                  u398_20 023E  
                                             i1memcpy@tmp 007A  
                                                  _TMR1IE 0488  
                                                  _TMR1IF 0088  
                                                  _SPBRGH 019C  
                                                  _TMR1ON 00C0  
                                  _ep0_data_stage_context 00C2  
                                 __end_of_usb_halt_ep_out 1329  
                            _ep0_data_stage_buf_remaining 00C4  
                                                  _TRISA4 0464  
                                                  _TRISA5 0465  
                                                  _TRISC2 0472  
                                                  _TRISC3 0473  
                                                  _TRISC4 0474  
                                                  _TRISC5 0475  
                               _ep0_data_stage_out_buffer 00C8  
                                    ?_usb_send_data_stage 0058  
                                        _handle_ep0_setup 14DB  
                         __end_of_usb_out_endpoint_halted 1264  
                                        usb_send_data@buf 02CF  
                                        usb_send_data@len 02CD  
                                             ?i1_usb_init 0070  
                        ??_app_get_device_status_callback 0072  
                         ?_app_get_device_status_callback 0070  
                                  ??_usb_in_endpoint_busy 02B6  
                                        __end_of_led_init 1079  
                                                  ___wmul 1211  
                     handle_standard_control_request@desc 00AB  
                                        __end_of_exec_ops 0694  
                                                  _ep_buf 03A0  
                                        ?_set_line_coding 0072  
                                                  _memcpy 134F  
                                                  _memset 1190  
                                            usb_service@i 00BF  
                                                  _pp_buf 22D8  
                                   __end_of_reset_bd0_out 1090  
                    app_out_transaction_callback@endpoint 0070  
                   __end_of_app_get_encapsulated_response 106A  
                           _app_get_encapsulated_response 1065  
                         ??_app_send_encapsulated_command 0072  
                   app_get_line_coding_callback@interface 0070  
                   app_set_line_coding_callback@interface 0070  
                         app_send_break_callback@duration 0070  
                                               ??_pp_init 0000  
                                        __end_of_usb_init 15F0  
set_or_clear_comm_feature_callback@data_multiplexed_state 0076  
     app_get_comm_feature_callback@data_multiplexed_state 0071  
   app_clear_comm_feature_callback@data_multiplexed_state 0071  
     app_set_comm_feature_callback@data_multiplexed_state 0071  
                                 ?_app_usb_reset_callback 0070  
                                 __end_of__initialization 007E  
                                   ??_usb_send_data_stage 007E  
                                  i1pic16_linear_addr@low 0079  
                                  i1pic16_linear_addr@ptr 0076  
                                         ??_usb_send_data 0000  
                          __end_of_this_device_descriptor 194C  
                                     _init_endpoints$2319 02D4  
                            __end_of_usb_send_in_buffer_0 12E1  
                               _process_cdc_setup_request 0D96  
                                            ?_stall_ep_in 0070  
                                          __pcstackCOMMON 0070  
                      __end_of_app_endpoint_halt_callback 1056  
                              _app_endpoint_halt_callback 1055  
                                            __pidataBANK1 1079  
                                            __pidataBANK6 10C1  
                                            __pidataBANK7 12E1  
                                           __end_of_str00 1915  
                                             i1usb_init@i 005D  
                                 __end_of_cdc_data_string 18A9  
                                            ?_usb_service 0070  
            app_set_control_line_state_callback@interface 0070  
                                               ?i1___wmul 0070  
                                     handle_ep0_setup@res 0065  
            app_in_transaction_complete_callback@endpoint 0070  
                __end_of_usb_start_receive_ep0_data_stage 1165  
                      ??_usb_start_receive_ep0_data_stage 0076  
                       ?_usb_start_receive_ep0_data_stage 0070  
                        _usb_start_receive_ep0_data_stage 1152  
                                           stall_ep_in@ep 007B  
                              __end_of_func_serial_string 195A  
                                               ?i1_memcpy 0070  
                                               ?i1_memset 0070  
                          __end_of_app_usb_reset_callback 1055  
                                 ?_usb_in_endpoint_halted 0070  
                                   __end_of_handle_ep0_in 1770  
                                         _g_configuration 00CA  
                                            exec_ops@endp 034A  
                          ??_app_set_line_coding_callback 0071  
                                              __pbssBANK0 006D  
                                              __pbssBANK1 00C2  
                                              __pbssBANK6 0320  
                                              __pbssBANK7 03C3  
                                              __pbssBANK8 0420  
                                        ?_usb_halt_ep_out 0070  
                                    pic16_linear_addr@low 02CB  
                         ??_app_set_comm_feature_callback 0072  
                                    pic16_linear_addr@ptr 02BC  
                                ?_app_send_break_callback 0070  
                        ??_app_set_configuration_callback 0070  
                         ?_app_set_configuration_callback 0070  
                                              __pmaintext 0A49  
                                       ??_clear_ep0_stall 0070  
                                                 ?___wmul 02B6  
                                              __pintentry 0004  
                                       _usb_get_in_buffer 1264  
                                                 ?_memcpy 02B6  
                                                 _BAUDCON 019F  
                                                 ?_memset 02B6  
                                 _ep0_data_stage_callback 006D  
                                      ?_usb_get_in_buffer 02BC  
                                     i1_pic16_linear_addr 1492  
                                       _pp_flush_res_byte 0800  
                                              ??i1___wmul 0074  
                                                 _T1CKPS0 00C4  
                                                 _T1CKPS1 00C5  
                                       _handle_ep0_in$660 004B  
                            __end_of_usb_arm_out_endpoint 08B7  
                                              _ep_buffers 2080  
                             ??_usb_out_endpoint_has_data 02B6  
                                      ?_pp_flush_res_byte 0070  
                                              ??i1_memcpy 0076  
                          __end_of_usb_in_endpoint_halted 1248  
                                              ??i1_memset 0076  
                      __end_of_app_get_interface_callback 1062  
                              _app_get_interface_callback 1060  
                                     ??_usb_get_in_buffer 02BE  
                                                 _TMR1CS0 00C6  
                                                 _TMR1CS1 00C7  
                                   usb_send_debug_hex@hex 0367  
                                   _usb_get_configuration 07FC  
                          ?_app_get_encapsulated_response 0070  
                               ?i1_usb_in_endpoint_halted 0070  
                                                 _UIEbits 0E92  
                      __end_of_app_set_interface_callback 0004  
                              _app_set_interface_callback 0002  
                                     ??_pp_flush_res_byte 02D2  
                                               ?_led_init 0070  
                                                 _UIRbits 0E90  
                        process_cdc_setup_request@context 00B3  
                                               ?_exec_ops 02D5  
                        process_cdc_setup_request@res_922 00AA  
                        process_cdc_setup_request@res_931 00AE  
                        process_cdc_setup_request@res_915 00A9  
                        process_cdc_setup_request@res_928 00AB  
                                    ?i1_pic16_linear_addr 0076  
                                        pp_init@sendbackp 02B6  
                                            i1memset@dest 0070  
                            ?_send_zero_length_packet_ep0 0070  
                                          _pp_res_buf_len 006F  
                                       usb_send_data@data 02CB  
                               __end_of_usb_get_in_buffer 1281  
                                      _transfer_interface 00C6  
                                       ?i1_init_endpoints 0070  
                      app_endpoint_halt_callback@endpoint 0070  
                                                 _ep0_buf 00CB  
           app_unknown_get_descriptor_callback@descriptor 0072  
                                               ?_usb_init 0070  
                                      ??i1_init_endpoints 0054  
                               __end_of_pp_flush_res_byte 0814  
                                        ??_usb_halt_ep_in 0048  
                    handle_standard_control_request@flags 00B3  
                                                 __ptext1 1140  
                                                 __ptext2 1248  
                                                 __ptext3 158E  
                                                 __ptext4 10B6  
                                                 __ptext5 0694  
                                                 __ptext6 144B  
                                                 __ptext7 07CE  
                                                 __ptext8 07FC  
                                                 __ptext9 0814  
                    handle_standard_control_request@setup 00BB  
                                __end_of_handle_ep0_setup 152E  
                    handle_standard_control_request@stall 00A6  
                              set_line_coding@transfer_ok 0072  
                     start_control_return@bytes_asked_for 004D  
                                        usb_halt_ep_in@ep 007C  
                                           usb_service@ep 00BD  
                                         _uart_rx_buf_len 032D  
                                                 _pp_init 10F0  
                                   __end_of_hardware_init 10A0  
                                    _usb_send_in_buffer_0 12C0  
                                    usb_send_in_buffer@bd 02CA  
                                            dummy_locks@i 02B8  
                                            dummy_locks@n 02B7  
                                                 clrloop0 10D9  
                                              ??_led_init 0000  
                                    end_of_initialization 007E  
                                   __end_of_vendor_string 193A  
                            process_cdc_setup_request@len 00B7  
                            process_cdc_setup_request@dtr 00AC  
                                        _func_prog_string 18A9  
                            process_cdc_setup_request@res 00A8  
                            process_cdc_setup_request@rts 00AD  
                                       __end_of_send_bits 12C0  
                                   ??i1_pic16_linear_addr 0048  
                                         _uart_tx_buf_len 032B  
                                              ??_exec_ops 02D9  
                                                 memcpy@d 02BD  
                                                 memcpy@n 02BA  
                                                 memcpy@s 02BF  
                                                 init_ram 10E4  
                                                 memset@c 02B8  
                                                 memset@n 02BA  
                                                 memset@p 02BC  
                                                 initloop 10E5  
                                          pp_process@data 035C  
                 __end_of_app_clear_comm_feature_callback 1058  
              __end_of_set_or_clear_comm_feature_callback 13EB  
                    ??_set_or_clear_comm_feature_callback 0075  
                     ?_set_or_clear_comm_feature_callback 0072  
                       ??_app_clear_comm_feature_callback 0072  
                        ?_app_clear_comm_feature_callback 0070  
                         _app_clear_comm_feature_callback 1056  
                      _set_or_clear_comm_feature_callback 13C3  
                               _usb_out_endpoint_has_data 1140  
                                       __end_of_uart_init 11C0  
                                              _pp_res_buf 0420  
                           ??_send_zero_length_packet_ep0 0070  
                                              _pp_process 095B  
                                            ??i1_usb_init 007C  
                                               _RCSTAbits 019D  
                                       __end_of_stall_ep0 108A  
                     app_get_encapsulated_response@length 0070  
                        app_send_break_callback@interface 0072  
                     app_get_encapsulated_response@report 0072  
                                              ??_usb_init 02D7  
                                ?_usb_out_endpoint_halted 0070  
                                   i1___wmul@multiplicand 0072  
                                 usb_send_in_buffer_0@len 007B  
                                 usb_send_in_buffer_0@pid 0048  
           set_or_clear_comm_feature_callback@transfer_ok 0072  
                            ??_app_endpoint_halt_callback 0071  
                                              _timer_init 10AB  
                                               _PORTAbits 000C  
                                ??i1_reset_ep0_data_stage 0070  
             app_set_configuration_callback@configuration 0070  
            __end_of_app_in_transaction_complete_callback 1052  
                  ??_app_in_transaction_complete_callback 0070  
                   ?_app_in_transaction_complete_callback 0070  
                    _app_in_transaction_complete_callback 1051  
                     __end_of_app_start_of_frame_callback 1054  
                             _app_start_of_frame_callback 1053  
                                         init_endpoints@i 02D6  
                              handle_ep0_in@bytes_to_send 004D  
                            ??_usb_application_get_string 0072  
                                   ?_usb_send_in_buffer_0 007B  
                  __end_of_app_get_device_status_callback 1065  
                          _app_get_device_status_callback 1062  
                                  ?_usb_get_configuration 0070  
                                 i1pic16_linear_addr@addr 007A  
                                 i1pic16_linear_addr@high 0078  
                              __end_of_usb_get_out_buffer 07FC  
                           _process_cdc_setup_request$911 00A0  
                           _process_cdc_setup_request$923 00A6  
                           _process_cdc_setup_request$916 00A2  
                           _process_cdc_setup_request$917 00A4  
                                      __end_ofi1_usb_init 158E  
                  app_unknown_get_descriptor_callback@pkt 0070  
                                               _USTATbits 0E8F  
                    __end_of_app_out_transaction_callback 1053  
                            _app_out_transaction_callback 1052  
                                    _usb_arm_out_endpoint 0814  
                    app_get_encapsulated_response@context 0074  
                             ?_app_endpoint_halt_callback 0070  
                                           ?_stall_ep_out 0070  
                  usb_start_receive_ep0_data_stage@buffer 0076  
              __end_of_app_unknown_setup_request_callback 1097  
                     ?_app_unknown_setup_request_callback 0063  
                    ??_app_unknown_setup_request_callback 007E  
                      _app_unknown_setup_request_callback 1090  
                                               i1memcpy@d 0076  
                                               i1memcpy@n 0074  
                                               i1memcpy@s 0078  
                                          __end_of___wmul 122C  
                                          _handle_ep0_out 08B7  
                                               i1memset@c 0072  
                                               i1memset@n 0074  
                                               i1memset@p 0076  
                             handle_ep0_out@bytes_to_copy 004C  
                          process_cdc_setup_request@setup 005F  
                                          __end_of_memcpy 1375  
                                          __end_of_memset 11A8  
                       __end_of_process_cdc_setup_request 1000  
                                            i1usb_init@ep 005E  
                                     start_initialization 001C  
                                        _pp_send_res_byte 13EB  
                   process_cdc_setup_request@idle_setting 00B5  
                                             __end_of_isr 001A  
                             __end_of_usb_send_data_stage 12A0  
                 usb_application_get_string@string_number 0072  
                            ??_app_get_interface_callback 0070  
                                         _clear_ep0_stall 106A  
             __end_of_app_set_control_line_state_callback 1060  
                   ??_app_set_control_line_state_callback 0072  
                    ?_app_set_control_line_state_callback 0070  
                     _app_set_control_line_state_callback 105E  
                                         _returning_short 00C9  
                                      _func_serial_string 194C  
                           ?_app_out_transaction_callback 0070  
                                   ?_usb_arm_out_endpoint 0070  
                                          stall_ep_out@ep 0071  
                                   __end_of_usb_send_data 13C3  
                                         usb_send_data@ep 02D1  
                                             ?_pp_process 035C  
                                          ??_stall_ep_out 0070  
                                          _init_endpoints 0694  
                                  __end_of_handle_ep0_out 095B  
                                                ??___wmul 0000  
                                             __pdataBANK1 00CB  
                                             __pdataBANK6 0360  
                                             __pdataBANK7 03A0  
                 app_unknown_setup_request_callback@setup 0063  
                                                ??_memcpy 0000  
                                                ??_memset 0000  
                        __end_ofi1_usb_in_endpoint_halted 11F6  
                                              memset@dest 02B6  
                                             ?_timer_init 0070  
                            __end_of_reset_ep0_data_stage 10C1  
                   app_set_interface_callback@alt_setting 0070  
                                           exec_ops@count 034E  
                                           ??_dummy_locks 02B6  
                                  ??_usb_send_in_buffer_0 007D  
                                           exec_ops@txbuf 0346  
                                             __pbssBIGRAM 22D8  
                                               ___latbits 0002  
                                           __pcstackBANK0 0048  
                                           __pcstackBANK1 00A0  
                                           __pcstackBANK2 0000  
                                           __pcstackBANK5 02B6  
                                           __pcstackBANK6 0346  
                             ?_app_get_interface_callback 0070  
                                       pp_process@buf_len 0320  
                         ??_app_get_comm_feature_callback 0072  
                              usb_send_in_buffer@endpoint 02C9  
                             ?_app_set_interface_callback 0070  
                                   pic16_linear_addr@addr 02CC  
                                   pic16_linear_addr@high 02CA  
                            __end_of_start_control_return 1800  
                 __end_of_handle_standard_control_request 03E0  
                       ??_handle_standard_control_request 005D  
                        ?_handle_standard_control_request 0070  
                         _handle_standard_control_request 0082  
                                  __end_of_init_endpoints 07CE  
                  handle_standard_control_request@len_604 00AF  
                          ??_app_get_line_coding_callback 0071  
                                    pp_send_res_byte@data 02D2  
                          usb_in_endpoint_halted@endpoint 02C0  
                                         ?_handle_ep0_out 0070  
                       usb_out_endpoint_has_data@endpoint 02B7  
                           usb_application_get_string@ptr 0070  
                  handle_standard_control_request@res_616 00A2  
                  handle_standard_control_request@ret_614 00A3  
                  handle_standard_control_request@ret_617 00B5  
                                __end_of_func_prog_string 18C7  
                  app_get_comm_feature_callback@interface 0070  
                app_clear_comm_feature_callback@interface 0070  
                  app_set_comm_feature_callback@interface 0070  
                                              send_bits@d 02B8  
                                              send_bits@i 02B9  
                      __end_of_usb_application_get_string 16E0  
                              _usb_application_get_string 165C  
                                       ?_handle_ep0_setup 0070  
                                           _reset_bd0_out 108A  
                                 __end_of_clear_ep0_stall 106F  
                                                ?_pp_init 02B6  
                                      ??_handle_ep0_setup 007E  
                                     __end_of_dummy_locks 1178  
                                       ??_set_line_coding 0075  
                                  ??_usb_arm_out_endpoint 02BC  
                                  i1_reset_ep0_data_stage 10A0  
                                          ___wmul@product 02BA  
                                               clear_ram0 10D8  
                                   i1_init_endpoints$2399 005A  
                                                _PIE2bits 0092  
                                               _send_bits 12A0  
                                           pp_process@len 035E  
                                         ?_init_endpoints 0070  
                                               _pp_params 0332  
                            _usb_application_config_descs 0369  
                usb_start_receive_ep0_data_stage@callback 0072  
                  app_get_encapsulated_response@interface 0070  
                                                _PIR1bits 0011  
                                                _PIR2bits 0012  
         handle_standard_control_request@descriptor_index 00B7  
                                                _UCFGbits 0E91  
                          ??_app_out_transaction_callback 0070  
                                      _handle_ep0_out$655 0048  
                       process_cdc_setup_request@callback 00B1  
                                               _uart_init 11A8  
                                _ep0_data_stage_in_buffer 0326  
                                                _UCONbits 0E8E  
                                            send_bits@len 02B6  
                                               _stall_ep0 1084  
                                ??_app_usb_reset_callback 0070  
                       __end_of_usb_out_endpoint_has_data 1152  
                                 start_control_return@len 004B  
                                 ??_usb_get_configuration 0000  
                                       ___wmul@multiplier 02B6  
                                 start_control_return@ptr 0049  
                                                i1___wmul 11C0  
                                          ?_reset_bd0_out 0070  
                                                i1_memcpy 1329  
                                                i1_memset 1178  
                            usb_arm_out_endpoint@endpoint 02C2  
                                i1_usb_in_endpoint_halted 11DB  
                               usb_send_data_stage@buffer 005E  
                             __end_ofi1_pic16_linear_addr 14DB  
                                    __end_of_stall_ep_out 1211  
                                  usb_send_data_stage@len 0058  
                     usb_start_receive_ep0_data_stage@len 0070  
                                           _handle_ep0_in 16E0  
                                              _ACTCONbits 039B  
                       process_cdc_setup_request@response 00AF  
                   __end_of_app_get_comm_feature_callback 105C  
                           _app_get_comm_feature_callback 105A  
                   __end_of_app_send_encapsulated_command 105E  
                           _app_send_encapsulated_command 105C  
                                               exec_ops@d 0359  
                                               exec_ops@i 035B  
                                               exec_ops@n 035A  
                                    _reset_ep0_data_stage 10B6  
                                              ?_send_bits 02B6  
                                              usb_init@ep 02DA  
                     _handle_standard_control_request$615 00A0  
                                               memcpy@tmp 02BC  
                                __end_of_pp_send_res_byte 1417  
                                           ??_stall_ep_in 0076  
                                      _usb_get_out_buffer 07CE  
                            usb_in_endpoint_busy@endpoint 02B7  
                      app_get_line_coding_callback@coding 0070  
                      app_set_line_coding_callback@coding 0070  
                                              ?_uart_init 0070  
                             usb_send_data_stage@callback 005A  
                      handle_standard_control_request@len 00AD  
                      handle_standard_control_request@req 00B1  
                      handle_standard_control_request@res 00A5  
                      handle_standard_control_request@ret 00A7  
                                         _configuration_1 1800  
                                ??_usb_in_endpoint_halted 02BC  
                                 _app_send_break_callback 112E  
                              __end_of_usb_send_in_buffer 165C  
                                              ?_stall_ep0 0070  
                                     ?_usb_get_out_buffer 02BC  
                                           ??_usb_service 0068  
                            __end_of_cdc_interface_string 18E3  
                                             _line_coding 0360  
                                       ??_usb_halt_ep_out 0076  
                                    _start_control_return 1770  
                                             _dummy_locks 1165  
                                      exec_ops@count_1781 034F  
                                      exec_ops@count_1790 0357  
                                      exec_ops@count_1783 0350  
                                      exec_ops@count_1784 0351  
                                      exec_ops@count_1785 0352  
                                      exec_ops@count_1786 0353  
                                      exec_ops@count_1787 0354  
                                      exec_ops@count_1788 0355  
                                      exec_ops@count_1789 0356  
                                        ?_clear_ep0_stall 0070  
                   handle_standard_control_request@ep_dir 00B4  
                                          ?_handle_ep0_in 0070  
                   handle_standard_control_request@ep_num 00B2  
                                                __ptext10 11A8  
                                                __ptext11 10AB  
                                                __ptext20 139C  
                                                __ptext12 095B  
                                                __ptext21 15F0  
                                                __ptext13 03E0  
                                                __ptext30 0B4F  
                                                __ptext22 122C  
                                                __ptext14 12A0  
                                                __ptext31 152E  
                                                __ptext23 111E  
                                                __ptext15 13EB  
                                                __ptext40 1375  
                                                __ptext32 108A  
                                                __ptext24 1264  
                                                __ptext16 1190  
                                                __ptext41 1417  
                                                __ptext33 14DB  
                                                __ptext25 1211  
                                                __ptext17 1165  
                                                __ptext50 1090  
                                                __ptext42 165C  
                                                __ptext34 0082  
                                                __ptext26 134F  
                                                __ptext18 10F0  
                                                __ptext51 0D96  
                                                __ptext43 106F  
                                                __ptext35 0C60  
                                                __ptext27 1074  
                                                __ptext19 0800  
                                                __ptext60 105A  
                                                __ptext52 1152  
                                                __ptext44 0002  
                                                __ptext36 1492  
                                                __ptext28 1097  
                                                __ptext61 08B7  
                                                __ptext53 1281  
                                                __ptext45 07FF  
                                                __ptext37 1178  
                                                __ptext70 10CC  
                                                __ptext62 1084  
                                                __ptext54 1770  
                                                __ptext46 1060  
                                                __ptext38 1304  
                                                __ptext71 13C3  
                                                __ptext63 107E  
                                                __ptext55 105E  
                                                __ptext47 1062  
                                                __ptext39 11F6  
                                                __ptext72 1058  
                                                __ptext64 16E0  
                                                __ptext56 105C  
                                                __ptext48 1055  
                                                __ptext73 1056  
                                                __ptext65 10A0  
                                                __ptext57 112E  
                                                __ptext49 106A  
                                                __ptext74 10FE  
                                                __ptext66 1329  
                                                __ptext58 110E  
                                                __ptext75 1054  
                                                __ptext67 12C0  
                                                __ptext59 1065  
                                                __ptext76 1053  
                                                __ptext68 11DB  
                                                __ptext77 1052  
                                                __ptext69 11C0  
                                                __ptext78 1051  
                            __end_of_usb_in_endpoint_busy 112E  
                                                _led_init 1074  
                                    ??_usb_get_out_buffer 02BE  
                                                _exec_ops 03E0  
                     __end_of_send_zero_length_packet_ep0 1084  
                             _send_zero_length_packet_ep0 107E  
                                   ?_reset_ep0_data_stage 0070  
                                          usb_service@pid 00C1  
                                        _control_need_zlp 032F  
                                                _sendback 0324  
                  app_set_control_line_state_callback@dtr 0070  
                  app_set_control_line_state_callback@dts 0071  
                                            ??_pp_process 02DB  
                                       usb_halt_ep_out@ep 007A  
             __end_of_app_unknown_get_descriptor_callback 1074  
                   ??_app_unknown_get_descriptor_callback 0073  
                    ?_app_unknown_get_descriptor_callback 0070  
                     _app_unknown_get_descriptor_callback 106F  
                                   usb_send_in_buffer@len 02C1  
                                   usb_send_in_buffer@pid 02C8  
                                                int$flags 007E  
                  app_send_encapsulated_command@interface 0070  
                                                _usb_init 158E  
                   __end_of_app_set_comm_feature_callback 105A  
                           _app_set_comm_feature_callback 1058  
                                         ??_reset_bd0_out 0070  
                                            ??_timer_init 0000  
                                     __end_of_stall_ep_in 144B  
                                   ?_start_control_return 0049  
                                              _INTCONbits 000B  
                                        _uart_tx_buf_head 032A  
                                               usb_init@i 02D9  
                              ?_process_cdc_setup_request 005F  
                                                memcpy@d1 02B6  
                                        i1_init_endpoints 0C60  
                                                memcpy@s1 02B8  
                                          __pstringtext10 1911  
                                          __pstringtext11 0000  
                                     __end_of_usb_service 0C60  
                                           _hardware_init 1097  
               handle_standard_control_request@descriptor 00B6  
                                      __end_of_pp_process 0A49  
                        app_endpoint_halt_callback@halted 0070  
                                                intlevel1 0000  
                                         pp_process@state 0322  
                                           _vendor_string 1926  
               handle_standard_control_request@ep_num_619 00BA  
                 handle_standard_control_request@desc_602 00B8  
                 handle_standard_control_request@desc_605 00A9  
                                        ??_handle_ep0_out 007B  
                                             ??_send_bits 02B7  
                                       uart_init@brg_data 02B6  
                                      __end_of_timer_init 10B6  
                                 __end_of_configuration_1 1883  
                                         main@out_buf_len 02E2  
                                              _OSCCONbits 0099  
                          ?_app_get_comm_feature_callback 0070  
                          ?_app_send_encapsulated_command 0070  
                               ??_app_send_break_callback 0072  
                                  _this_device_descriptor 193A  
                                             ??_uart_init 0000  
                                       _serial_num_string 18FB  
                                          _product_string 18E3  
                                   usb_get_out_buffer@buf 02BC  
                                             ??_stall_ep0 0070  
                                           __pstringtext1 1800  
                                           __pstringtext2 1883  
                                           __pstringtext3 18A9  
                                           __pstringtext4 18C7  
                                           __pstringtext5 18E3  
                                           __pstringtext6 18FB  
                                           __pstringtext7 1926  
                                           __pstringtext8 193A  
                                           __pstringtext9 194C  
                             ?_usb_application_get_string 0070  
                                         _set_line_coding 10CC  
                                         ??_handle_ep0_in 0049  
                                             _uart_rx_buf 03C3  
                                             _uart_tx_buf 0344  
                                          ?_hardware_init 0070  
                                 _usb_out_endpoint_halted 1248  
                        i1usb_in_endpoint_halted@endpoint 007A  
               set_or_clear_comm_feature_callback@context 0073  
          set_or_clear_comm_feature_callback@idle_setting 0075  
               app_get_comm_feature_callback@idle_setting 0070  
             app_clear_comm_feature_callback@idle_setting 0070  
               app_set_comm_feature_callback@idle_setting 0070  
                                 ?i1_reset_ep0_data_stage 0070  
                                        ??_init_endpoints 02CE  
                                  ??_reset_ep0_data_stage 0000  
                                  _app_usb_reset_callback 1054  
                                       _pic16_linear_addr 144B  
                                    _cdc_interface_string 18C7  
                                     _uart_rx_flush_timer 032C  
                                       exec_ops@txbuf_len 0358  
                                      ?_pic16_linear_addr 02BC  
                               __end_of_serial_num_string 1911  
                                  __end_of_product_string 18FB  
                     app_get_interface_callback@interface 0070  
                     app_set_interface_callback@interface 0070  
